ARM GAS  C:\Users\koseki\AppData\Local\Temp\cclxAXbM.s 			page 1


   1              		.syntax unified
   2              		.cpu cortex-m3
   3              		.fpu softvfp
   4              		.eabi_attribute 20, 1
   5              		.eabi_attribute 21, 1
   6              		.eabi_attribute 23, 3
   7              		.eabi_attribute 24, 1
   8              		.eabi_attribute 25, 1
   9              		.eabi_attribute 26, 1
  10              		.eabi_attribute 30, 1
  11              		.eabi_attribute 34, 1
  12              		.eabi_attribute 18, 4
  13              		.thumb
  14              		.syntax unified
  15              		.file	"CLCD_control.c"
  16              		.text
  17              	.Ltext0:
  18              		.cfi_sections	.debug_frame
  19              		.section	.text.Task_CLCD,"ax",%progbits
  20              		.align	2
  21              		.global	Task_CLCD
  22              		.thumb
  23              		.thumb_func
  24              		.type	Task_CLCD, %function
  25              	Task_CLCD:
  26              	.LFB65:
  27              		.file 1 "CLCD_control.c"
   1:CLCD_control.c **** /* ========================================
   2:CLCD_control.c ****  *
   3:CLCD_control.c ****  * Copyright YOUR COMPANY, THE YEAR
   4:CLCD_control.c ****  * All Rights Reserved
   5:CLCD_control.c ****  * UNPUBLISHED, LICENSED SOFTWARE.
   6:CLCD_control.c ****  *
   7:CLCD_control.c ****  * CONFIDENTIAL AND PROPRIETARY INFORMATION
   8:CLCD_control.c ****  * WHICH IS THE PROPERTY OF your company.
   9:CLCD_control.c ****  *
  10:CLCD_control.c ****  * ========================================
  11:CLCD_control.c **** */
  12:CLCD_control.c **** 
  13:CLCD_control.c **** /* PSoC5 */
  14:CLCD_control.c **** #include <device.h>
  15:CLCD_control.c **** #include <stdio.h>
  16:CLCD_control.c **** #include <stdlib.h>
  17:CLCD_control.c **** #include <math.h>
  18:CLCD_control.c **** /* FreeRTOS */
  19:CLCD_control.c **** #include "FreeRTOS.h"
  20:CLCD_control.c **** #include "task.h"
  21:CLCD_control.c **** #include "queue.h"
  22:CLCD_control.c **** #include "semphr.h"
  23:CLCD_control.c **** /* API */
  24:CLCD_control.c **** #include "I2C_CLCD.h"
  25:CLCD_control.c **** #include "rot.h"
  26:CLCD_control.c **** //#include "key.h"
  27:CLCD_control.c **** 
  28:CLCD_control.c **** extern xQueueHandle xQueue_ROT;        /* Queue Data from Task_ROT(ROT_ENC_Handler) */
  29:CLCD_control.c **** extern xQueueHandle xQueue_RXD;        /* Queue Data from Task_RADIO */
  30:CLCD_control.c **** 
ARM GAS  C:\Users\koseki\AppData\Local\Temp\cclxAXbM.s 			page 2


  31:CLCD_control.c **** extern xSemaphoreHandle xMutex_RX_BUF;     /* Mutex for RX Data Buffer */
  32:CLCD_control.c **** 
  33:CLCD_control.c **** /***************************************************************************
  34:CLCD_control.c **** *	Task_CLCD
  35:CLCD_control.c **** ****************************************************************************/
  36:CLCD_control.c **** 
  37:CLCD_control.c **** const uint8 pga_gain[] = {1u, 2u, 4u, 8u, 16u, 24u, 32u, 48u};
  38:CLCD_control.c **** 
  39:CLCD_control.c **** #define GAIN_MAX    sizeof pga_gain / sizeof pga_gain[0]
  40:CLCD_control.c **** 
  41:CLCD_control.c **** 
  42:CLCD_control.c **** void Task_CLCD(void *pvParameters)
  43:CLCD_control.c **** {
  28              		.loc 1 43 0
  29              		.cfi_startproc
  30              		@ args = 0, pretend = 0, frame = 24
  31              		@ frame_needed = 0, uses_anonymous_args = 0
  32              	.LVL0:
  33 0000 30B5     		push	{r4, r5, lr}
  34              		.cfi_def_cfa_offset 12
  35              		.cfi_offset 4, -12
  36              		.cfi_offset 5, -8
  37              		.cfi_offset 14, -4
  38 0002 87B0     		sub	sp, sp, #28
  39              		.cfi_def_cfa_offset 40
  40              	.LVL1:
  44:CLCD_control.c ****     /* Gain Control */
  45:CLCD_control.c ****     int16 gain = 2;     /* init value x04 */
  46:CLCD_control.c ****     int8  click;
  47:CLCD_control.c ****     char str[20];
  48:CLCD_control.c ****     const portTickType xDelay = 100 / portTICK_RATE_MS;
  49:CLCD_control.c ****     
  50:CLCD_control.c ****     /*                   "0123456789012345" */
  51:CLCD_control.c ****     I2C_CLCD_Position(0u, 0u);
  41              		.loc 1 51 0
  42 0004 0021     		movs	r1, #0
  43 0006 0846     		mov	r0, r1
  44              	.LVL2:
  45 0008 FFF7FEFF 		bl	I2C_CLCD_Position
  46              	.LVL3:
  52:CLCD_control.c ****     I2C_CLCD_PrintString("PGA Gain        ");
  47              		.loc 1 52 0
  48 000c 2348     		ldr	r0, .L9
  49 000e FFF7FEFF 		bl	I2C_CLCD_PrintString
  50              	.LVL4:
  53:CLCD_control.c ****     I2C_CLCD_Position(1u, 0u);
  51              		.loc 1 53 0
  52 0012 0021     		movs	r1, #0
  53 0014 0120     		movs	r0, #1
  54 0016 FFF7FEFF 		bl	I2C_CLCD_Position
  55              	.LVL5:
  54:CLCD_control.c ****     I2C_CLCD_PrintString("                ");
  56              		.loc 1 54 0
  57 001a 2148     		ldr	r0, .L9+4
  58 001c FFF7FEFF 		bl	I2C_CLCD_PrintString
  59              	.LVL6:
  55:CLCD_control.c **** 
ARM GAS  C:\Users\koseki\AppData\Local\Temp\cclxAXbM.s 			page 3


  56:CLCD_control.c ****     /* Init. Gain Control */
  57:CLCD_control.c ****     PGA_1_SetGain(pga_gain[gain]);
  60              		.loc 1 57 0
  61 0020 0420     		movs	r0, #4
  62 0022 FFF7FEFF 		bl	PGA_1_SetGain
  63              	.LVL7:
  58:CLCD_control.c ****     I2C_CLCD_Position(1u, 0u);
  64              		.loc 1 58 0
  65 0026 0021     		movs	r1, #0
  66 0028 0120     		movs	r0, #1
  67 002a FFF7FEFF 		bl	I2C_CLCD_Position
  68              	.LVL8:
  59:CLCD_control.c ****     sprintf(str, "x%02d     ", pga_gain[gain]);
  69              		.loc 1 59 0
  70 002e 0422     		movs	r2, #4
  71 0030 1C49     		ldr	r1, .L9+8
  72 0032 6846     		mov	r0, sp
  73 0034 FFF7FEFF 		bl	sprintf
  74              	.LVL9:
  60:CLCD_control.c ****     I2C_CLCD_PrintString(str);
  75              		.loc 1 60 0
  76 0038 6846     		mov	r0, sp
  77 003a FFF7FEFF 		bl	I2C_CLCD_PrintString
  78              	.LVL10:
  45:CLCD_control.c ****     int8  click;
  79              		.loc 1 45 0
  80 003e 0224     		movs	r4, #2
  81              	.LVL11:
  82              	.L5:
  61:CLCD_control.c **** 
  62:CLCD_control.c ****     while(1)
  63:CLCD_control.c ****     {
  64:CLCD_control.c ****         /* Get click count of ROT */
  65:CLCD_control.c ****         if (uxQueueMessagesWaiting(xQueue_ROT) > 0)
  83              		.loc 1 65 0
  84 0040 194B     		ldr	r3, .L9+12
  85 0042 1868     		ldr	r0, [r3]
  86 0044 FFF7FEFF 		bl	uxQueueMessagesWaiting
  87              	.LVL12:
  88 0048 18B3     		cbz	r0, .L2
  66:CLCD_control.c ****         {
  67:CLCD_control.c ****             xQueueReceive(xQueue_ROT, &click, 0);
  89              		.loc 1 67 0
  90 004a 0023     		movs	r3, #0
  91 004c 1A46     		mov	r2, r3
  92 004e 0DF11701 		add	r1, sp, #23
  93 0052 1548     		ldr	r0, .L9+12
  94 0054 0068     		ldr	r0, [r0]
  95 0056 FFF7FEFF 		bl	xQueueGenericReceive
  96              	.LVL13:
  68:CLCD_control.c **** 
  69:CLCD_control.c ****             /* the target PGA gain */
  70:CLCD_control.c ****             gain += click ;
  97              		.loc 1 70 0
  98 005a 9DF91730 		ldrsb	r3, [sp, #23]
  99 005e 1C44     		add	r4, r4, r3
 100              	.LVL14:
ARM GAS  C:\Users\koseki\AppData\Local\Temp\cclxAXbM.s 			page 4


 101 0060 24B2     		sxth	r4, r4
 102              	.LVL15:
  71:CLCD_control.c ****             if (gain < 0)
 103              		.loc 1 71 0
 104 0062 002C     		cmp	r4, #0
 105 0064 00DA     		bge	.L3
  72:CLCD_control.c ****                 gain = 0;
 106              		.loc 1 72 0
 107 0066 0024     		movs	r4, #0
 108              	.LVL16:
 109              	.L3:
  73:CLCD_control.c ****             if ((uint16)gain > (GAIN_MAX - 1))
 110              		.loc 1 73 0
 111 0068 A3B2     		uxth	r3, r4
 112 006a 072B     		cmp	r3, #7
 113 006c 00D9     		bls	.L4
  74:CLCD_control.c ****                 gain = GAIN_MAX - 1;
 114              		.loc 1 74 0
 115 006e 0724     		movs	r4, #7
 116              	.LVL17:
 117              	.L4:
  75:CLCD_control.c ****             /*set PGA gain*/
  76:CLCD_control.c ****             PGA_1_SetGain(pga_gain[gain]);
 118              		.loc 1 76 0
 119 0070 0E4B     		ldr	r3, .L9+16
 120 0072 1D5D     		ldrb	r5, [r3, r4]	@ zero_extendqisi2
 121 0074 2846     		mov	r0, r5
 122 0076 FFF7FEFF 		bl	PGA_1_SetGain
 123              	.LVL18:
  77:CLCD_control.c **** 
  78:CLCD_control.c ****             /* PGA Gain */
  79:CLCD_control.c ****             I2C_CLCD_Position(1u, 0u);
 124              		.loc 1 79 0
 125 007a 0021     		movs	r1, #0
 126 007c 0120     		movs	r0, #1
 127 007e FFF7FEFF 		bl	I2C_CLCD_Position
 128              	.LVL19:
  80:CLCD_control.c ****             sprintf(str, "x%02d     ", pga_gain[gain]);
 129              		.loc 1 80 0
 130 0082 2A46     		mov	r2, r5
 131 0084 0749     		ldr	r1, .L9+8
 132 0086 6846     		mov	r0, sp
 133 0088 FFF7FEFF 		bl	sprintf
 134              	.LVL20:
  81:CLCD_control.c ****             I2C_CLCD_PrintString(str);
 135              		.loc 1 81 0
 136 008c 6846     		mov	r0, sp
 137 008e FFF7FEFF 		bl	I2C_CLCD_PrintString
 138              	.LVL21:
 139              	.L2:
  82:CLCD_control.c ****         }
  83:CLCD_control.c ****         /* sleep for 100ms */
  84:CLCD_control.c ****         vTaskDelay(xDelay);
 140              		.loc 1 84 0
 141 0092 6420     		movs	r0, #100
 142 0094 FFF7FEFF 		bl	vTaskDelay
 143              	.LVL22:
ARM GAS  C:\Users\koseki\AppData\Local\Temp\cclxAXbM.s 			page 5


  85:CLCD_control.c ****     }
 144              		.loc 1 85 0
 145 0098 D2E7     		b	.L5
 146              	.L10:
 147 009a 00BF     		.align	2
 148              	.L9:
 149 009c 00000000 		.word	.LC0
 150 00a0 14000000 		.word	.LC1
 151 00a4 28000000 		.word	.LC2
 152 00a8 00000000 		.word	xQueue_ROT
 153 00ac 00000000 		.word	.LANCHOR0
 154              		.cfi_endproc
 155              	.LFE65:
 156              		.size	Task_CLCD, .-Task_CLCD
 157              		.global	pga_gain
 158              		.section	.rodata
 159              		.align	2
 160              		.set	.LANCHOR0,. + 0
 161              		.type	pga_gain, %object
 162              		.size	pga_gain, 8
 163              	pga_gain:
 164 0000 01       		.byte	1
 165 0001 02       		.byte	2
 166 0002 04       		.byte	4
 167 0003 08       		.byte	8
 168 0004 10       		.byte	16
 169 0005 18       		.byte	24
 170 0006 20       		.byte	32
 171 0007 30       		.byte	48
 172              		.section	.rodata.str1.4,"aMS",%progbits,1
 173              		.align	2
 174              	.LC0:
 175 0000 50474120 		.ascii	"PGA Gain        \000"
 175      4761696E 
 175      20202020 
 175      20202020 
 175      00
 176 0011 000000   		.space	3
 177              	.LC1:
 178 0014 20202020 		.ascii	"                \000"
 178      20202020 
 178      20202020 
 178      20202020 
 178      00
 179 0025 000000   		.space	3
 180              	.LC2:
 181 0028 78253032 		.ascii	"x%02d     \000"
 181      64202020 
 181      202000
 182              		.text
 183              	.Letext0:
 184              		.file 2 "c:\\program files (x86)\\cypress\\psoc creator\\4.1\\psoc creator\\import\\gnu\\arm\\5.4.
 185              		.file 3 "c:\\program files (x86)\\cypress\\psoc creator\\4.1\\psoc creator\\import\\gnu\\arm\\5.4.
 186              		.file 4 "Generated_Source\\PSoC5/cytypes.h"
 187              		.file 5 "..\\FreeRTOS/portmacro.h"
 188              		.file 6 "..\\FreeRTOS/queue.h"
 189              		.file 7 "..\\CMSIS_DSP_LIB\\Include/core_cm3.h"
ARM GAS  C:\Users\koseki\AppData\Local\Temp\cclxAXbM.s 			page 6


 190              		.file 8 "..\\API/I2C_CLCD.h"
 191              		.file 9 "Generated_Source\\PSoC5/PGA_1.h"
 192              		.file 10 "c:\\program files (x86)\\cypress\\psoc creator\\4.1\\psoc creator\\import\\gnu\\arm\\5.4
 193              		.file 11 "..\\FreeRTOS/task.h"