ARM GAS  C:\Users\koseki\AppData\Local\Temp\cceOFxqV.s 			page 1


   1              		.syntax unified
   2              		.cpu cortex-m3
   3              		.fpu softvfp
   4              		.eabi_attribute 20, 1
   5              		.eabi_attribute 21, 1
   6              		.eabi_attribute 23, 3
   7              		.eabi_attribute 24, 1
   8              		.eabi_attribute 25, 1
   9              		.eabi_attribute 26, 1
  10              		.eabi_attribute 30, 6
  11              		.eabi_attribute 34, 1
  12              		.eabi_attribute 18, 4
  13              		.thumb
  14              		.syntax unified
  15              		.file	"event_groups.c"
  16              		.text
  17              	.Ltext0:
  18              		.cfi_sections	.debug_frame
  19              		.section	.text.xEventGroupCreate,"ax",%progbits
  20              		.align	2
  21              		.global	xEventGroupCreate
  22              		.thumb
  23              		.thumb_func
  24              		.type	xEventGroupCreate, %function
  25              	xEventGroupCreate:
  26              	.LFB64:
  27              		.file 1 "FreeRTOS\\event_groups.c"
   1:FreeRTOS/event_groups.c **** /*
   2:FreeRTOS/event_groups.c ****     FreeRTOS V8.2.3 - Copyright (C) 2015 Real Time Engineers Ltd.
   3:FreeRTOS/event_groups.c ****     All rights reserved
   4:FreeRTOS/event_groups.c **** 
   5:FreeRTOS/event_groups.c ****     VISIT http://www.FreeRTOS.org TO ENSURE YOU ARE USING THE LATEST VERSION.
   6:FreeRTOS/event_groups.c **** 
   7:FreeRTOS/event_groups.c ****     This file is part of the FreeRTOS distribution.
   8:FreeRTOS/event_groups.c **** 
   9:FreeRTOS/event_groups.c ****     FreeRTOS is free software; you can redistribute it and/or modify it under
  10:FreeRTOS/event_groups.c ****     the terms of the GNU General Public License (version 2) as published by the
  11:FreeRTOS/event_groups.c ****     Free Software Foundation >>>> AND MODIFIED BY <<<< the FreeRTOS exception.
  12:FreeRTOS/event_groups.c **** 
  13:FreeRTOS/event_groups.c ****     ***************************************************************************
  14:FreeRTOS/event_groups.c ****     >>!   NOTE: The modification to the GPL is included to allow you to     !<<
  15:FreeRTOS/event_groups.c ****     >>!   distribute a combined work that includes FreeRTOS without being   !<<
  16:FreeRTOS/event_groups.c ****     >>!   obliged to provide the source code for proprietary components     !<<
  17:FreeRTOS/event_groups.c ****     >>!   outside of the FreeRTOS kernel.                                   !<<
  18:FreeRTOS/event_groups.c ****     ***************************************************************************
  19:FreeRTOS/event_groups.c **** 
  20:FreeRTOS/event_groups.c ****     FreeRTOS is distributed in the hope that it will be useful, but WITHOUT ANY
  21:FreeRTOS/event_groups.c ****     WARRANTY; without even the implied warranty of MERCHANTABILITY or FITNESS
  22:FreeRTOS/event_groups.c ****     FOR A PARTICULAR PURPOSE.  Full license text is available on the following
  23:FreeRTOS/event_groups.c ****     link: http://www.freertos.org/a00114.html
  24:FreeRTOS/event_groups.c **** 
  25:FreeRTOS/event_groups.c ****     ***************************************************************************
  26:FreeRTOS/event_groups.c ****      *                                                                       *
  27:FreeRTOS/event_groups.c ****      *    FreeRTOS provides completely free yet professionally developed,    *
  28:FreeRTOS/event_groups.c ****      *    robust, strictly quality controlled, supported, and cross          *
  29:FreeRTOS/event_groups.c ****      *    platform software that is more than just the market leader, it     *
  30:FreeRTOS/event_groups.c ****      *    is the industry's de facto standard.                               *
ARM GAS  C:\Users\koseki\AppData\Local\Temp\cceOFxqV.s 			page 2


  31:FreeRTOS/event_groups.c ****      *                                                                       *
  32:FreeRTOS/event_groups.c ****      *    Help yourself get started quickly while simultaneously helping     *
  33:FreeRTOS/event_groups.c ****      *    to support the FreeRTOS project by purchasing a FreeRTOS           *
  34:FreeRTOS/event_groups.c ****      *    tutorial book, reference manual, or both:                          *
  35:FreeRTOS/event_groups.c ****      *    http://www.FreeRTOS.org/Documentation                              *
  36:FreeRTOS/event_groups.c ****      *                                                                       *
  37:FreeRTOS/event_groups.c ****     ***************************************************************************
  38:FreeRTOS/event_groups.c **** 
  39:FreeRTOS/event_groups.c ****     http://www.FreeRTOS.org/FAQHelp.html - Having a problem?  Start by reading
  40:FreeRTOS/event_groups.c ****     the FAQ page "My application does not run, what could be wrong?".  Have you
  41:FreeRTOS/event_groups.c ****     defined configASSERT()?
  42:FreeRTOS/event_groups.c **** 
  43:FreeRTOS/event_groups.c ****     http://www.FreeRTOS.org/support - In return for receiving this top quality
  44:FreeRTOS/event_groups.c ****     embedded software for free we request you assist our global community by
  45:FreeRTOS/event_groups.c ****     participating in the support forum.
  46:FreeRTOS/event_groups.c **** 
  47:FreeRTOS/event_groups.c ****     http://www.FreeRTOS.org/training - Investing in training allows your team to
  48:FreeRTOS/event_groups.c ****     be as productive as possible as early as possible.  Now you can receive
  49:FreeRTOS/event_groups.c ****     FreeRTOS training directly from Richard Barry, CEO of Real Time Engineers
  50:FreeRTOS/event_groups.c ****     Ltd, and the world's leading authority on the world's leading RTOS.
  51:FreeRTOS/event_groups.c **** 
  52:FreeRTOS/event_groups.c ****     http://www.FreeRTOS.org/plus - A selection of FreeRTOS ecosystem products,
  53:FreeRTOS/event_groups.c ****     including FreeRTOS+Trace - an indispensable productivity tool, a DOS
  54:FreeRTOS/event_groups.c ****     compatible FAT file system, and our tiny thread aware UDP/IP stack.
  55:FreeRTOS/event_groups.c **** 
  56:FreeRTOS/event_groups.c ****     http://www.FreeRTOS.org/labs - Where new FreeRTOS products go to incubate.
  57:FreeRTOS/event_groups.c ****     Come and try FreeRTOS+TCP, our new open source TCP/IP stack for FreeRTOS.
  58:FreeRTOS/event_groups.c **** 
  59:FreeRTOS/event_groups.c ****     http://www.OpenRTOS.com - Real Time Engineers ltd. license FreeRTOS to High
  60:FreeRTOS/event_groups.c ****     Integrity Systems ltd. to sell under the OpenRTOS brand.  Low cost OpenRTOS
  61:FreeRTOS/event_groups.c ****     licenses offer ticketed support, indemnification and commercial middleware.
  62:FreeRTOS/event_groups.c **** 
  63:FreeRTOS/event_groups.c ****     http://www.SafeRTOS.com - High Integrity Systems also provide a safety
  64:FreeRTOS/event_groups.c ****     engineered and independently SIL3 certified version for use in safety and
  65:FreeRTOS/event_groups.c ****     mission critical applications that require provable dependability.
  66:FreeRTOS/event_groups.c **** 
  67:FreeRTOS/event_groups.c ****     1 tab == 4 spaces!
  68:FreeRTOS/event_groups.c **** */
  69:FreeRTOS/event_groups.c **** 
  70:FreeRTOS/event_groups.c **** /* Standard includes. */
  71:FreeRTOS/event_groups.c **** #include <stdlib.h>
  72:FreeRTOS/event_groups.c **** 
  73:FreeRTOS/event_groups.c **** /* Defining MPU_WRAPPERS_INCLUDED_FROM_API_FILE prevents task.h from redefining
  74:FreeRTOS/event_groups.c **** all the API functions to use the MPU wrappers.  That should only be done when
  75:FreeRTOS/event_groups.c **** task.h is included from an application file. */
  76:FreeRTOS/event_groups.c **** #define MPU_WRAPPERS_INCLUDED_FROM_API_FILE
  77:FreeRTOS/event_groups.c **** 
  78:FreeRTOS/event_groups.c **** /* FreeRTOS includes. */
  79:FreeRTOS/event_groups.c **** #include "FreeRTOS.h"
  80:FreeRTOS/event_groups.c **** #include "task.h"
  81:FreeRTOS/event_groups.c **** #include "timers.h"
  82:FreeRTOS/event_groups.c **** #include "event_groups.h"
  83:FreeRTOS/event_groups.c **** 
  84:FreeRTOS/event_groups.c **** /* Lint e961 and e750 are suppressed as a MISRA exception justified because the
  85:FreeRTOS/event_groups.c **** MPU ports require MPU_WRAPPERS_INCLUDED_FROM_API_FILE to be defined for the
  86:FreeRTOS/event_groups.c **** header files above, but not in this file, in order to generate the correct
  87:FreeRTOS/event_groups.c **** privileged Vs unprivileged linkage and placement. */
ARM GAS  C:\Users\koseki\AppData\Local\Temp\cceOFxqV.s 			page 3


  88:FreeRTOS/event_groups.c **** #undef MPU_WRAPPERS_INCLUDED_FROM_API_FILE /*lint !e961 !e750. */
  89:FreeRTOS/event_groups.c **** 
  90:FreeRTOS/event_groups.c **** #if ( INCLUDE_xEventGroupSetBitFromISR == 1 ) && ( configUSE_TIMERS == 0 )
  91:FreeRTOS/event_groups.c **** 	#error configUSE_TIMERS must be set to 1 to make the xEventGroupSetBitFromISR() function available
  92:FreeRTOS/event_groups.c **** #endif
  93:FreeRTOS/event_groups.c **** 
  94:FreeRTOS/event_groups.c **** #if ( INCLUDE_xEventGroupSetBitFromISR == 1 ) && ( INCLUDE_xTimerPendFunctionCall == 0 )
  95:FreeRTOS/event_groups.c **** 	#error INCLUDE_xTimerPendFunctionCall must also be set to one to make the xEventGroupSetBitFromISR
  96:FreeRTOS/event_groups.c **** #endif
  97:FreeRTOS/event_groups.c **** 
  98:FreeRTOS/event_groups.c **** /* The following bit fields convey control information in a task's event list
  99:FreeRTOS/event_groups.c **** item value.  It is important they don't clash with the
 100:FreeRTOS/event_groups.c **** taskEVENT_LIST_ITEM_VALUE_IN_USE definition. */
 101:FreeRTOS/event_groups.c **** #if configUSE_16_BIT_TICKS == 1
 102:FreeRTOS/event_groups.c **** 	#define eventCLEAR_EVENTS_ON_EXIT_BIT	0x0100U
 103:FreeRTOS/event_groups.c **** 	#define eventUNBLOCKED_DUE_TO_BIT_SET	0x0200U
 104:FreeRTOS/event_groups.c **** 	#define eventWAIT_FOR_ALL_BITS			0x0400U
 105:FreeRTOS/event_groups.c **** 	#define eventEVENT_BITS_CONTROL_BYTES	0xff00U
 106:FreeRTOS/event_groups.c **** #else
 107:FreeRTOS/event_groups.c **** 	#define eventCLEAR_EVENTS_ON_EXIT_BIT	0x01000000UL
 108:FreeRTOS/event_groups.c **** 	#define eventUNBLOCKED_DUE_TO_BIT_SET	0x02000000UL
 109:FreeRTOS/event_groups.c **** 	#define eventWAIT_FOR_ALL_BITS			0x04000000UL
 110:FreeRTOS/event_groups.c **** 	#define eventEVENT_BITS_CONTROL_BYTES	0xff000000UL
 111:FreeRTOS/event_groups.c **** #endif
 112:FreeRTOS/event_groups.c **** 
 113:FreeRTOS/event_groups.c **** typedef struct xEventGroupDefinition
 114:FreeRTOS/event_groups.c **** {
 115:FreeRTOS/event_groups.c **** 	EventBits_t uxEventBits;
 116:FreeRTOS/event_groups.c **** 	List_t xTasksWaitingForBits;		/*< List of tasks waiting for a bit to be set. */
 117:FreeRTOS/event_groups.c **** 
 118:FreeRTOS/event_groups.c **** 	#if( configUSE_TRACE_FACILITY == 1 )
 119:FreeRTOS/event_groups.c **** 		UBaseType_t uxEventGroupNumber;
 120:FreeRTOS/event_groups.c **** 	#endif
 121:FreeRTOS/event_groups.c **** 
 122:FreeRTOS/event_groups.c **** } EventGroup_t;
 123:FreeRTOS/event_groups.c **** 
 124:FreeRTOS/event_groups.c **** /*-----------------------------------------------------------*/
 125:FreeRTOS/event_groups.c **** 
 126:FreeRTOS/event_groups.c **** /*
 127:FreeRTOS/event_groups.c ****  * Test the bits set in uxCurrentEventBits to see if the wait condition is met.
 128:FreeRTOS/event_groups.c ****  * The wait condition is defined by xWaitForAllBits.  If xWaitForAllBits is
 129:FreeRTOS/event_groups.c ****  * pdTRUE then the wait condition is met if all the bits set in uxBitsToWaitFor
 130:FreeRTOS/event_groups.c ****  * are also set in uxCurrentEventBits.  If xWaitForAllBits is pdFALSE then the
 131:FreeRTOS/event_groups.c ****  * wait condition is met if any of the bits set in uxBitsToWait for are also set
 132:FreeRTOS/event_groups.c ****  * in uxCurrentEventBits.
 133:FreeRTOS/event_groups.c ****  */
 134:FreeRTOS/event_groups.c **** static BaseType_t prvTestWaitCondition( const EventBits_t uxCurrentEventBits, const EventBits_t uxB
 135:FreeRTOS/event_groups.c **** 
 136:FreeRTOS/event_groups.c **** /*-----------------------------------------------------------*/
 137:FreeRTOS/event_groups.c **** 
 138:FreeRTOS/event_groups.c **** EventGroupHandle_t xEventGroupCreate( void )
 139:FreeRTOS/event_groups.c **** {
  28              		.loc 1 139 0
  29              		.cfi_startproc
  30              		@ args = 0, pretend = 0, frame = 8
  31              		@ frame_needed = 1, uses_anonymous_args = 0
  32 0000 80B5     		push	{r7, lr}
ARM GAS  C:\Users\koseki\AppData\Local\Temp\cceOFxqV.s 			page 4


  33              		.cfi_def_cfa_offset 8
  34              		.cfi_offset 7, -8
  35              		.cfi_offset 14, -4
  36 0002 82B0     		sub	sp, sp, #8
  37              		.cfi_def_cfa_offset 16
  38 0004 00AF     		add	r7, sp, #0
  39              		.cfi_def_cfa_register 7
 140:FreeRTOS/event_groups.c **** EventGroup_t *pxEventBits;
 141:FreeRTOS/event_groups.c **** 
 142:FreeRTOS/event_groups.c **** 	pxEventBits = ( EventGroup_t * ) pvPortMalloc( sizeof( EventGroup_t ) );
  40              		.loc 1 142 0
  41 0006 1820     		movs	r0, #24
  42 0008 FFF7FEFF 		bl	pvPortMalloc
  43 000c 7860     		str	r0, [r7, #4]
 143:FreeRTOS/event_groups.c **** 	if( pxEventBits != NULL )
  44              		.loc 1 143 0
  45 000e 7B68     		ldr	r3, [r7, #4]
  46 0010 002B     		cmp	r3, #0
  47 0012 07D0     		beq	.L2
 144:FreeRTOS/event_groups.c **** 	{
 145:FreeRTOS/event_groups.c **** 		pxEventBits->uxEventBits = 0;
  48              		.loc 1 145 0
  49 0014 7B68     		ldr	r3, [r7, #4]
  50 0016 0022     		movs	r2, #0
  51 0018 1A60     		str	r2, [r3]
 146:FreeRTOS/event_groups.c **** 		vListInitialise( &( pxEventBits->xTasksWaitingForBits ) );
  52              		.loc 1 146 0
  53 001a 7B68     		ldr	r3, [r7, #4]
  54 001c 0433     		adds	r3, r3, #4
  55 001e 1846     		mov	r0, r3
  56 0020 FFF7FEFF 		bl	vListInitialise
  57              	.L2:
 147:FreeRTOS/event_groups.c **** 		traceEVENT_GROUP_CREATE( pxEventBits );
 148:FreeRTOS/event_groups.c **** 	}
 149:FreeRTOS/event_groups.c **** 	else
 150:FreeRTOS/event_groups.c **** 	{
 151:FreeRTOS/event_groups.c **** 		traceEVENT_GROUP_CREATE_FAILED();
 152:FreeRTOS/event_groups.c **** 	}
 153:FreeRTOS/event_groups.c **** 
 154:FreeRTOS/event_groups.c **** 	return ( EventGroupHandle_t ) pxEventBits;
  58              		.loc 1 154 0
  59 0024 7B68     		ldr	r3, [r7, #4]
 155:FreeRTOS/event_groups.c **** }
  60              		.loc 1 155 0
  61 0026 1846     		mov	r0, r3
  62 0028 0837     		adds	r7, r7, #8
  63              		.cfi_def_cfa_offset 8
  64 002a BD46     		mov	sp, r7
  65              		.cfi_def_cfa_register 13
  66              		@ sp needed
  67 002c 80BD     		pop	{r7, pc}
  68              		.cfi_endproc
  69              	.LFE64:
  70              		.size	xEventGroupCreate, .-xEventGroupCreate
  71 002e 00BF     		.section	.text.xEventGroupSync,"ax",%progbits
  72              		.align	2
  73              		.global	xEventGroupSync
ARM GAS  C:\Users\koseki\AppData\Local\Temp\cceOFxqV.s 			page 5


  74              		.thumb
  75              		.thumb_func
  76              		.type	xEventGroupSync, %function
  77              	xEventGroupSync:
  78              	.LFB65:
 156:FreeRTOS/event_groups.c **** /*-----------------------------------------------------------*/
 157:FreeRTOS/event_groups.c **** 
 158:FreeRTOS/event_groups.c **** EventBits_t xEventGroupSync( EventGroupHandle_t xEventGroup, const EventBits_t uxBitsToSet, const E
 159:FreeRTOS/event_groups.c **** {
  79              		.loc 1 159 0
  80              		.cfi_startproc
  81              		@ args = 0, pretend = 0, frame = 40
  82              		@ frame_needed = 1, uses_anonymous_args = 0
  83 0000 80B5     		push	{r7, lr}
  84              		.cfi_def_cfa_offset 8
  85              		.cfi_offset 7, -8
  86              		.cfi_offset 14, -4
  87 0002 8AB0     		sub	sp, sp, #40
  88              		.cfi_def_cfa_offset 48
  89 0004 00AF     		add	r7, sp, #0
  90              		.cfi_def_cfa_register 7
  91 0006 F860     		str	r0, [r7, #12]
  92 0008 B960     		str	r1, [r7, #8]
  93 000a 7A60     		str	r2, [r7, #4]
  94 000c 3B60     		str	r3, [r7]
 160:FreeRTOS/event_groups.c **** EventBits_t uxOriginalBitValue, uxReturn;
 161:FreeRTOS/event_groups.c **** EventGroup_t *pxEventBits = ( EventGroup_t * ) xEventGroup;
  95              		.loc 1 161 0
  96 000e FB68     		ldr	r3, [r7, #12]
  97 0010 3B62     		str	r3, [r7, #32]
 162:FreeRTOS/event_groups.c **** BaseType_t xAlreadyYielded;
 163:FreeRTOS/event_groups.c **** BaseType_t xTimeoutOccurred = pdFALSE;
  98              		.loc 1 163 0
  99 0012 0023     		movs	r3, #0
 100 0014 FB61     		str	r3, [r7, #28]
 164:FreeRTOS/event_groups.c **** 
 165:FreeRTOS/event_groups.c **** 	configASSERT( ( uxBitsToWaitFor & eventEVENT_BITS_CONTROL_BYTES ) == 0 );
 166:FreeRTOS/event_groups.c **** 	configASSERT( uxBitsToWaitFor != 0 );
 167:FreeRTOS/event_groups.c **** 	#if ( ( INCLUDE_xTaskGetSchedulerState == 1 ) || ( configUSE_TIMERS == 1 ) )
 168:FreeRTOS/event_groups.c **** 	{
 169:FreeRTOS/event_groups.c **** 		configASSERT( !( ( xTaskGetSchedulerState() == taskSCHEDULER_SUSPENDED ) && ( xTicksToWait != 0 )
 170:FreeRTOS/event_groups.c **** 	}
 171:FreeRTOS/event_groups.c **** 	#endif
 172:FreeRTOS/event_groups.c **** 
 173:FreeRTOS/event_groups.c **** 	vTaskSuspendAll();
 101              		.loc 1 173 0
 102 0016 FFF7FEFF 		bl	vTaskSuspendAll
 174:FreeRTOS/event_groups.c **** 	{
 175:FreeRTOS/event_groups.c **** 		uxOriginalBitValue = pxEventBits->uxEventBits;
 103              		.loc 1 175 0
 104 001a 3B6A     		ldr	r3, [r7, #32]
 105 001c 1B68     		ldr	r3, [r3]
 106 001e BB61     		str	r3, [r7, #24]
 176:FreeRTOS/event_groups.c **** 
 177:FreeRTOS/event_groups.c **** 		( void ) xEventGroupSetBits( xEventGroup, uxBitsToSet );
 107              		.loc 1 177 0
 108 0020 B968     		ldr	r1, [r7, #8]
ARM GAS  C:\Users\koseki\AppData\Local\Temp\cceOFxqV.s 			page 6


 109 0022 F868     		ldr	r0, [r7, #12]
 110 0024 FFF7FEFF 		bl	xEventGroupSetBits
 178:FreeRTOS/event_groups.c **** 
 179:FreeRTOS/event_groups.c **** 		if( ( ( uxOriginalBitValue | uxBitsToSet ) & uxBitsToWaitFor ) == uxBitsToWaitFor )
 111              		.loc 1 179 0
 112 0028 BA69     		ldr	r2, [r7, #24]
 113 002a BB68     		ldr	r3, [r7, #8]
 114 002c 1A43     		orrs	r2, r2, r3
 115 002e 7B68     		ldr	r3, [r7, #4]
 116 0030 1A40     		ands	r2, r2, r3
 117 0032 7B68     		ldr	r3, [r7, #4]
 118 0034 9A42     		cmp	r2, r3
 119 0036 0DD1     		bne	.L5
 180:FreeRTOS/event_groups.c **** 		{
 181:FreeRTOS/event_groups.c **** 			/* All the rendezvous bits are now set - no need to block. */
 182:FreeRTOS/event_groups.c **** 			uxReturn = ( uxOriginalBitValue | uxBitsToSet );
 120              		.loc 1 182 0
 121 0038 BA69     		ldr	r2, [r7, #24]
 122 003a BB68     		ldr	r3, [r7, #8]
 123 003c 1343     		orrs	r3, r3, r2
 124 003e 7B62     		str	r3, [r7, #36]
 183:FreeRTOS/event_groups.c **** 
 184:FreeRTOS/event_groups.c **** 			/* Rendezvous always clear the bits.  They will have been cleared
 185:FreeRTOS/event_groups.c **** 			already unless this is the only task in the rendezvous. */
 186:FreeRTOS/event_groups.c **** 			pxEventBits->uxEventBits &= ~uxBitsToWaitFor;
 125              		.loc 1 186 0
 126 0040 3B6A     		ldr	r3, [r7, #32]
 127 0042 1A68     		ldr	r2, [r3]
 128 0044 7B68     		ldr	r3, [r7, #4]
 129 0046 DB43     		mvns	r3, r3
 130 0048 1A40     		ands	r2, r2, r3
 131 004a 3B6A     		ldr	r3, [r7, #32]
 132 004c 1A60     		str	r2, [r3]
 187:FreeRTOS/event_groups.c **** 
 188:FreeRTOS/event_groups.c **** 			xTicksToWait = 0;
 133              		.loc 1 188 0
 134 004e 0023     		movs	r3, #0
 135 0050 3B60     		str	r3, [r7]
 136 0052 11E0     		b	.L6
 137              	.L5:
 189:FreeRTOS/event_groups.c **** 		}
 190:FreeRTOS/event_groups.c **** 		else
 191:FreeRTOS/event_groups.c **** 		{
 192:FreeRTOS/event_groups.c **** 			if( xTicksToWait != ( TickType_t ) 0 )
 138              		.loc 1 192 0
 139 0054 3B68     		ldr	r3, [r7]
 140 0056 002B     		cmp	r3, #0
 141 0058 0BD0     		beq	.L7
 193:FreeRTOS/event_groups.c **** 			{
 194:FreeRTOS/event_groups.c **** 				traceEVENT_GROUP_SYNC_BLOCK( xEventGroup, uxBitsToSet, uxBitsToWaitFor );
 195:FreeRTOS/event_groups.c **** 
 196:FreeRTOS/event_groups.c **** 				/* Store the bits that the calling task is waiting for in the
 197:FreeRTOS/event_groups.c **** 				task's event list item so the kernel knows when a match is
 198:FreeRTOS/event_groups.c **** 				found.  Then enter the blocked state. */
 199:FreeRTOS/event_groups.c **** 				vTaskPlaceOnUnorderedEventList( &( pxEventBits->xTasksWaitingForBits ), ( uxBitsToWaitFor | eve
 142              		.loc 1 199 0
 143 005a 3B6A     		ldr	r3, [r7, #32]
ARM GAS  C:\Users\koseki\AppData\Local\Temp\cceOFxqV.s 			page 7


 144 005c 181D     		adds	r0, r3, #4
 145 005e 7B68     		ldr	r3, [r7, #4]
 146 0060 43F0A063 		orr	r3, r3, #83886080
 147 0064 3A68     		ldr	r2, [r7]
 148 0066 1946     		mov	r1, r3
 149 0068 FFF7FEFF 		bl	vTaskPlaceOnUnorderedEventList
 200:FreeRTOS/event_groups.c **** 
 201:FreeRTOS/event_groups.c **** 				/* This assignment is obsolete as uxReturn will get set after
 202:FreeRTOS/event_groups.c **** 				the task unblocks, but some compilers mistakenly generate a
 203:FreeRTOS/event_groups.c **** 				warning about uxReturn being returned without being set if the
 204:FreeRTOS/event_groups.c **** 				assignment is omitted. */
 205:FreeRTOS/event_groups.c **** 				uxReturn = 0;
 150              		.loc 1 205 0
 151 006c 0023     		movs	r3, #0
 152 006e 7B62     		str	r3, [r7, #36]
 153 0070 02E0     		b	.L6
 154              	.L7:
 206:FreeRTOS/event_groups.c **** 			}
 207:FreeRTOS/event_groups.c **** 			else
 208:FreeRTOS/event_groups.c **** 			{
 209:FreeRTOS/event_groups.c **** 				/* The rendezvous bits were not set, but no block time was
 210:FreeRTOS/event_groups.c **** 				specified - just return the current event bit value. */
 211:FreeRTOS/event_groups.c **** 				uxReturn = pxEventBits->uxEventBits;
 155              		.loc 1 211 0
 156 0072 3B6A     		ldr	r3, [r7, #32]
 157 0074 1B68     		ldr	r3, [r3]
 158 0076 7B62     		str	r3, [r7, #36]
 159              	.L6:
 212:FreeRTOS/event_groups.c **** 			}
 213:FreeRTOS/event_groups.c **** 		}
 214:FreeRTOS/event_groups.c **** 	}
 215:FreeRTOS/event_groups.c **** 	xAlreadyYielded = xTaskResumeAll();
 160              		.loc 1 215 0
 161 0078 FFF7FEFF 		bl	xTaskResumeAll
 162 007c 7861     		str	r0, [r7, #20]
 216:FreeRTOS/event_groups.c **** 
 217:FreeRTOS/event_groups.c **** 	if( xTicksToWait != ( TickType_t ) 0 )
 163              		.loc 1 217 0
 164 007e 3B68     		ldr	r3, [r7]
 165 0080 002B     		cmp	r3, #0
 166 0082 26D0     		beq	.L8
 218:FreeRTOS/event_groups.c **** 	{
 219:FreeRTOS/event_groups.c **** 		if( xAlreadyYielded == pdFALSE )
 167              		.loc 1 219 0
 168 0084 7B69     		ldr	r3, [r7, #20]
 169 0086 002B     		cmp	r3, #0
 170 0088 01D1     		bne	.L9
 220:FreeRTOS/event_groups.c **** 		{
 221:FreeRTOS/event_groups.c **** 			portYIELD_WITHIN_API();
 171              		.loc 1 221 0
 172 008a FFF7FEFF 		bl	vPortYield
 173              	.L9:
 222:FreeRTOS/event_groups.c **** 		}
 223:FreeRTOS/event_groups.c **** 		else
 224:FreeRTOS/event_groups.c **** 		{
 225:FreeRTOS/event_groups.c **** 			mtCOVERAGE_TEST_MARKER();
 226:FreeRTOS/event_groups.c **** 		}
ARM GAS  C:\Users\koseki\AppData\Local\Temp\cceOFxqV.s 			page 8


 227:FreeRTOS/event_groups.c **** 
 228:FreeRTOS/event_groups.c **** 		/* The task blocked to wait for its required bits to be set - at this
 229:FreeRTOS/event_groups.c **** 		point either the required bits were set or the block time expired.  If
 230:FreeRTOS/event_groups.c **** 		the required bits were set they will have been stored in the task's
 231:FreeRTOS/event_groups.c **** 		event list item, and they should now be retrieved then cleared. */
 232:FreeRTOS/event_groups.c **** 		uxReturn = uxTaskResetEventItemValue();
 174              		.loc 1 232 0
 175 008e FFF7FEFF 		bl	uxTaskResetEventItemValue
 176 0092 7862     		str	r0, [r7, #36]
 233:FreeRTOS/event_groups.c **** 
 234:FreeRTOS/event_groups.c **** 		if( ( uxReturn & eventUNBLOCKED_DUE_TO_BIT_SET ) == ( EventBits_t ) 0 )
 177              		.loc 1 234 0
 178 0094 7B6A     		ldr	r3, [r7, #36]
 179 0096 03F00073 		and	r3, r3, #33554432
 180 009a 002B     		cmp	r3, #0
 181 009c 15D1     		bne	.L10
 235:FreeRTOS/event_groups.c **** 		{
 236:FreeRTOS/event_groups.c **** 			/* The task timed out, just return the current event bit value. */
 237:FreeRTOS/event_groups.c **** 			taskENTER_CRITICAL();
 182              		.loc 1 237 0
 183 009e FFF7FEFF 		bl	vPortEnterCritical
 238:FreeRTOS/event_groups.c **** 			{
 239:FreeRTOS/event_groups.c **** 				uxReturn = pxEventBits->uxEventBits;
 184              		.loc 1 239 0
 185 00a2 3B6A     		ldr	r3, [r7, #32]
 186 00a4 1B68     		ldr	r3, [r3]
 187 00a6 7B62     		str	r3, [r7, #36]
 240:FreeRTOS/event_groups.c **** 
 241:FreeRTOS/event_groups.c **** 				/* Although the task got here because it timed out before the
 242:FreeRTOS/event_groups.c **** 				bits it was waiting for were set, it is possible that since it
 243:FreeRTOS/event_groups.c **** 				unblocked another task has set the bits.  If this is the case
 244:FreeRTOS/event_groups.c **** 				then it needs to clear the bits before exiting. */
 245:FreeRTOS/event_groups.c **** 				if( ( uxReturn & uxBitsToWaitFor ) == uxBitsToWaitFor )
 188              		.loc 1 245 0
 189 00a8 7A6A     		ldr	r2, [r7, #36]
 190 00aa 7B68     		ldr	r3, [r7, #4]
 191 00ac 1A40     		ands	r2, r2, r3
 192 00ae 7B68     		ldr	r3, [r7, #4]
 193 00b0 9A42     		cmp	r2, r3
 194 00b2 06D1     		bne	.L11
 246:FreeRTOS/event_groups.c **** 				{
 247:FreeRTOS/event_groups.c **** 					pxEventBits->uxEventBits &= ~uxBitsToWaitFor;
 195              		.loc 1 247 0
 196 00b4 3B6A     		ldr	r3, [r7, #32]
 197 00b6 1A68     		ldr	r2, [r3]
 198 00b8 7B68     		ldr	r3, [r7, #4]
 199 00ba DB43     		mvns	r3, r3
 200 00bc 1A40     		ands	r2, r2, r3
 201 00be 3B6A     		ldr	r3, [r7, #32]
 202 00c0 1A60     		str	r2, [r3]
 203              	.L11:
 248:FreeRTOS/event_groups.c **** 				}
 249:FreeRTOS/event_groups.c **** 				else
 250:FreeRTOS/event_groups.c **** 				{
 251:FreeRTOS/event_groups.c **** 					mtCOVERAGE_TEST_MARKER();
 252:FreeRTOS/event_groups.c **** 				}
 253:FreeRTOS/event_groups.c **** 			}
ARM GAS  C:\Users\koseki\AppData\Local\Temp\cceOFxqV.s 			page 9


 254:FreeRTOS/event_groups.c **** 			taskEXIT_CRITICAL();
 204              		.loc 1 254 0
 205 00c2 FFF7FEFF 		bl	vPortExitCritical
 255:FreeRTOS/event_groups.c **** 
 256:FreeRTOS/event_groups.c **** 			xTimeoutOccurred = pdTRUE;
 206              		.loc 1 256 0
 207 00c6 0123     		movs	r3, #1
 208 00c8 FB61     		str	r3, [r7, #28]
 209              	.L10:
 257:FreeRTOS/event_groups.c **** 		}
 258:FreeRTOS/event_groups.c **** 		else
 259:FreeRTOS/event_groups.c **** 		{
 260:FreeRTOS/event_groups.c **** 			/* The task unblocked because the bits were set. */
 261:FreeRTOS/event_groups.c **** 		}
 262:FreeRTOS/event_groups.c **** 
 263:FreeRTOS/event_groups.c **** 		/* Control bits might be set as the task had blocked should not be
 264:FreeRTOS/event_groups.c **** 		returned. */
 265:FreeRTOS/event_groups.c **** 		uxReturn &= ~eventEVENT_BITS_CONTROL_BYTES;
 210              		.loc 1 265 0
 211 00ca 7B6A     		ldr	r3, [r7, #36]
 212 00cc 23F07F43 		bic	r3, r3, #-16777216
 213 00d0 7B62     		str	r3, [r7, #36]
 214              	.L8:
 266:FreeRTOS/event_groups.c **** 	}
 267:FreeRTOS/event_groups.c **** 
 268:FreeRTOS/event_groups.c **** 	traceEVENT_GROUP_SYNC_END( xEventGroup, uxBitsToSet, uxBitsToWaitFor, xTimeoutOccurred );
 269:FreeRTOS/event_groups.c **** 
 270:FreeRTOS/event_groups.c **** 	return uxReturn;
 215              		.loc 1 270 0
 216 00d2 7B6A     		ldr	r3, [r7, #36]
 271:FreeRTOS/event_groups.c **** }
 217              		.loc 1 271 0
 218 00d4 1846     		mov	r0, r3
 219 00d6 2837     		adds	r7, r7, #40
 220              		.cfi_def_cfa_offset 8
 221 00d8 BD46     		mov	sp, r7
 222              		.cfi_def_cfa_register 13
 223              		@ sp needed
 224 00da 80BD     		pop	{r7, pc}
 225              		.cfi_endproc
 226              	.LFE65:
 227              		.size	xEventGroupSync, .-xEventGroupSync
 228              		.section	.text.xEventGroupWaitBits,"ax",%progbits
 229              		.align	2
 230              		.global	xEventGroupWaitBits
 231              		.thumb
 232              		.thumb_func
 233              		.type	xEventGroupWaitBits, %function
 234              	xEventGroupWaitBits:
 235              	.LFB66:
 272:FreeRTOS/event_groups.c **** /*-----------------------------------------------------------*/
 273:FreeRTOS/event_groups.c **** 
 274:FreeRTOS/event_groups.c **** EventBits_t xEventGroupWaitBits( EventGroupHandle_t xEventGroup, const EventBits_t uxBitsToWaitFor,
 275:FreeRTOS/event_groups.c **** {
 236              		.loc 1 275 0
 237              		.cfi_startproc
 238              		@ args = 4, pretend = 0, frame = 48
ARM GAS  C:\Users\koseki\AppData\Local\Temp\cceOFxqV.s 			page 10


 239              		@ frame_needed = 1, uses_anonymous_args = 0
 240 0000 80B5     		push	{r7, lr}
 241              		.cfi_def_cfa_offset 8
 242              		.cfi_offset 7, -8
 243              		.cfi_offset 14, -4
 244 0002 8CB0     		sub	sp, sp, #48
 245              		.cfi_def_cfa_offset 56
 246 0004 00AF     		add	r7, sp, #0
 247              		.cfi_def_cfa_register 7
 248 0006 F860     		str	r0, [r7, #12]
 249 0008 B960     		str	r1, [r7, #8]
 250 000a 7A60     		str	r2, [r7, #4]
 251 000c 3B60     		str	r3, [r7]
 276:FreeRTOS/event_groups.c **** EventGroup_t *pxEventBits = ( EventGroup_t * ) xEventGroup;
 252              		.loc 1 276 0
 253 000e FB68     		ldr	r3, [r7, #12]
 254 0010 7B62     		str	r3, [r7, #36]
 277:FreeRTOS/event_groups.c **** EventBits_t uxReturn, uxControlBits = 0;
 255              		.loc 1 277 0
 256 0012 0023     		movs	r3, #0
 257 0014 BB62     		str	r3, [r7, #40]
 278:FreeRTOS/event_groups.c **** BaseType_t xWaitConditionMet, xAlreadyYielded;
 279:FreeRTOS/event_groups.c **** BaseType_t xTimeoutOccurred = pdFALSE;
 258              		.loc 1 279 0
 259 0016 0023     		movs	r3, #0
 260 0018 3B62     		str	r3, [r7, #32]
 280:FreeRTOS/event_groups.c **** 
 281:FreeRTOS/event_groups.c **** 	/* Check the user is not attempting to wait on the bits used by the kernel
 282:FreeRTOS/event_groups.c **** 	itself, and that at least one bit is being requested. */
 283:FreeRTOS/event_groups.c **** 	configASSERT( xEventGroup );
 284:FreeRTOS/event_groups.c **** 	configASSERT( ( uxBitsToWaitFor & eventEVENT_BITS_CONTROL_BYTES ) == 0 );
 285:FreeRTOS/event_groups.c **** 	configASSERT( uxBitsToWaitFor != 0 );
 286:FreeRTOS/event_groups.c **** 	#if ( ( INCLUDE_xTaskGetSchedulerState == 1 ) || ( configUSE_TIMERS == 1 ) )
 287:FreeRTOS/event_groups.c **** 	{
 288:FreeRTOS/event_groups.c **** 		configASSERT( !( ( xTaskGetSchedulerState() == taskSCHEDULER_SUSPENDED ) && ( xTicksToWait != 0 )
 289:FreeRTOS/event_groups.c **** 	}
 290:FreeRTOS/event_groups.c **** 	#endif
 291:FreeRTOS/event_groups.c **** 
 292:FreeRTOS/event_groups.c **** 	vTaskSuspendAll();
 261              		.loc 1 292 0
 262 001a FFF7FEFF 		bl	vTaskSuspendAll
 263              	.LBB2:
 293:FreeRTOS/event_groups.c **** 	{
 294:FreeRTOS/event_groups.c **** 		const EventBits_t uxCurrentEventBits = pxEventBits->uxEventBits;
 264              		.loc 1 294 0
 265 001e 7B6A     		ldr	r3, [r7, #36]
 266 0020 1B68     		ldr	r3, [r3]
 267 0022 FB61     		str	r3, [r7, #28]
 295:FreeRTOS/event_groups.c **** 
 296:FreeRTOS/event_groups.c **** 		/* Check to see if the wait condition is already met or not. */
 297:FreeRTOS/event_groups.c **** 		xWaitConditionMet = prvTestWaitCondition( uxCurrentEventBits, uxBitsToWaitFor, xWaitForAllBits );
 268              		.loc 1 297 0
 269 0024 3A68     		ldr	r2, [r7]
 270 0026 B968     		ldr	r1, [r7, #8]
 271 0028 F869     		ldr	r0, [r7, #28]
 272 002a FFF7FEFF 		bl	prvTestWaitCondition
 273 002e B861     		str	r0, [r7, #24]
ARM GAS  C:\Users\koseki\AppData\Local\Temp\cceOFxqV.s 			page 11


 298:FreeRTOS/event_groups.c **** 
 299:FreeRTOS/event_groups.c **** 		if( xWaitConditionMet != pdFALSE )
 274              		.loc 1 299 0
 275 0030 BB69     		ldr	r3, [r7, #24]
 276 0032 002B     		cmp	r3, #0
 277 0034 0ED0     		beq	.L14
 300:FreeRTOS/event_groups.c **** 		{
 301:FreeRTOS/event_groups.c **** 			/* The wait condition has already been met so there is no need to
 302:FreeRTOS/event_groups.c **** 			block. */
 303:FreeRTOS/event_groups.c **** 			uxReturn = uxCurrentEventBits;
 278              		.loc 1 303 0
 279 0036 FB69     		ldr	r3, [r7, #28]
 280 0038 FB62     		str	r3, [r7, #44]
 304:FreeRTOS/event_groups.c **** 			xTicksToWait = ( TickType_t ) 0;
 281              		.loc 1 304 0
 282 003a 0023     		movs	r3, #0
 283 003c BB63     		str	r3, [r7, #56]
 305:FreeRTOS/event_groups.c **** 
 306:FreeRTOS/event_groups.c **** 			/* Clear the wait bits if requested to do so. */
 307:FreeRTOS/event_groups.c **** 			if( xClearOnExit != pdFALSE )
 284              		.loc 1 307 0
 285 003e 7B68     		ldr	r3, [r7, #4]
 286 0040 002B     		cmp	r3, #0
 287 0042 26D0     		beq	.L15
 308:FreeRTOS/event_groups.c **** 			{
 309:FreeRTOS/event_groups.c **** 				pxEventBits->uxEventBits &= ~uxBitsToWaitFor;
 288              		.loc 1 309 0
 289 0044 7B6A     		ldr	r3, [r7, #36]
 290 0046 1A68     		ldr	r2, [r3]
 291 0048 BB68     		ldr	r3, [r7, #8]
 292 004a DB43     		mvns	r3, r3
 293 004c 1A40     		ands	r2, r2, r3
 294 004e 7B6A     		ldr	r3, [r7, #36]
 295 0050 1A60     		str	r2, [r3]
 296 0052 1EE0     		b	.L15
 297              	.L14:
 310:FreeRTOS/event_groups.c **** 			}
 311:FreeRTOS/event_groups.c **** 			else
 312:FreeRTOS/event_groups.c **** 			{
 313:FreeRTOS/event_groups.c **** 				mtCOVERAGE_TEST_MARKER();
 314:FreeRTOS/event_groups.c **** 			}
 315:FreeRTOS/event_groups.c **** 		}
 316:FreeRTOS/event_groups.c **** 		else if( xTicksToWait == ( TickType_t ) 0 )
 298              		.loc 1 316 0
 299 0054 BB6B     		ldr	r3, [r7, #56]
 300 0056 002B     		cmp	r3, #0
 301 0058 02D1     		bne	.L16
 317:FreeRTOS/event_groups.c **** 		{
 318:FreeRTOS/event_groups.c **** 			/* The wait condition has not been met, but no block time was
 319:FreeRTOS/event_groups.c **** 			specified, so just return the current value. */
 320:FreeRTOS/event_groups.c **** 			uxReturn = uxCurrentEventBits;
 302              		.loc 1 320 0
 303 005a FB69     		ldr	r3, [r7, #28]
 304 005c FB62     		str	r3, [r7, #44]
 305 005e 18E0     		b	.L15
 306              	.L16:
 321:FreeRTOS/event_groups.c **** 		}
ARM GAS  C:\Users\koseki\AppData\Local\Temp\cceOFxqV.s 			page 12


 322:FreeRTOS/event_groups.c **** 		else
 323:FreeRTOS/event_groups.c **** 		{
 324:FreeRTOS/event_groups.c **** 			/* The task is going to block to wait for its required bits to be
 325:FreeRTOS/event_groups.c **** 			set.  uxControlBits are used to remember the specified behaviour of
 326:FreeRTOS/event_groups.c **** 			this call to xEventGroupWaitBits() - for use when the event bits
 327:FreeRTOS/event_groups.c **** 			unblock the task. */
 328:FreeRTOS/event_groups.c **** 			if( xClearOnExit != pdFALSE )
 307              		.loc 1 328 0
 308 0060 7B68     		ldr	r3, [r7, #4]
 309 0062 002B     		cmp	r3, #0
 310 0064 03D0     		beq	.L17
 329:FreeRTOS/event_groups.c **** 			{
 330:FreeRTOS/event_groups.c **** 				uxControlBits |= eventCLEAR_EVENTS_ON_EXIT_BIT;
 311              		.loc 1 330 0
 312 0066 BB6A     		ldr	r3, [r7, #40]
 313 0068 43F08073 		orr	r3, r3, #16777216
 314 006c BB62     		str	r3, [r7, #40]
 315              	.L17:
 331:FreeRTOS/event_groups.c **** 			}
 332:FreeRTOS/event_groups.c **** 			else
 333:FreeRTOS/event_groups.c **** 			{
 334:FreeRTOS/event_groups.c **** 				mtCOVERAGE_TEST_MARKER();
 335:FreeRTOS/event_groups.c **** 			}
 336:FreeRTOS/event_groups.c **** 
 337:FreeRTOS/event_groups.c **** 			if( xWaitForAllBits != pdFALSE )
 316              		.loc 1 337 0
 317 006e 3B68     		ldr	r3, [r7]
 318 0070 002B     		cmp	r3, #0
 319 0072 03D0     		beq	.L18
 338:FreeRTOS/event_groups.c **** 			{
 339:FreeRTOS/event_groups.c **** 				uxControlBits |= eventWAIT_FOR_ALL_BITS;
 320              		.loc 1 339 0
 321 0074 BB6A     		ldr	r3, [r7, #40]
 322 0076 43F08063 		orr	r3, r3, #67108864
 323 007a BB62     		str	r3, [r7, #40]
 324              	.L18:
 340:FreeRTOS/event_groups.c **** 			}
 341:FreeRTOS/event_groups.c **** 			else
 342:FreeRTOS/event_groups.c **** 			{
 343:FreeRTOS/event_groups.c **** 				mtCOVERAGE_TEST_MARKER();
 344:FreeRTOS/event_groups.c **** 			}
 345:FreeRTOS/event_groups.c **** 
 346:FreeRTOS/event_groups.c **** 			/* Store the bits that the calling task is waiting for in the
 347:FreeRTOS/event_groups.c **** 			task's event list item so the kernel knows when a match is
 348:FreeRTOS/event_groups.c **** 			found.  Then enter the blocked state. */
 349:FreeRTOS/event_groups.c **** 			vTaskPlaceOnUnorderedEventList( &( pxEventBits->xTasksWaitingForBits ), ( uxBitsToWaitFor | uxCo
 325              		.loc 1 349 0
 326 007c 7B6A     		ldr	r3, [r7, #36]
 327 007e 181D     		adds	r0, r3, #4
 328 0080 BA68     		ldr	r2, [r7, #8]
 329 0082 BB6A     		ldr	r3, [r7, #40]
 330 0084 1343     		orrs	r3, r3, r2
 331 0086 BA6B     		ldr	r2, [r7, #56]
 332 0088 1946     		mov	r1, r3
 333 008a FFF7FEFF 		bl	vTaskPlaceOnUnorderedEventList
 350:FreeRTOS/event_groups.c **** 
 351:FreeRTOS/event_groups.c **** 			/* This is obsolete as it will get set after the task unblocks, but
ARM GAS  C:\Users\koseki\AppData\Local\Temp\cceOFxqV.s 			page 13


 352:FreeRTOS/event_groups.c **** 			some compilers mistakenly generate a warning about the variable
 353:FreeRTOS/event_groups.c **** 			being returned without being set if it is not done. */
 354:FreeRTOS/event_groups.c **** 			uxReturn = 0;
 334              		.loc 1 354 0
 335 008e 0023     		movs	r3, #0
 336 0090 FB62     		str	r3, [r7, #44]
 337              	.L15:
 338              	.LBE2:
 355:FreeRTOS/event_groups.c **** 
 356:FreeRTOS/event_groups.c **** 			traceEVENT_GROUP_WAIT_BITS_BLOCK( xEventGroup, uxBitsToWaitFor );
 357:FreeRTOS/event_groups.c **** 		}
 358:FreeRTOS/event_groups.c **** 	}
 359:FreeRTOS/event_groups.c **** 	xAlreadyYielded = xTaskResumeAll();
 339              		.loc 1 359 0
 340 0092 FFF7FEFF 		bl	xTaskResumeAll
 341 0096 7861     		str	r0, [r7, #20]
 360:FreeRTOS/event_groups.c **** 
 361:FreeRTOS/event_groups.c **** 	if( xTicksToWait != ( TickType_t ) 0 )
 342              		.loc 1 361 0
 343 0098 BB6B     		ldr	r3, [r7, #56]
 344 009a 002B     		cmp	r3, #0
 345 009c 2BD0     		beq	.L19
 362:FreeRTOS/event_groups.c **** 	{
 363:FreeRTOS/event_groups.c **** 		if( xAlreadyYielded == pdFALSE )
 346              		.loc 1 363 0
 347 009e 7B69     		ldr	r3, [r7, #20]
 348 00a0 002B     		cmp	r3, #0
 349 00a2 01D1     		bne	.L20
 364:FreeRTOS/event_groups.c **** 		{
 365:FreeRTOS/event_groups.c **** 			portYIELD_WITHIN_API();
 350              		.loc 1 365 0
 351 00a4 FFF7FEFF 		bl	vPortYield
 352              	.L20:
 366:FreeRTOS/event_groups.c **** 		}
 367:FreeRTOS/event_groups.c **** 		else
 368:FreeRTOS/event_groups.c **** 		{
 369:FreeRTOS/event_groups.c **** 			mtCOVERAGE_TEST_MARKER();
 370:FreeRTOS/event_groups.c **** 		}
 371:FreeRTOS/event_groups.c **** 
 372:FreeRTOS/event_groups.c **** 		/* The task blocked to wait for its required bits to be set - at this
 373:FreeRTOS/event_groups.c **** 		point either the required bits were set or the block time expired.  If
 374:FreeRTOS/event_groups.c **** 		the required bits were set they will have been stored in the task's
 375:FreeRTOS/event_groups.c **** 		event list item, and they should now be retrieved then cleared. */
 376:FreeRTOS/event_groups.c **** 		uxReturn = uxTaskResetEventItemValue();
 353              		.loc 1 376 0
 354 00a8 FFF7FEFF 		bl	uxTaskResetEventItemValue
 355 00ac F862     		str	r0, [r7, #44]
 377:FreeRTOS/event_groups.c **** 
 378:FreeRTOS/event_groups.c **** 		if( ( uxReturn & eventUNBLOCKED_DUE_TO_BIT_SET ) == ( EventBits_t ) 0 )
 356              		.loc 1 378 0
 357 00ae FB6A     		ldr	r3, [r7, #44]
 358 00b0 03F00073 		and	r3, r3, #33554432
 359 00b4 002B     		cmp	r3, #0
 360 00b6 1AD1     		bne	.L21
 379:FreeRTOS/event_groups.c **** 		{
 380:FreeRTOS/event_groups.c **** 			taskENTER_CRITICAL();
 361              		.loc 1 380 0
ARM GAS  C:\Users\koseki\AppData\Local\Temp\cceOFxqV.s 			page 14


 362 00b8 FFF7FEFF 		bl	vPortEnterCritical
 381:FreeRTOS/event_groups.c **** 			{
 382:FreeRTOS/event_groups.c **** 				/* The task timed out, just return the current event bit value. */
 383:FreeRTOS/event_groups.c **** 				uxReturn = pxEventBits->uxEventBits;
 363              		.loc 1 383 0
 364 00bc 7B6A     		ldr	r3, [r7, #36]
 365 00be 1B68     		ldr	r3, [r3]
 366 00c0 FB62     		str	r3, [r7, #44]
 384:FreeRTOS/event_groups.c **** 
 385:FreeRTOS/event_groups.c **** 				/* It is possible that the event bits were updated between this
 386:FreeRTOS/event_groups.c **** 				task leaving the Blocked state and running again. */
 387:FreeRTOS/event_groups.c **** 				if( prvTestWaitCondition( uxReturn, uxBitsToWaitFor, xWaitForAllBits ) != pdFALSE )
 367              		.loc 1 387 0
 368 00c2 3A68     		ldr	r2, [r7]
 369 00c4 B968     		ldr	r1, [r7, #8]
 370 00c6 F86A     		ldr	r0, [r7, #44]
 371 00c8 FFF7FEFF 		bl	prvTestWaitCondition
 372 00cc 0346     		mov	r3, r0
 373 00ce 002B     		cmp	r3, #0
 374 00d0 09D0     		beq	.L22
 388:FreeRTOS/event_groups.c **** 				{
 389:FreeRTOS/event_groups.c **** 					if( xClearOnExit != pdFALSE )
 375              		.loc 1 389 0
 376 00d2 7B68     		ldr	r3, [r7, #4]
 377 00d4 002B     		cmp	r3, #0
 378 00d6 06D0     		beq	.L22
 390:FreeRTOS/event_groups.c **** 					{
 391:FreeRTOS/event_groups.c **** 						pxEventBits->uxEventBits &= ~uxBitsToWaitFor;
 379              		.loc 1 391 0
 380 00d8 7B6A     		ldr	r3, [r7, #36]
 381 00da 1A68     		ldr	r2, [r3]
 382 00dc BB68     		ldr	r3, [r7, #8]
 383 00de DB43     		mvns	r3, r3
 384 00e0 1A40     		ands	r2, r2, r3
 385 00e2 7B6A     		ldr	r3, [r7, #36]
 386 00e4 1A60     		str	r2, [r3]
 387              	.L22:
 392:FreeRTOS/event_groups.c **** 					}
 393:FreeRTOS/event_groups.c **** 					else
 394:FreeRTOS/event_groups.c **** 					{
 395:FreeRTOS/event_groups.c **** 						mtCOVERAGE_TEST_MARKER();
 396:FreeRTOS/event_groups.c **** 					}
 397:FreeRTOS/event_groups.c **** 				}
 398:FreeRTOS/event_groups.c **** 				else
 399:FreeRTOS/event_groups.c **** 				{
 400:FreeRTOS/event_groups.c **** 					mtCOVERAGE_TEST_MARKER();
 401:FreeRTOS/event_groups.c **** 				}
 402:FreeRTOS/event_groups.c **** 			}
 403:FreeRTOS/event_groups.c **** 			taskEXIT_CRITICAL();
 388              		.loc 1 403 0
 389 00e6 FFF7FEFF 		bl	vPortExitCritical
 404:FreeRTOS/event_groups.c **** 
 405:FreeRTOS/event_groups.c **** 			/* Prevent compiler warnings when trace macros are not used. */
 406:FreeRTOS/event_groups.c **** 			xTimeoutOccurred = pdFALSE;
 390              		.loc 1 406 0
 391 00ea 0023     		movs	r3, #0
 392 00ec 3B62     		str	r3, [r7, #32]
ARM GAS  C:\Users\koseki\AppData\Local\Temp\cceOFxqV.s 			page 15


 393              	.L21:
 407:FreeRTOS/event_groups.c **** 		}
 408:FreeRTOS/event_groups.c **** 		else
 409:FreeRTOS/event_groups.c **** 		{
 410:FreeRTOS/event_groups.c **** 			/* The task unblocked because the bits were set. */
 411:FreeRTOS/event_groups.c **** 		}
 412:FreeRTOS/event_groups.c **** 
 413:FreeRTOS/event_groups.c **** 		/* The task blocked so control bits may have been set. */
 414:FreeRTOS/event_groups.c **** 		uxReturn &= ~eventEVENT_BITS_CONTROL_BYTES;
 394              		.loc 1 414 0
 395 00ee FB6A     		ldr	r3, [r7, #44]
 396 00f0 23F07F43 		bic	r3, r3, #-16777216
 397 00f4 FB62     		str	r3, [r7, #44]
 398              	.L19:
 415:FreeRTOS/event_groups.c **** 	}
 416:FreeRTOS/event_groups.c **** 	traceEVENT_GROUP_WAIT_BITS_END( xEventGroup, uxBitsToWaitFor, xTimeoutOccurred );
 417:FreeRTOS/event_groups.c **** 
 418:FreeRTOS/event_groups.c **** 	return uxReturn;
 399              		.loc 1 418 0
 400 00f6 FB6A     		ldr	r3, [r7, #44]
 419:FreeRTOS/event_groups.c **** }
 401              		.loc 1 419 0
 402 00f8 1846     		mov	r0, r3
 403 00fa 3037     		adds	r7, r7, #48
 404              		.cfi_def_cfa_offset 8
 405 00fc BD46     		mov	sp, r7
 406              		.cfi_def_cfa_register 13
 407              		@ sp needed
 408 00fe 80BD     		pop	{r7, pc}
 409              		.cfi_endproc
 410              	.LFE66:
 411              		.size	xEventGroupWaitBits, .-xEventGroupWaitBits
 412              		.section	.text.xEventGroupClearBits,"ax",%progbits
 413              		.align	2
 414              		.global	xEventGroupClearBits
 415              		.thumb
 416              		.thumb_func
 417              		.type	xEventGroupClearBits, %function
 418              	xEventGroupClearBits:
 419              	.LFB67:
 420:FreeRTOS/event_groups.c **** /*-----------------------------------------------------------*/
 421:FreeRTOS/event_groups.c **** 
 422:FreeRTOS/event_groups.c **** EventBits_t xEventGroupClearBits( EventGroupHandle_t xEventGroup, const EventBits_t uxBitsToClear )
 423:FreeRTOS/event_groups.c **** {
 420              		.loc 1 423 0
 421              		.cfi_startproc
 422              		@ args = 0, pretend = 0, frame = 16
 423              		@ frame_needed = 1, uses_anonymous_args = 0
 424 0000 80B5     		push	{r7, lr}
 425              		.cfi_def_cfa_offset 8
 426              		.cfi_offset 7, -8
 427              		.cfi_offset 14, -4
 428 0002 84B0     		sub	sp, sp, #16
 429              		.cfi_def_cfa_offset 24
 430 0004 00AF     		add	r7, sp, #0
 431              		.cfi_def_cfa_register 7
 432 0006 7860     		str	r0, [r7, #4]
ARM GAS  C:\Users\koseki\AppData\Local\Temp\cceOFxqV.s 			page 16


 433 0008 3960     		str	r1, [r7]
 424:FreeRTOS/event_groups.c **** EventGroup_t *pxEventBits = ( EventGroup_t * ) xEventGroup;
 434              		.loc 1 424 0
 435 000a 7B68     		ldr	r3, [r7, #4]
 436 000c FB60     		str	r3, [r7, #12]
 425:FreeRTOS/event_groups.c **** EventBits_t uxReturn;
 426:FreeRTOS/event_groups.c **** 
 427:FreeRTOS/event_groups.c **** 	/* Check the user is not attempting to clear the bits used by the kernel
 428:FreeRTOS/event_groups.c **** 	itself. */
 429:FreeRTOS/event_groups.c **** 	configASSERT( xEventGroup );
 430:FreeRTOS/event_groups.c **** 	configASSERT( ( uxBitsToClear & eventEVENT_BITS_CONTROL_BYTES ) == 0 );
 431:FreeRTOS/event_groups.c **** 
 432:FreeRTOS/event_groups.c **** 	taskENTER_CRITICAL();
 437              		.loc 1 432 0
 438 000e FFF7FEFF 		bl	vPortEnterCritical
 433:FreeRTOS/event_groups.c **** 	{
 434:FreeRTOS/event_groups.c **** 		traceEVENT_GROUP_CLEAR_BITS( xEventGroup, uxBitsToClear );
 435:FreeRTOS/event_groups.c **** 
 436:FreeRTOS/event_groups.c **** 		/* The value returned is the event group value prior to the bits being
 437:FreeRTOS/event_groups.c **** 		cleared. */
 438:FreeRTOS/event_groups.c **** 		uxReturn = pxEventBits->uxEventBits;
 439              		.loc 1 438 0
 440 0012 FB68     		ldr	r3, [r7, #12]
 441 0014 1B68     		ldr	r3, [r3]
 442 0016 BB60     		str	r3, [r7, #8]
 439:FreeRTOS/event_groups.c **** 
 440:FreeRTOS/event_groups.c **** 		/* Clear the bits. */
 441:FreeRTOS/event_groups.c **** 		pxEventBits->uxEventBits &= ~uxBitsToClear;
 443              		.loc 1 441 0
 444 0018 FB68     		ldr	r3, [r7, #12]
 445 001a 1A68     		ldr	r2, [r3]
 446 001c 3B68     		ldr	r3, [r7]
 447 001e DB43     		mvns	r3, r3
 448 0020 1A40     		ands	r2, r2, r3
 449 0022 FB68     		ldr	r3, [r7, #12]
 450 0024 1A60     		str	r2, [r3]
 442:FreeRTOS/event_groups.c **** 	}
 443:FreeRTOS/event_groups.c **** 	taskEXIT_CRITICAL();
 451              		.loc 1 443 0
 452 0026 FFF7FEFF 		bl	vPortExitCritical
 444:FreeRTOS/event_groups.c **** 
 445:FreeRTOS/event_groups.c **** 	return uxReturn;
 453              		.loc 1 445 0
 454 002a BB68     		ldr	r3, [r7, #8]
 446:FreeRTOS/event_groups.c **** }
 455              		.loc 1 446 0
 456 002c 1846     		mov	r0, r3
 457 002e 1037     		adds	r7, r7, #16
 458              		.cfi_def_cfa_offset 8
 459 0030 BD46     		mov	sp, r7
 460              		.cfi_def_cfa_register 13
 461              		@ sp needed
 462 0032 80BD     		pop	{r7, pc}
 463              		.cfi_endproc
 464              	.LFE67:
 465              		.size	xEventGroupClearBits, .-xEventGroupClearBits
 466              		.section	.text.xEventGroupGetBitsFromISR,"ax",%progbits
ARM GAS  C:\Users\koseki\AppData\Local\Temp\cceOFxqV.s 			page 17


 467              		.align	2
 468              		.global	xEventGroupGetBitsFromISR
 469              		.thumb
 470              		.thumb_func
 471              		.type	xEventGroupGetBitsFromISR, %function
 472              	xEventGroupGetBitsFromISR:
 473              	.LFB68:
 447:FreeRTOS/event_groups.c **** /*-----------------------------------------------------------*/
 448:FreeRTOS/event_groups.c **** 
 449:FreeRTOS/event_groups.c **** #if ( ( configUSE_TRACE_FACILITY == 1 ) && ( INCLUDE_xTimerPendFunctionCall == 1 ) && ( configUSE_T
 450:FreeRTOS/event_groups.c **** 
 451:FreeRTOS/event_groups.c **** 	BaseType_t xEventGroupClearBitsFromISR( EventGroupHandle_t xEventGroup, const EventBits_t uxBitsTo
 452:FreeRTOS/event_groups.c **** 	{
 453:FreeRTOS/event_groups.c **** 		BaseType_t xReturn;
 454:FreeRTOS/event_groups.c **** 
 455:FreeRTOS/event_groups.c **** 		traceEVENT_GROUP_CLEAR_BITS_FROM_ISR( xEventGroup, uxBitsToClear );
 456:FreeRTOS/event_groups.c **** 		xReturn = xTimerPendFunctionCallFromISR( vEventGroupClearBitsCallback, ( void * ) xEventGroup, ( 
 457:FreeRTOS/event_groups.c **** 
 458:FreeRTOS/event_groups.c **** 		return xReturn;
 459:FreeRTOS/event_groups.c **** 	}
 460:FreeRTOS/event_groups.c **** 
 461:FreeRTOS/event_groups.c **** #endif
 462:FreeRTOS/event_groups.c **** /*-----------------------------------------------------------*/
 463:FreeRTOS/event_groups.c **** 
 464:FreeRTOS/event_groups.c **** EventBits_t xEventGroupGetBitsFromISR( EventGroupHandle_t xEventGroup )
 465:FreeRTOS/event_groups.c **** {
 474              		.loc 1 465 0
 475              		.cfi_startproc
 476              		@ args = 0, pretend = 0, frame = 24
 477              		@ frame_needed = 1, uses_anonymous_args = 0
 478 0000 80B5     		push	{r7, lr}
 479              		.cfi_def_cfa_offset 8
 480              		.cfi_offset 7, -8
 481              		.cfi_offset 14, -4
 482 0002 86B0     		sub	sp, sp, #24
 483              		.cfi_def_cfa_offset 32
 484 0004 00AF     		add	r7, sp, #0
 485              		.cfi_def_cfa_register 7
 486 0006 7860     		str	r0, [r7, #4]
 466:FreeRTOS/event_groups.c **** UBaseType_t uxSavedInterruptStatus;
 467:FreeRTOS/event_groups.c **** EventGroup_t *pxEventBits = ( EventGroup_t * ) xEventGroup;
 487              		.loc 1 467 0
 488 0008 7B68     		ldr	r3, [r7, #4]
 489 000a 7B61     		str	r3, [r7, #20]
 468:FreeRTOS/event_groups.c **** EventBits_t uxReturn;
 469:FreeRTOS/event_groups.c **** 
 470:FreeRTOS/event_groups.c **** 	uxSavedInterruptStatus = portSET_INTERRUPT_MASK_FROM_ISR();
 490              		.loc 1 470 0
 491 000c FFF7FEFF 		bl	ulPortSetInterruptMask
 492 0010 3861     		str	r0, [r7, #16]
 471:FreeRTOS/event_groups.c **** 	{
 472:FreeRTOS/event_groups.c **** 		uxReturn = pxEventBits->uxEventBits;
 493              		.loc 1 472 0
 494 0012 7B69     		ldr	r3, [r7, #20]
 495 0014 1B68     		ldr	r3, [r3]
 496 0016 FB60     		str	r3, [r7, #12]
 473:FreeRTOS/event_groups.c **** 	}
ARM GAS  C:\Users\koseki\AppData\Local\Temp\cceOFxqV.s 			page 18


 474:FreeRTOS/event_groups.c **** 	portCLEAR_INTERRUPT_MASK_FROM_ISR( uxSavedInterruptStatus );
 497              		.loc 1 474 0
 498 0018 3869     		ldr	r0, [r7, #16]
 499 001a FFF7FEFF 		bl	vPortClearInterruptMask
 475:FreeRTOS/event_groups.c **** 
 476:FreeRTOS/event_groups.c **** 	return uxReturn;
 500              		.loc 1 476 0
 501 001e FB68     		ldr	r3, [r7, #12]
 477:FreeRTOS/event_groups.c **** }
 502              		.loc 1 477 0
 503 0020 1846     		mov	r0, r3
 504 0022 1837     		adds	r7, r7, #24
 505              		.cfi_def_cfa_offset 8
 506 0024 BD46     		mov	sp, r7
 507              		.cfi_def_cfa_register 13
 508              		@ sp needed
 509 0026 80BD     		pop	{r7, pc}
 510              		.cfi_endproc
 511              	.LFE68:
 512              		.size	xEventGroupGetBitsFromISR, .-xEventGroupGetBitsFromISR
 513              		.section	.text.xEventGroupSetBits,"ax",%progbits
 514              		.align	2
 515              		.global	xEventGroupSetBits
 516              		.thumb
 517              		.thumb_func
 518              		.type	xEventGroupSetBits, %function
 519              	xEventGroupSetBits:
 520              	.LFB69:
 478:FreeRTOS/event_groups.c **** /*-----------------------------------------------------------*/
 479:FreeRTOS/event_groups.c **** 
 480:FreeRTOS/event_groups.c **** EventBits_t xEventGroupSetBits( EventGroupHandle_t xEventGroup, const EventBits_t uxBitsToSet )
 481:FreeRTOS/event_groups.c **** {
 521              		.loc 1 481 0
 522              		.cfi_startproc
 523              		@ args = 0, pretend = 0, frame = 48
 524              		@ frame_needed = 1, uses_anonymous_args = 0
 525 0000 80B5     		push	{r7, lr}
 526              		.cfi_def_cfa_offset 8
 527              		.cfi_offset 7, -8
 528              		.cfi_offset 14, -4
 529 0002 8CB0     		sub	sp, sp, #48
 530              		.cfi_def_cfa_offset 56
 531 0004 00AF     		add	r7, sp, #0
 532              		.cfi_def_cfa_register 7
 533 0006 7860     		str	r0, [r7, #4]
 534 0008 3960     		str	r1, [r7]
 482:FreeRTOS/event_groups.c **** ListItem_t *pxListItem, *pxNext;
 483:FreeRTOS/event_groups.c **** ListItem_t const *pxListEnd;
 484:FreeRTOS/event_groups.c **** List_t *pxList;
 485:FreeRTOS/event_groups.c **** EventBits_t uxBitsToClear = 0, uxBitsWaitedFor, uxControlBits;
 535              		.loc 1 485 0
 536 000a 0023     		movs	r3, #0
 537 000c BB62     		str	r3, [r7, #40]
 486:FreeRTOS/event_groups.c **** EventGroup_t *pxEventBits = ( EventGroup_t * ) xEventGroup;
 538              		.loc 1 486 0
 539 000e 7B68     		ldr	r3, [r7, #4]
 540 0010 3B62     		str	r3, [r7, #32]
ARM GAS  C:\Users\koseki\AppData\Local\Temp\cceOFxqV.s 			page 19


 487:FreeRTOS/event_groups.c **** BaseType_t xMatchFound = pdFALSE;
 541              		.loc 1 487 0
 542 0012 0023     		movs	r3, #0
 543 0014 7B62     		str	r3, [r7, #36]
 488:FreeRTOS/event_groups.c **** 
 489:FreeRTOS/event_groups.c **** 	/* Check the user is not attempting to set the bits used by the kernel
 490:FreeRTOS/event_groups.c **** 	itself. */
 491:FreeRTOS/event_groups.c **** 	configASSERT( xEventGroup );
 492:FreeRTOS/event_groups.c **** 	configASSERT( ( uxBitsToSet & eventEVENT_BITS_CONTROL_BYTES ) == 0 );
 493:FreeRTOS/event_groups.c **** 
 494:FreeRTOS/event_groups.c **** 	pxList = &( pxEventBits->xTasksWaitingForBits );
 544              		.loc 1 494 0
 545 0016 3B6A     		ldr	r3, [r7, #32]
 546 0018 0433     		adds	r3, r3, #4
 547 001a FB61     		str	r3, [r7, #28]
 495:FreeRTOS/event_groups.c **** 	pxListEnd = listGET_END_MARKER( pxList ); /*lint !e826 !e740 The mini list structure is used as th
 548              		.loc 1 495 0
 549 001c FB69     		ldr	r3, [r7, #28]
 550 001e 0833     		adds	r3, r3, #8
 551 0020 BB61     		str	r3, [r7, #24]
 496:FreeRTOS/event_groups.c **** 	vTaskSuspendAll();
 552              		.loc 1 496 0
 553 0022 FFF7FEFF 		bl	vTaskSuspendAll
 497:FreeRTOS/event_groups.c **** 	{
 498:FreeRTOS/event_groups.c **** 		traceEVENT_GROUP_SET_BITS( xEventGroup, uxBitsToSet );
 499:FreeRTOS/event_groups.c **** 
 500:FreeRTOS/event_groups.c **** 		pxListItem = listGET_HEAD_ENTRY( pxList );
 554              		.loc 1 500 0
 555 0026 FB69     		ldr	r3, [r7, #28]
 556 0028 DB68     		ldr	r3, [r3, #12]
 557 002a FB62     		str	r3, [r7, #44]
 501:FreeRTOS/event_groups.c **** 
 502:FreeRTOS/event_groups.c **** 		/* Set the bits. */
 503:FreeRTOS/event_groups.c **** 		pxEventBits->uxEventBits |= uxBitsToSet;
 558              		.loc 1 503 0
 559 002c 3B6A     		ldr	r3, [r7, #32]
 560 002e 1A68     		ldr	r2, [r3]
 561 0030 3B68     		ldr	r3, [r7]
 562 0032 1A43     		orrs	r2, r2, r3
 563 0034 3B6A     		ldr	r3, [r7, #32]
 564 0036 1A60     		str	r2, [r3]
 504:FreeRTOS/event_groups.c **** 
 505:FreeRTOS/event_groups.c **** 		/* See if the new bit value should unblock any tasks. */
 506:FreeRTOS/event_groups.c **** 		while( pxListItem != pxListEnd )
 565              		.loc 1 506 0
 566 0038 3CE0     		b	.L29
 567              	.L34:
 507:FreeRTOS/event_groups.c **** 		{
 508:FreeRTOS/event_groups.c **** 			pxNext = listGET_NEXT( pxListItem );
 568              		.loc 1 508 0
 569 003a FB6A     		ldr	r3, [r7, #44]
 570 003c 5B68     		ldr	r3, [r3, #4]
 571 003e 7B61     		str	r3, [r7, #20]
 509:FreeRTOS/event_groups.c **** 			uxBitsWaitedFor = listGET_LIST_ITEM_VALUE( pxListItem );
 572              		.loc 1 509 0
 573 0040 FB6A     		ldr	r3, [r7, #44]
 574 0042 1B68     		ldr	r3, [r3]
ARM GAS  C:\Users\koseki\AppData\Local\Temp\cceOFxqV.s 			page 20


 575 0044 3B61     		str	r3, [r7, #16]
 510:FreeRTOS/event_groups.c **** 			xMatchFound = pdFALSE;
 576              		.loc 1 510 0
 577 0046 0023     		movs	r3, #0
 578 0048 7B62     		str	r3, [r7, #36]
 511:FreeRTOS/event_groups.c **** 
 512:FreeRTOS/event_groups.c **** 			/* Split the bits waited for from the control bits. */
 513:FreeRTOS/event_groups.c **** 			uxControlBits = uxBitsWaitedFor & eventEVENT_BITS_CONTROL_BYTES;
 579              		.loc 1 513 0
 580 004a 3B69     		ldr	r3, [r7, #16]
 581 004c 03F07F43 		and	r3, r3, #-16777216
 582 0050 FB60     		str	r3, [r7, #12]
 514:FreeRTOS/event_groups.c **** 			uxBitsWaitedFor &= ~eventEVENT_BITS_CONTROL_BYTES;
 583              		.loc 1 514 0
 584 0052 3B69     		ldr	r3, [r7, #16]
 585 0054 23F07F43 		bic	r3, r3, #-16777216
 586 0058 3B61     		str	r3, [r7, #16]
 515:FreeRTOS/event_groups.c **** 
 516:FreeRTOS/event_groups.c **** 			if( ( uxControlBits & eventWAIT_FOR_ALL_BITS ) == ( EventBits_t ) 0 )
 587              		.loc 1 516 0
 588 005a FB68     		ldr	r3, [r7, #12]
 589 005c 03F08063 		and	r3, r3, #67108864
 590 0060 002B     		cmp	r3, #0
 591 0062 08D1     		bne	.L30
 517:FreeRTOS/event_groups.c **** 			{
 518:FreeRTOS/event_groups.c **** 				/* Just looking for single bit being set. */
 519:FreeRTOS/event_groups.c **** 				if( ( uxBitsWaitedFor & pxEventBits->uxEventBits ) != ( EventBits_t ) 0 )
 592              		.loc 1 519 0
 593 0064 3B6A     		ldr	r3, [r7, #32]
 594 0066 1A68     		ldr	r2, [r3]
 595 0068 3B69     		ldr	r3, [r7, #16]
 596 006a 1340     		ands	r3, r3, r2
 597 006c 002B     		cmp	r3, #0
 598 006e 0BD0     		beq	.L31
 520:FreeRTOS/event_groups.c **** 				{
 521:FreeRTOS/event_groups.c **** 					xMatchFound = pdTRUE;
 599              		.loc 1 521 0
 600 0070 0123     		movs	r3, #1
 601 0072 7B62     		str	r3, [r7, #36]
 602 0074 08E0     		b	.L31
 603              	.L30:
 522:FreeRTOS/event_groups.c **** 				}
 523:FreeRTOS/event_groups.c **** 				else
 524:FreeRTOS/event_groups.c **** 				{
 525:FreeRTOS/event_groups.c **** 					mtCOVERAGE_TEST_MARKER();
 526:FreeRTOS/event_groups.c **** 				}
 527:FreeRTOS/event_groups.c **** 			}
 528:FreeRTOS/event_groups.c **** 			else if( ( uxBitsWaitedFor & pxEventBits->uxEventBits ) == uxBitsWaitedFor )
 604              		.loc 1 528 0
 605 0076 3B6A     		ldr	r3, [r7, #32]
 606 0078 1A68     		ldr	r2, [r3]
 607 007a 3B69     		ldr	r3, [r7, #16]
 608 007c 1A40     		ands	r2, r2, r3
 609 007e 3B69     		ldr	r3, [r7, #16]
 610 0080 9A42     		cmp	r2, r3
 611 0082 01D1     		bne	.L31
 529:FreeRTOS/event_groups.c **** 			{
ARM GAS  C:\Users\koseki\AppData\Local\Temp\cceOFxqV.s 			page 21


 530:FreeRTOS/event_groups.c **** 				/* All bits are set. */
 531:FreeRTOS/event_groups.c **** 				xMatchFound = pdTRUE;
 612              		.loc 1 531 0
 613 0084 0123     		movs	r3, #1
 614 0086 7B62     		str	r3, [r7, #36]
 615              	.L31:
 532:FreeRTOS/event_groups.c **** 			}
 533:FreeRTOS/event_groups.c **** 			else
 534:FreeRTOS/event_groups.c **** 			{
 535:FreeRTOS/event_groups.c **** 				/* Need all bits to be set, but not all the bits were set. */
 536:FreeRTOS/event_groups.c **** 			}
 537:FreeRTOS/event_groups.c **** 
 538:FreeRTOS/event_groups.c **** 			if( xMatchFound != pdFALSE )
 616              		.loc 1 538 0
 617 0088 7B6A     		ldr	r3, [r7, #36]
 618 008a 002B     		cmp	r3, #0
 619 008c 10D0     		beq	.L32
 539:FreeRTOS/event_groups.c **** 			{
 540:FreeRTOS/event_groups.c **** 				/* The bits match.  Should the bits be cleared on exit? */
 541:FreeRTOS/event_groups.c **** 				if( ( uxControlBits & eventCLEAR_EVENTS_ON_EXIT_BIT ) != ( EventBits_t ) 0 )
 620              		.loc 1 541 0
 621 008e FB68     		ldr	r3, [r7, #12]
 622 0090 03F08073 		and	r3, r3, #16777216
 623 0094 002B     		cmp	r3, #0
 624 0096 03D0     		beq	.L33
 542:FreeRTOS/event_groups.c **** 				{
 543:FreeRTOS/event_groups.c **** 					uxBitsToClear |= uxBitsWaitedFor;
 625              		.loc 1 543 0
 626 0098 BA6A     		ldr	r2, [r7, #40]
 627 009a 3B69     		ldr	r3, [r7, #16]
 628 009c 1343     		orrs	r3, r3, r2
 629 009e BB62     		str	r3, [r7, #40]
 630              	.L33:
 544:FreeRTOS/event_groups.c **** 				}
 545:FreeRTOS/event_groups.c **** 				else
 546:FreeRTOS/event_groups.c **** 				{
 547:FreeRTOS/event_groups.c **** 					mtCOVERAGE_TEST_MARKER();
 548:FreeRTOS/event_groups.c **** 				}
 549:FreeRTOS/event_groups.c **** 
 550:FreeRTOS/event_groups.c **** 				/* Store the actual event flag value in the task's event list
 551:FreeRTOS/event_groups.c **** 				item before removing the task from the event list.  The
 552:FreeRTOS/event_groups.c **** 				eventUNBLOCKED_DUE_TO_BIT_SET bit is set so the task knows
 553:FreeRTOS/event_groups.c **** 				that is was unblocked due to its required bits matching, rather
 554:FreeRTOS/event_groups.c **** 				than because it timed out. */
 555:FreeRTOS/event_groups.c **** 				( void ) xTaskRemoveFromUnorderedEventList( pxListItem, pxEventBits->uxEventBits | eventUNBLOCK
 631              		.loc 1 555 0
 632 00a0 3B6A     		ldr	r3, [r7, #32]
 633 00a2 1B68     		ldr	r3, [r3]
 634 00a4 43F00073 		orr	r3, r3, #33554432
 635 00a8 1946     		mov	r1, r3
 636 00aa F86A     		ldr	r0, [r7, #44]
 637 00ac FFF7FEFF 		bl	xTaskRemoveFromUnorderedEventList
 638              	.L32:
 556:FreeRTOS/event_groups.c **** 			}
 557:FreeRTOS/event_groups.c **** 
 558:FreeRTOS/event_groups.c **** 			/* Move onto the next list item.  Note pxListItem->pxNext is not
 559:FreeRTOS/event_groups.c **** 			used here as the list item may have been removed from the event list
ARM GAS  C:\Users\koseki\AppData\Local\Temp\cceOFxqV.s 			page 22


 560:FreeRTOS/event_groups.c **** 			and inserted into the ready/pending reading list. */
 561:FreeRTOS/event_groups.c **** 			pxListItem = pxNext;
 639              		.loc 1 561 0
 640 00b0 7B69     		ldr	r3, [r7, #20]
 641 00b2 FB62     		str	r3, [r7, #44]
 642              	.L29:
 506:FreeRTOS/event_groups.c **** 		{
 643              		.loc 1 506 0
 644 00b4 FA6A     		ldr	r2, [r7, #44]
 645 00b6 BB69     		ldr	r3, [r7, #24]
 646 00b8 9A42     		cmp	r2, r3
 647 00ba BED1     		bne	.L34
 562:FreeRTOS/event_groups.c **** 		}
 563:FreeRTOS/event_groups.c **** 
 564:FreeRTOS/event_groups.c **** 		/* Clear any bits that matched when the eventCLEAR_EVENTS_ON_EXIT_BIT
 565:FreeRTOS/event_groups.c **** 		bit was set in the control word. */
 566:FreeRTOS/event_groups.c **** 		pxEventBits->uxEventBits &= ~uxBitsToClear;
 648              		.loc 1 566 0
 649 00bc 3B6A     		ldr	r3, [r7, #32]
 650 00be 1A68     		ldr	r2, [r3]
 651 00c0 BB6A     		ldr	r3, [r7, #40]
 652 00c2 DB43     		mvns	r3, r3
 653 00c4 1A40     		ands	r2, r2, r3
 654 00c6 3B6A     		ldr	r3, [r7, #32]
 655 00c8 1A60     		str	r2, [r3]
 567:FreeRTOS/event_groups.c **** 	}
 568:FreeRTOS/event_groups.c **** 	( void ) xTaskResumeAll();
 656              		.loc 1 568 0
 657 00ca FFF7FEFF 		bl	xTaskResumeAll
 569:FreeRTOS/event_groups.c **** 
 570:FreeRTOS/event_groups.c **** 	return pxEventBits->uxEventBits;
 658              		.loc 1 570 0
 659 00ce 3B6A     		ldr	r3, [r7, #32]
 660 00d0 1B68     		ldr	r3, [r3]
 571:FreeRTOS/event_groups.c **** }
 661              		.loc 1 571 0
 662 00d2 1846     		mov	r0, r3
 663 00d4 3037     		adds	r7, r7, #48
 664              		.cfi_def_cfa_offset 8
 665 00d6 BD46     		mov	sp, r7
 666              		.cfi_def_cfa_register 13
 667              		@ sp needed
 668 00d8 80BD     		pop	{r7, pc}
 669              		.cfi_endproc
 670              	.LFE69:
 671              		.size	xEventGroupSetBits, .-xEventGroupSetBits
 672 00da 00BF     		.section	.text.vEventGroupDelete,"ax",%progbits
 673              		.align	2
 674              		.global	vEventGroupDelete
 675              		.thumb
 676              		.thumb_func
 677              		.type	vEventGroupDelete, %function
 678              	vEventGroupDelete:
 679              	.LFB70:
 572:FreeRTOS/event_groups.c **** /*-----------------------------------------------------------*/
 573:FreeRTOS/event_groups.c **** 
 574:FreeRTOS/event_groups.c **** void vEventGroupDelete( EventGroupHandle_t xEventGroup )
ARM GAS  C:\Users\koseki\AppData\Local\Temp\cceOFxqV.s 			page 23


 575:FreeRTOS/event_groups.c **** {
 680              		.loc 1 575 0
 681              		.cfi_startproc
 682              		@ args = 0, pretend = 0, frame = 16
 683              		@ frame_needed = 1, uses_anonymous_args = 0
 684 0000 80B5     		push	{r7, lr}
 685              		.cfi_def_cfa_offset 8
 686              		.cfi_offset 7, -8
 687              		.cfi_offset 14, -4
 688 0002 84B0     		sub	sp, sp, #16
 689              		.cfi_def_cfa_offset 24
 690 0004 00AF     		add	r7, sp, #0
 691              		.cfi_def_cfa_register 7
 692 0006 7860     		str	r0, [r7, #4]
 576:FreeRTOS/event_groups.c **** EventGroup_t *pxEventBits = ( EventGroup_t * ) xEventGroup;
 693              		.loc 1 576 0
 694 0008 7B68     		ldr	r3, [r7, #4]
 695 000a FB60     		str	r3, [r7, #12]
 577:FreeRTOS/event_groups.c **** const List_t *pxTasksWaitingForBits = &( pxEventBits->xTasksWaitingForBits );
 696              		.loc 1 577 0
 697 000c FB68     		ldr	r3, [r7, #12]
 698 000e 0433     		adds	r3, r3, #4
 699 0010 BB60     		str	r3, [r7, #8]
 578:FreeRTOS/event_groups.c **** 
 579:FreeRTOS/event_groups.c **** 	vTaskSuspendAll();
 700              		.loc 1 579 0
 701 0012 FFF7FEFF 		bl	vTaskSuspendAll
 580:FreeRTOS/event_groups.c **** 	{
 581:FreeRTOS/event_groups.c **** 		traceEVENT_GROUP_DELETE( xEventGroup );
 582:FreeRTOS/event_groups.c **** 
 583:FreeRTOS/event_groups.c **** 		while( listCURRENT_LIST_LENGTH( pxTasksWaitingForBits ) > ( UBaseType_t ) 0 )
 702              		.loc 1 583 0
 703 0016 06E0     		b	.L37
 704              	.L38:
 584:FreeRTOS/event_groups.c **** 		{
 585:FreeRTOS/event_groups.c **** 			/* Unblock the task, returning 0 as the event list is being deleted
 586:FreeRTOS/event_groups.c **** 			and	cannot therefore have any bits set. */
 587:FreeRTOS/event_groups.c **** 			configASSERT( pxTasksWaitingForBits->xListEnd.pxNext != ( ListItem_t * ) &( pxTasksWaitingForBit
 588:FreeRTOS/event_groups.c **** 			( void ) xTaskRemoveFromUnorderedEventList( pxTasksWaitingForBits->xListEnd.pxNext, eventUNBLOCK
 705              		.loc 1 588 0
 706 0018 BB68     		ldr	r3, [r7, #8]
 707 001a DB68     		ldr	r3, [r3, #12]
 708 001c 4FF00071 		mov	r1, #33554432
 709 0020 1846     		mov	r0, r3
 710 0022 FFF7FEFF 		bl	xTaskRemoveFromUnorderedEventList
 711              	.L37:
 583:FreeRTOS/event_groups.c **** 		{
 712              		.loc 1 583 0
 713 0026 BB68     		ldr	r3, [r7, #8]
 714 0028 1B68     		ldr	r3, [r3]
 715 002a 002B     		cmp	r3, #0
 716 002c F4D1     		bne	.L38
 589:FreeRTOS/event_groups.c **** 		}
 590:FreeRTOS/event_groups.c **** 
 591:FreeRTOS/event_groups.c **** 		vPortFree( pxEventBits );
 717              		.loc 1 591 0
 718 002e F868     		ldr	r0, [r7, #12]
ARM GAS  C:\Users\koseki\AppData\Local\Temp\cceOFxqV.s 			page 24


 719 0030 FFF7FEFF 		bl	vPortFree
 592:FreeRTOS/event_groups.c **** 	}
 593:FreeRTOS/event_groups.c **** 	( void ) xTaskResumeAll();
 720              		.loc 1 593 0
 721 0034 FFF7FEFF 		bl	xTaskResumeAll
 594:FreeRTOS/event_groups.c **** }
 722              		.loc 1 594 0
 723 0038 00BF     		nop
 724 003a 1037     		adds	r7, r7, #16
 725              		.cfi_def_cfa_offset 8
 726 003c BD46     		mov	sp, r7
 727              		.cfi_def_cfa_register 13
 728              		@ sp needed
 729 003e 80BD     		pop	{r7, pc}
 730              		.cfi_endproc
 731              	.LFE70:
 732              		.size	vEventGroupDelete, .-vEventGroupDelete
 733              		.section	.text.vEventGroupSetBitsCallback,"ax",%progbits
 734              		.align	2
 735              		.global	vEventGroupSetBitsCallback
 736              		.thumb
 737              		.thumb_func
 738              		.type	vEventGroupSetBitsCallback, %function
 739              	vEventGroupSetBitsCallback:
 740              	.LFB71:
 595:FreeRTOS/event_groups.c **** /*-----------------------------------------------------------*/
 596:FreeRTOS/event_groups.c **** 
 597:FreeRTOS/event_groups.c **** /* For internal use only - execute a 'set bits' command that was pended from
 598:FreeRTOS/event_groups.c **** an interrupt. */
 599:FreeRTOS/event_groups.c **** void vEventGroupSetBitsCallback( void *pvEventGroup, const uint32_t ulBitsToSet )
 600:FreeRTOS/event_groups.c **** {
 741              		.loc 1 600 0
 742              		.cfi_startproc
 743              		@ args = 0, pretend = 0, frame = 8
 744              		@ frame_needed = 1, uses_anonymous_args = 0
 745 0000 80B5     		push	{r7, lr}
 746              		.cfi_def_cfa_offset 8
 747              		.cfi_offset 7, -8
 748              		.cfi_offset 14, -4
 749 0002 82B0     		sub	sp, sp, #8
 750              		.cfi_def_cfa_offset 16
 751 0004 00AF     		add	r7, sp, #0
 752              		.cfi_def_cfa_register 7
 753 0006 7860     		str	r0, [r7, #4]
 754 0008 3960     		str	r1, [r7]
 601:FreeRTOS/event_groups.c **** 	( void ) xEventGroupSetBits( pvEventGroup, ( EventBits_t ) ulBitsToSet );
 755              		.loc 1 601 0
 756 000a 3968     		ldr	r1, [r7]
 757 000c 7868     		ldr	r0, [r7, #4]
 758 000e FFF7FEFF 		bl	xEventGroupSetBits
 602:FreeRTOS/event_groups.c **** }
 759              		.loc 1 602 0
 760 0012 00BF     		nop
 761 0014 0837     		adds	r7, r7, #8
 762              		.cfi_def_cfa_offset 8
 763 0016 BD46     		mov	sp, r7
 764              		.cfi_def_cfa_register 13
ARM GAS  C:\Users\koseki\AppData\Local\Temp\cceOFxqV.s 			page 25


 765              		@ sp needed
 766 0018 80BD     		pop	{r7, pc}
 767              		.cfi_endproc
 768              	.LFE71:
 769              		.size	vEventGroupSetBitsCallback, .-vEventGroupSetBitsCallback
 770 001a 00BF     		.section	.text.vEventGroupClearBitsCallback,"ax",%progbits
 771              		.align	2
 772              		.global	vEventGroupClearBitsCallback
 773              		.thumb
 774              		.thumb_func
 775              		.type	vEventGroupClearBitsCallback, %function
 776              	vEventGroupClearBitsCallback:
 777              	.LFB72:
 603:FreeRTOS/event_groups.c **** /*-----------------------------------------------------------*/
 604:FreeRTOS/event_groups.c **** 
 605:FreeRTOS/event_groups.c **** /* For internal use only - execute a 'clear bits' command that was pended from
 606:FreeRTOS/event_groups.c **** an interrupt. */
 607:FreeRTOS/event_groups.c **** void vEventGroupClearBitsCallback( void *pvEventGroup, const uint32_t ulBitsToClear )
 608:FreeRTOS/event_groups.c **** {
 778              		.loc 1 608 0
 779              		.cfi_startproc
 780              		@ args = 0, pretend = 0, frame = 8
 781              		@ frame_needed = 1, uses_anonymous_args = 0
 782 0000 80B5     		push	{r7, lr}
 783              		.cfi_def_cfa_offset 8
 784              		.cfi_offset 7, -8
 785              		.cfi_offset 14, -4
 786 0002 82B0     		sub	sp, sp, #8
 787              		.cfi_def_cfa_offset 16
 788 0004 00AF     		add	r7, sp, #0
 789              		.cfi_def_cfa_register 7
 790 0006 7860     		str	r0, [r7, #4]
 791 0008 3960     		str	r1, [r7]
 609:FreeRTOS/event_groups.c **** 	( void ) xEventGroupClearBits( pvEventGroup, ( EventBits_t ) ulBitsToClear );
 792              		.loc 1 609 0
 793 000a 3968     		ldr	r1, [r7]
 794 000c 7868     		ldr	r0, [r7, #4]
 795 000e FFF7FEFF 		bl	xEventGroupClearBits
 610:FreeRTOS/event_groups.c **** }
 796              		.loc 1 610 0
 797 0012 00BF     		nop
 798 0014 0837     		adds	r7, r7, #8
 799              		.cfi_def_cfa_offset 8
 800 0016 BD46     		mov	sp, r7
 801              		.cfi_def_cfa_register 13
 802              		@ sp needed
 803 0018 80BD     		pop	{r7, pc}
 804              		.cfi_endproc
 805              	.LFE72:
 806              		.size	vEventGroupClearBitsCallback, .-vEventGroupClearBitsCallback
 807 001a 00BF     		.section	.text.prvTestWaitCondition,"ax",%progbits
 808              		.align	2
 809              		.thumb
 810              		.thumb_func
 811              		.type	prvTestWaitCondition, %function
 812              	prvTestWaitCondition:
 813              	.LFB73:
ARM GAS  C:\Users\koseki\AppData\Local\Temp\cceOFxqV.s 			page 26


 611:FreeRTOS/event_groups.c **** /*-----------------------------------------------------------*/
 612:FreeRTOS/event_groups.c **** 
 613:FreeRTOS/event_groups.c **** static BaseType_t prvTestWaitCondition( const EventBits_t uxCurrentEventBits, const EventBits_t uxB
 614:FreeRTOS/event_groups.c **** {
 814              		.loc 1 614 0
 815              		.cfi_startproc
 816              		@ args = 0, pretend = 0, frame = 24
 817              		@ frame_needed = 1, uses_anonymous_args = 0
 818              		@ link register save eliminated.
 819 0000 80B4     		push	{r7}
 820              		.cfi_def_cfa_offset 4
 821              		.cfi_offset 7, -4
 822 0002 87B0     		sub	sp, sp, #28
 823              		.cfi_def_cfa_offset 32
 824 0004 00AF     		add	r7, sp, #0
 825              		.cfi_def_cfa_register 7
 826 0006 F860     		str	r0, [r7, #12]
 827 0008 B960     		str	r1, [r7, #8]
 828 000a 7A60     		str	r2, [r7, #4]
 615:FreeRTOS/event_groups.c **** BaseType_t xWaitConditionMet = pdFALSE;
 829              		.loc 1 615 0
 830 000c 0023     		movs	r3, #0
 831 000e 7B61     		str	r3, [r7, #20]
 616:FreeRTOS/event_groups.c **** 
 617:FreeRTOS/event_groups.c **** 	if( xWaitForAllBits == pdFALSE )
 832              		.loc 1 617 0
 833 0010 7B68     		ldr	r3, [r7, #4]
 834 0012 002B     		cmp	r3, #0
 835 0014 07D1     		bne	.L42
 618:FreeRTOS/event_groups.c **** 	{
 619:FreeRTOS/event_groups.c **** 		/* Task only has to wait for one bit within uxBitsToWaitFor to be
 620:FreeRTOS/event_groups.c **** 		set.  Is one already set? */
 621:FreeRTOS/event_groups.c **** 		if( ( uxCurrentEventBits & uxBitsToWaitFor ) != ( EventBits_t ) 0 )
 836              		.loc 1 621 0
 837 0016 FA68     		ldr	r2, [r7, #12]
 838 0018 BB68     		ldr	r3, [r7, #8]
 839 001a 1340     		ands	r3, r3, r2
 840 001c 002B     		cmp	r3, #0
 841 001e 0AD0     		beq	.L43
 622:FreeRTOS/event_groups.c **** 		{
 623:FreeRTOS/event_groups.c **** 			xWaitConditionMet = pdTRUE;
 842              		.loc 1 623 0
 843 0020 0123     		movs	r3, #1
 844 0022 7B61     		str	r3, [r7, #20]
 845 0024 07E0     		b	.L43
 846              	.L42:
 624:FreeRTOS/event_groups.c **** 		}
 625:FreeRTOS/event_groups.c **** 		else
 626:FreeRTOS/event_groups.c **** 		{
 627:FreeRTOS/event_groups.c **** 			mtCOVERAGE_TEST_MARKER();
 628:FreeRTOS/event_groups.c **** 		}
 629:FreeRTOS/event_groups.c **** 	}
 630:FreeRTOS/event_groups.c **** 	else
 631:FreeRTOS/event_groups.c **** 	{
 632:FreeRTOS/event_groups.c **** 		/* Task has to wait for all the bits in uxBitsToWaitFor to be set.
 633:FreeRTOS/event_groups.c **** 		Are they set already? */
 634:FreeRTOS/event_groups.c **** 		if( ( uxCurrentEventBits & uxBitsToWaitFor ) == uxBitsToWaitFor )
ARM GAS  C:\Users\koseki\AppData\Local\Temp\cceOFxqV.s 			page 27


 847              		.loc 1 634 0
 848 0026 FA68     		ldr	r2, [r7, #12]
 849 0028 BB68     		ldr	r3, [r7, #8]
 850 002a 1A40     		ands	r2, r2, r3
 851 002c BB68     		ldr	r3, [r7, #8]
 852 002e 9A42     		cmp	r2, r3
 853 0030 01D1     		bne	.L43
 635:FreeRTOS/event_groups.c **** 		{
 636:FreeRTOS/event_groups.c **** 			xWaitConditionMet = pdTRUE;
 854              		.loc 1 636 0
 855 0032 0123     		movs	r3, #1
 856 0034 7B61     		str	r3, [r7, #20]
 857              	.L43:
 637:FreeRTOS/event_groups.c **** 		}
 638:FreeRTOS/event_groups.c **** 		else
 639:FreeRTOS/event_groups.c **** 		{
 640:FreeRTOS/event_groups.c **** 			mtCOVERAGE_TEST_MARKER();
 641:FreeRTOS/event_groups.c **** 		}
 642:FreeRTOS/event_groups.c **** 	}
 643:FreeRTOS/event_groups.c **** 
 644:FreeRTOS/event_groups.c **** 	return xWaitConditionMet;
 858              		.loc 1 644 0
 859 0036 7B69     		ldr	r3, [r7, #20]
 645:FreeRTOS/event_groups.c **** }
 860              		.loc 1 645 0
 861 0038 1846     		mov	r0, r3
 862 003a 1C37     		adds	r7, r7, #28
 863              		.cfi_def_cfa_offset 4
 864 003c BD46     		mov	sp, r7
 865              		.cfi_def_cfa_register 13
 866              		@ sp needed
 867 003e 80BC     		pop	{r7}
 868              		.cfi_restore 7
 869              		.cfi_def_cfa_offset 0
 870 0040 7047     		bx	lr
 871              		.cfi_endproc
 872              	.LFE73:
 873              		.size	prvTestWaitCondition, .-prvTestWaitCondition
 874 0042 00BF     		.text
 875              	.Letext0:
 876              		.file 2 "c:\\program files (x86)\\cypress\\psoc creator\\4.4\\psoc creator\\import\\gnu\\arm\\5.4.
 877              		.file 3 "c:\\program files (x86)\\cypress\\psoc creator\\4.4\\psoc creator\\import\\gnu\\arm\\5.4.
 878              		.file 4 "FreeRTOS\\portmacro.h"
 879              		.file 5 "FreeRTOS\\list.h"
 880              		.file 6 "FreeRTOS\\event_groups.h"
 881              		.file 7 "Generated_Source\\PSoC5/core_cm3.h"