ARM GAS  C:\Users\koseki\AppData\Local\Temp\ccbywLmb.s 			page 1


   1              		.syntax unified
   2              		.cpu cortex-m3
   3              		.fpu softvfp
   4              		.eabi_attribute 20, 1
   5              		.eabi_attribute 21, 1
   6              		.eabi_attribute 23, 3
   7              		.eabi_attribute 24, 1
   8              		.eabi_attribute 25, 1
   9              		.eabi_attribute 26, 1
  10              		.eabi_attribute 30, 6
  11              		.eabi_attribute 34, 1
  12              		.eabi_attribute 18, 4
  13              		.thumb
  14              		.syntax unified
  15              		.file	"heap_2.c"
  16              		.text
  17              	.Ltext0:
  18              		.cfi_sections	.debug_frame
  19              		.bss
  20              		.align	2
  21              	ucHeap:
  22 0000 00000000 		.space	32768
  22      00000000 
  22      00000000 
  22      00000000 
  22      00000000 
  23              		.section	.rodata
  24              		.align	1
  25              		.type	heapSTRUCT_SIZE, %object
  26              		.size	heapSTRUCT_SIZE, 2
  27              	heapSTRUCT_SIZE:
  28 0000 0800     		.short	8
  29              		.bss
  30              		.align	2
  31              	xStart:
  32 8000 00000000 		.space	8
  32      00000000 
  33              		.align	2
  34              	xEnd:
  35 8008 00000000 		.space	8
  35      00000000 
  36              		.data
  37              		.align	2
  38              		.type	xFreeBytesRemaining, %object
  39              		.size	xFreeBytesRemaining, 4
  40              	xFreeBytesRemaining:
  41 0000 F87F0000 		.word	32760
  42              		.section	.text.pvPortMalloc,"ax",%progbits
  43              		.align	2
  44              		.global	pvPortMalloc
  45              		.thumb
  46              		.thumb_func
  47              		.type	pvPortMalloc, %function
  48              	pvPortMalloc:
  49              	.LFB64:
  50              		.file 1 "FreeRTOS\\heap_2.c"
   1:FreeRTOS/heap_2.c **** /*
ARM GAS  C:\Users\koseki\AppData\Local\Temp\ccbywLmb.s 			page 2


   2:FreeRTOS/heap_2.c ****     FreeRTOS V8.2.3 - Copyright (C) 2015 Real Time Engineers Ltd.
   3:FreeRTOS/heap_2.c ****     All rights reserved
   4:FreeRTOS/heap_2.c **** 
   5:FreeRTOS/heap_2.c ****     VISIT http://www.FreeRTOS.org TO ENSURE YOU ARE USING THE LATEST VERSION.
   6:FreeRTOS/heap_2.c **** 
   7:FreeRTOS/heap_2.c ****     This file is part of the FreeRTOS distribution.
   8:FreeRTOS/heap_2.c **** 
   9:FreeRTOS/heap_2.c ****     FreeRTOS is free software; you can redistribute it and/or modify it under
  10:FreeRTOS/heap_2.c ****     the terms of the GNU General Public License (version 2) as published by the
  11:FreeRTOS/heap_2.c ****     Free Software Foundation >>>> AND MODIFIED BY <<<< the FreeRTOS exception.
  12:FreeRTOS/heap_2.c **** 
  13:FreeRTOS/heap_2.c ****     ***************************************************************************
  14:FreeRTOS/heap_2.c ****     >>!   NOTE: The modification to the GPL is included to allow you to     !<<
  15:FreeRTOS/heap_2.c ****     >>!   distribute a combined work that includes FreeRTOS without being   !<<
  16:FreeRTOS/heap_2.c ****     >>!   obliged to provide the source code for proprietary components     !<<
  17:FreeRTOS/heap_2.c ****     >>!   outside of the FreeRTOS kernel.                                   !<<
  18:FreeRTOS/heap_2.c ****     ***************************************************************************
  19:FreeRTOS/heap_2.c **** 
  20:FreeRTOS/heap_2.c ****     FreeRTOS is distributed in the hope that it will be useful, but WITHOUT ANY
  21:FreeRTOS/heap_2.c ****     WARRANTY; without even the implied warranty of MERCHANTABILITY or FITNESS
  22:FreeRTOS/heap_2.c ****     FOR A PARTICULAR PURPOSE.  Full license text is available on the following
  23:FreeRTOS/heap_2.c ****     link: http://www.freertos.org/a00114.html
  24:FreeRTOS/heap_2.c **** 
  25:FreeRTOS/heap_2.c ****     ***************************************************************************
  26:FreeRTOS/heap_2.c ****      *                                                                       *
  27:FreeRTOS/heap_2.c ****      *    FreeRTOS provides completely free yet professionally developed,    *
  28:FreeRTOS/heap_2.c ****      *    robust, strictly quality controlled, supported, and cross          *
  29:FreeRTOS/heap_2.c ****      *    platform software that is more than just the market leader, it     *
  30:FreeRTOS/heap_2.c ****      *    is the industry's de facto standard.                               *
  31:FreeRTOS/heap_2.c ****      *                                                                       *
  32:FreeRTOS/heap_2.c ****      *    Help yourself get started quickly while simultaneously helping     *
  33:FreeRTOS/heap_2.c ****      *    to support the FreeRTOS project by purchasing a FreeRTOS           *
  34:FreeRTOS/heap_2.c ****      *    tutorial book, reference manual, or both:                          *
  35:FreeRTOS/heap_2.c ****      *    http://www.FreeRTOS.org/Documentation                              *
  36:FreeRTOS/heap_2.c ****      *                                                                       *
  37:FreeRTOS/heap_2.c ****     ***************************************************************************
  38:FreeRTOS/heap_2.c **** 
  39:FreeRTOS/heap_2.c ****     http://www.FreeRTOS.org/FAQHelp.html - Having a problem?  Start by reading
  40:FreeRTOS/heap_2.c ****     the FAQ page "My application does not run, what could be wrong?".  Have you
  41:FreeRTOS/heap_2.c ****     defined configASSERT()?
  42:FreeRTOS/heap_2.c **** 
  43:FreeRTOS/heap_2.c ****     http://www.FreeRTOS.org/support - In return for receiving this top quality
  44:FreeRTOS/heap_2.c ****     embedded software for free we request you assist our global community by
  45:FreeRTOS/heap_2.c ****     participating in the support forum.
  46:FreeRTOS/heap_2.c **** 
  47:FreeRTOS/heap_2.c ****     http://www.FreeRTOS.org/training - Investing in training allows your team to
  48:FreeRTOS/heap_2.c ****     be as productive as possible as early as possible.  Now you can receive
  49:FreeRTOS/heap_2.c ****     FreeRTOS training directly from Richard Barry, CEO of Real Time Engineers
  50:FreeRTOS/heap_2.c ****     Ltd, and the world's leading authority on the world's leading RTOS.
  51:FreeRTOS/heap_2.c **** 
  52:FreeRTOS/heap_2.c ****     http://www.FreeRTOS.org/plus - A selection of FreeRTOS ecosystem products,
  53:FreeRTOS/heap_2.c ****     including FreeRTOS+Trace - an indispensable productivity tool, a DOS
  54:FreeRTOS/heap_2.c ****     compatible FAT file system, and our tiny thread aware UDP/IP stack.
  55:FreeRTOS/heap_2.c **** 
  56:FreeRTOS/heap_2.c ****     http://www.FreeRTOS.org/labs - Where new FreeRTOS products go to incubate.
  57:FreeRTOS/heap_2.c ****     Come and try FreeRTOS+TCP, our new open source TCP/IP stack for FreeRTOS.
  58:FreeRTOS/heap_2.c **** 
ARM GAS  C:\Users\koseki\AppData\Local\Temp\ccbywLmb.s 			page 3


  59:FreeRTOS/heap_2.c ****     http://www.OpenRTOS.com - Real Time Engineers ltd. license FreeRTOS to High
  60:FreeRTOS/heap_2.c ****     Integrity Systems ltd. to sell under the OpenRTOS brand.  Low cost OpenRTOS
  61:FreeRTOS/heap_2.c ****     licenses offer ticketed support, indemnification and commercial middleware.
  62:FreeRTOS/heap_2.c **** 
  63:FreeRTOS/heap_2.c ****     http://www.SafeRTOS.com - High Integrity Systems also provide a safety
  64:FreeRTOS/heap_2.c ****     engineered and independently SIL3 certified version for use in safety and
  65:FreeRTOS/heap_2.c ****     mission critical applications that require provable dependability.
  66:FreeRTOS/heap_2.c **** 
  67:FreeRTOS/heap_2.c ****     1 tab == 4 spaces!
  68:FreeRTOS/heap_2.c **** */
  69:FreeRTOS/heap_2.c **** 
  70:FreeRTOS/heap_2.c **** /*
  71:FreeRTOS/heap_2.c ****  * A sample implementation of pvPortMalloc() and vPortFree() that permits
  72:FreeRTOS/heap_2.c ****  * allocated blocks to be freed, but does not combine adjacent free blocks
  73:FreeRTOS/heap_2.c ****  * into a single larger block (and so will fragment memory).  See heap_4.c for
  74:FreeRTOS/heap_2.c ****  * an equivalent that does combine adjacent blocks into single larger blocks.
  75:FreeRTOS/heap_2.c ****  *
  76:FreeRTOS/heap_2.c ****  * See heap_1.c, heap_3.c and heap_4.c for alternative implementations, and the
  77:FreeRTOS/heap_2.c ****  * memory management pages of http://www.FreeRTOS.org for more information.
  78:FreeRTOS/heap_2.c ****  */
  79:FreeRTOS/heap_2.c **** #include <stdlib.h>
  80:FreeRTOS/heap_2.c **** 
  81:FreeRTOS/heap_2.c **** /* Defining MPU_WRAPPERS_INCLUDED_FROM_API_FILE prevents task.h from redefining
  82:FreeRTOS/heap_2.c **** all the API functions to use the MPU wrappers.  That should only be done when
  83:FreeRTOS/heap_2.c **** task.h is included from an application file. */
  84:FreeRTOS/heap_2.c **** #define MPU_WRAPPERS_INCLUDED_FROM_API_FILE
  85:FreeRTOS/heap_2.c **** 
  86:FreeRTOS/heap_2.c **** #include "FreeRTOS.h"
  87:FreeRTOS/heap_2.c **** #include "task.h"
  88:FreeRTOS/heap_2.c **** 
  89:FreeRTOS/heap_2.c **** #undef MPU_WRAPPERS_INCLUDED_FROM_API_FILE
  90:FreeRTOS/heap_2.c **** 
  91:FreeRTOS/heap_2.c **** /* A few bytes might be lost to byte aligning the heap start address. */
  92:FreeRTOS/heap_2.c **** #define configADJUSTED_HEAP_SIZE	( configTOTAL_HEAP_SIZE - portBYTE_ALIGNMENT )
  93:FreeRTOS/heap_2.c **** 
  94:FreeRTOS/heap_2.c **** /*
  95:FreeRTOS/heap_2.c ****  * Initialises the heap structures before their first use.
  96:FreeRTOS/heap_2.c ****  */
  97:FreeRTOS/heap_2.c **** static void prvHeapInit( void );
  98:FreeRTOS/heap_2.c **** 
  99:FreeRTOS/heap_2.c **** /* Allocate the memory for the heap. */
 100:FreeRTOS/heap_2.c **** static uint8_t ucHeap[ configTOTAL_HEAP_SIZE ];
 101:FreeRTOS/heap_2.c **** 
 102:FreeRTOS/heap_2.c **** /* Define the linked list structure.  This is used to link free blocks in order
 103:FreeRTOS/heap_2.c **** of their size. */
 104:FreeRTOS/heap_2.c **** typedef struct A_BLOCK_LINK
 105:FreeRTOS/heap_2.c **** {
 106:FreeRTOS/heap_2.c **** 	struct A_BLOCK_LINK *pxNextFreeBlock;	/*<< The next free block in the list. */
 107:FreeRTOS/heap_2.c **** 	size_t xBlockSize;						/*<< The size of the free block. */
 108:FreeRTOS/heap_2.c **** } BlockLink_t;
 109:FreeRTOS/heap_2.c **** 
 110:FreeRTOS/heap_2.c **** 
 111:FreeRTOS/heap_2.c **** static const uint16_t heapSTRUCT_SIZE	= ( ( sizeof ( BlockLink_t ) + ( portBYTE_ALIGNMENT - 1 ) ) &
 112:FreeRTOS/heap_2.c **** #define heapMINIMUM_BLOCK_SIZE	( ( size_t ) ( heapSTRUCT_SIZE * 2 ) )
 113:FreeRTOS/heap_2.c **** 
 114:FreeRTOS/heap_2.c **** /* Create a couple of list links to mark the start and end of the list. */
 115:FreeRTOS/heap_2.c **** static BlockLink_t xStart, xEnd;
ARM GAS  C:\Users\koseki\AppData\Local\Temp\ccbywLmb.s 			page 4


 116:FreeRTOS/heap_2.c **** 
 117:FreeRTOS/heap_2.c **** /* Keeps track of the number of free bytes remaining, but says nothing about
 118:FreeRTOS/heap_2.c **** fragmentation. */
 119:FreeRTOS/heap_2.c **** static size_t xFreeBytesRemaining = configADJUSTED_HEAP_SIZE;
 120:FreeRTOS/heap_2.c **** 
 121:FreeRTOS/heap_2.c **** /* STATIC FUNCTIONS ARE DEFINED AS MACROS TO MINIMIZE THE FUNCTION CALL DEPTH. */
 122:FreeRTOS/heap_2.c **** 
 123:FreeRTOS/heap_2.c **** /*
 124:FreeRTOS/heap_2.c ****  * Insert a block into the list of free blocks - which is ordered by size of
 125:FreeRTOS/heap_2.c ****  * the block.  Small blocks at the start of the list and large blocks at the end
 126:FreeRTOS/heap_2.c ****  * of the list.
 127:FreeRTOS/heap_2.c ****  */
 128:FreeRTOS/heap_2.c **** #define prvInsertBlockIntoFreeList( pxBlockToInsert )								\
 129:FreeRTOS/heap_2.c **** {																					\
 130:FreeRTOS/heap_2.c **** BlockLink_t *pxIterator;																\
 131:FreeRTOS/heap_2.c **** size_t xBlockSize;																	\
 132:FreeRTOS/heap_2.c **** 																					\
 133:FreeRTOS/heap_2.c **** 	xBlockSize = pxBlockToInsert->xBlockSize;										\
 134:FreeRTOS/heap_2.c **** 																					\
 135:FreeRTOS/heap_2.c **** 	/* Iterate through the list until a block is found that has a larger size */	\
 136:FreeRTOS/heap_2.c **** 	/* than the block we are inserting. */											\
 137:FreeRTOS/heap_2.c **** 	for( pxIterator = &xStart; pxIterator->pxNextFreeBlock->xBlockSize < xBlockSize; pxIterator = pxIt
 138:FreeRTOS/heap_2.c **** 	{																				\
 139:FreeRTOS/heap_2.c **** 		/* There is nothing to do here - just iterate to the correct position. */	\
 140:FreeRTOS/heap_2.c **** 	}																				\
 141:FreeRTOS/heap_2.c **** 																					\
 142:FreeRTOS/heap_2.c **** 	/* Update the list to include the block being inserted in the correct */		\
 143:FreeRTOS/heap_2.c **** 	/* position. */																	\
 144:FreeRTOS/heap_2.c **** 	pxBlockToInsert->pxNextFreeBlock = pxIterator->pxNextFreeBlock;					\
 145:FreeRTOS/heap_2.c **** 	pxIterator->pxNextFreeBlock = pxBlockToInsert;									\
 146:FreeRTOS/heap_2.c **** }
 147:FreeRTOS/heap_2.c **** /*-----------------------------------------------------------*/
 148:FreeRTOS/heap_2.c **** 
 149:FreeRTOS/heap_2.c **** void *pvPortMalloc( size_t xWantedSize )
 150:FreeRTOS/heap_2.c **** {
  51              		.loc 1 150 0
  52              		.cfi_startproc
  53              		@ args = 0, pretend = 0, frame = 32
  54              		@ frame_needed = 1, uses_anonymous_args = 0
  55 0000 80B5     		push	{r7, lr}
  56              		.cfi_def_cfa_offset 8
  57              		.cfi_offset 7, -8
  58              		.cfi_offset 14, -4
  59 0002 88B0     		sub	sp, sp, #32
  60              		.cfi_def_cfa_offset 40
  61 0004 00AF     		add	r7, sp, #0
  62              		.cfi_def_cfa_register 7
  63 0006 7860     		str	r0, [r7, #4]
 151:FreeRTOS/heap_2.c **** BlockLink_t *pxBlock, *pxPreviousBlock, *pxNewBlockLink;
 152:FreeRTOS/heap_2.c **** static BaseType_t xHeapHasBeenInitialised = pdFALSE;
 153:FreeRTOS/heap_2.c **** void *pvReturn = NULL;
  64              		.loc 1 153 0
  65 0008 0023     		movs	r3, #0
  66 000a 7B61     		str	r3, [r7, #20]
 154:FreeRTOS/heap_2.c **** 
 155:FreeRTOS/heap_2.c **** 	vTaskSuspendAll();
  67              		.loc 1 155 0
ARM GAS  C:\Users\koseki\AppData\Local\Temp\ccbywLmb.s 			page 5


  68 000c FFF7FEFF 		bl	vTaskSuspendAll
 156:FreeRTOS/heap_2.c **** 	{
 157:FreeRTOS/heap_2.c **** 		/* If this is the first call to malloc then the heap will require
 158:FreeRTOS/heap_2.c **** 		initialisation to setup the list of free blocks. */
 159:FreeRTOS/heap_2.c **** 		if( xHeapHasBeenInitialised == pdFALSE )
  69              		.loc 1 159 0
  70 0010 404B     		ldr	r3, .L13
  71 0012 1B68     		ldr	r3, [r3]
  72 0014 002B     		cmp	r3, #0
  73 0016 04D1     		bne	.L2
 160:FreeRTOS/heap_2.c **** 		{
 161:FreeRTOS/heap_2.c **** 			prvHeapInit();
  74              		.loc 1 161 0
  75 0018 FFF7FEFF 		bl	prvHeapInit
 162:FreeRTOS/heap_2.c **** 			xHeapHasBeenInitialised = pdTRUE;
  76              		.loc 1 162 0
  77 001c 3D4B     		ldr	r3, .L13
  78 001e 0122     		movs	r2, #1
  79 0020 1A60     		str	r2, [r3]
  80              	.L2:
 163:FreeRTOS/heap_2.c **** 		}
 164:FreeRTOS/heap_2.c **** 
 165:FreeRTOS/heap_2.c **** 		/* The wanted size is increased so it can contain a BlockLink_t
 166:FreeRTOS/heap_2.c **** 		structure in addition to the requested amount of bytes. */
 167:FreeRTOS/heap_2.c **** 		if( xWantedSize > 0 )
  81              		.loc 1 167 0
  82 0022 7B68     		ldr	r3, [r7, #4]
  83 0024 002B     		cmp	r3, #0
  84 0026 0ED0     		beq	.L3
 168:FreeRTOS/heap_2.c **** 		{
 169:FreeRTOS/heap_2.c **** 			xWantedSize += heapSTRUCT_SIZE;
  85              		.loc 1 169 0
  86 0028 0823     		movs	r3, #8
  87 002a 1A46     		mov	r2, r3
  88 002c 7B68     		ldr	r3, [r7, #4]
  89 002e 1344     		add	r3, r3, r2
  90 0030 7B60     		str	r3, [r7, #4]
 170:FreeRTOS/heap_2.c **** 
 171:FreeRTOS/heap_2.c **** 			/* Ensure that blocks are always aligned to the required number of bytes. */
 172:FreeRTOS/heap_2.c **** 			if( ( xWantedSize & portBYTE_ALIGNMENT_MASK ) != 0 )
  91              		.loc 1 172 0
  92 0032 7B68     		ldr	r3, [r7, #4]
  93 0034 03F00703 		and	r3, r3, #7
  94 0038 002B     		cmp	r3, #0
  95 003a 04D0     		beq	.L3
 173:FreeRTOS/heap_2.c **** 			{
 174:FreeRTOS/heap_2.c **** 				/* Byte alignment required. */
 175:FreeRTOS/heap_2.c **** 				xWantedSize += ( portBYTE_ALIGNMENT - ( xWantedSize & portBYTE_ALIGNMENT_MASK ) );
  96              		.loc 1 175 0
  97 003c 7B68     		ldr	r3, [r7, #4]
  98 003e 23F00703 		bic	r3, r3, #7
  99 0042 0833     		adds	r3, r3, #8
 100 0044 7B60     		str	r3, [r7, #4]
 101              	.L3:
 176:FreeRTOS/heap_2.c **** 			}
 177:FreeRTOS/heap_2.c **** 		}
 178:FreeRTOS/heap_2.c **** 
ARM GAS  C:\Users\koseki\AppData\Local\Temp\ccbywLmb.s 			page 6


 179:FreeRTOS/heap_2.c **** 		if( ( xWantedSize > 0 ) && ( xWantedSize < configADJUSTED_HEAP_SIZE ) )
 102              		.loc 1 179 0
 103 0046 7B68     		ldr	r3, [r7, #4]
 104 0048 002B     		cmp	r3, #0
 105 004a 57D0     		beq	.L4
 106              		.loc 1 179 0 is_stmt 0 discriminator 1
 107 004c 7B68     		ldr	r3, [r7, #4]
 108 004e 47F6F772 		movw	r2, #32759
 109 0052 9342     		cmp	r3, r2
 110 0054 52D8     		bhi	.L4
 180:FreeRTOS/heap_2.c **** 		{
 181:FreeRTOS/heap_2.c **** 			/* Blocks are stored in byte order - traverse the list from the start
 182:FreeRTOS/heap_2.c **** 			(smallest) block until one of adequate size is found. */
 183:FreeRTOS/heap_2.c **** 			pxPreviousBlock = &xStart;
 111              		.loc 1 183 0 is_stmt 1
 112 0056 304B     		ldr	r3, .L13+4
 113 0058 BB61     		str	r3, [r7, #24]
 184:FreeRTOS/heap_2.c **** 			pxBlock = xStart.pxNextFreeBlock;
 114              		.loc 1 184 0
 115 005a 2F4B     		ldr	r3, .L13+4
 116 005c 1B68     		ldr	r3, [r3]
 117 005e FB61     		str	r3, [r7, #28]
 185:FreeRTOS/heap_2.c **** 			while( ( pxBlock->xBlockSize < xWantedSize ) && ( pxBlock->pxNextFreeBlock != NULL ) )
 118              		.loc 1 185 0
 119 0060 04E0     		b	.L5
 120              	.L7:
 186:FreeRTOS/heap_2.c **** 			{
 187:FreeRTOS/heap_2.c **** 				pxPreviousBlock = pxBlock;
 121              		.loc 1 187 0
 122 0062 FB69     		ldr	r3, [r7, #28]
 123 0064 BB61     		str	r3, [r7, #24]
 188:FreeRTOS/heap_2.c **** 				pxBlock = pxBlock->pxNextFreeBlock;
 124              		.loc 1 188 0
 125 0066 FB69     		ldr	r3, [r7, #28]
 126 0068 1B68     		ldr	r3, [r3]
 127 006a FB61     		str	r3, [r7, #28]
 128              	.L5:
 185:FreeRTOS/heap_2.c **** 			while( ( pxBlock->xBlockSize < xWantedSize ) && ( pxBlock->pxNextFreeBlock != NULL ) )
 129              		.loc 1 185 0
 130 006c FB69     		ldr	r3, [r7, #28]
 131 006e 5A68     		ldr	r2, [r3, #4]
 132 0070 7B68     		ldr	r3, [r7, #4]
 133 0072 9A42     		cmp	r2, r3
 134 0074 03D2     		bcs	.L6
 185:FreeRTOS/heap_2.c **** 			while( ( pxBlock->xBlockSize < xWantedSize ) && ( pxBlock->pxNextFreeBlock != NULL ) )
 135              		.loc 1 185 0 is_stmt 0 discriminator 1
 136 0076 FB69     		ldr	r3, [r7, #28]
 137 0078 1B68     		ldr	r3, [r3]
 138 007a 002B     		cmp	r3, #0
 139 007c F1D1     		bne	.L7
 140              	.L6:
 189:FreeRTOS/heap_2.c **** 			}
 190:FreeRTOS/heap_2.c **** 
 191:FreeRTOS/heap_2.c **** 			/* If we found the end marker then a block of adequate size was not found. */
 192:FreeRTOS/heap_2.c **** 			if( pxBlock != &xEnd )
 141              		.loc 1 192 0 is_stmt 1
 142 007e FB69     		ldr	r3, [r7, #28]
ARM GAS  C:\Users\koseki\AppData\Local\Temp\ccbywLmb.s 			page 7


 143 0080 264A     		ldr	r2, .L13+8
 144 0082 9342     		cmp	r3, r2
 145 0084 3AD0     		beq	.L4
 193:FreeRTOS/heap_2.c **** 			{
 194:FreeRTOS/heap_2.c **** 				/* Return the memory space - jumping over the BlockLink_t structure
 195:FreeRTOS/heap_2.c **** 				at its start. */
 196:FreeRTOS/heap_2.c **** 				pvReturn = ( void * ) ( ( ( uint8_t * ) pxPreviousBlock->pxNextFreeBlock ) + heapSTRUCT_SIZE );
 146              		.loc 1 196 0
 147 0086 BB69     		ldr	r3, [r7, #24]
 148 0088 1B68     		ldr	r3, [r3]
 149 008a 0822     		movs	r2, #8
 150 008c 1344     		add	r3, r3, r2
 151 008e 7B61     		str	r3, [r7, #20]
 197:FreeRTOS/heap_2.c **** 
 198:FreeRTOS/heap_2.c **** 				/* This block is being returned for use so must be taken out of the
 199:FreeRTOS/heap_2.c **** 				list of free blocks. */
 200:FreeRTOS/heap_2.c **** 				pxPreviousBlock->pxNextFreeBlock = pxBlock->pxNextFreeBlock;
 152              		.loc 1 200 0
 153 0090 FB69     		ldr	r3, [r7, #28]
 154 0092 1A68     		ldr	r2, [r3]
 155 0094 BB69     		ldr	r3, [r7, #24]
 156 0096 1A60     		str	r2, [r3]
 201:FreeRTOS/heap_2.c **** 
 202:FreeRTOS/heap_2.c **** 				/* If the block is larger than required it can be split into two. */
 203:FreeRTOS/heap_2.c **** 				if( ( pxBlock->xBlockSize - xWantedSize ) > heapMINIMUM_BLOCK_SIZE )
 157              		.loc 1 203 0
 158 0098 FB69     		ldr	r3, [r7, #28]
 159 009a 5A68     		ldr	r2, [r3, #4]
 160 009c 7B68     		ldr	r3, [r7, #4]
 161 009e D31A     		subs	r3, r2, r3
 162 00a0 0822     		movs	r2, #8
 163 00a2 5200     		lsls	r2, r2, #1
 164 00a4 9342     		cmp	r3, r2
 165 00a6 22D9     		bls	.L8
 204:FreeRTOS/heap_2.c **** 				{
 205:FreeRTOS/heap_2.c **** 					/* This block is to be split into two.  Create a new block
 206:FreeRTOS/heap_2.c **** 					following the number of bytes requested. The void cast is
 207:FreeRTOS/heap_2.c **** 					used to prevent byte alignment warnings from the compiler. */
 208:FreeRTOS/heap_2.c **** 					pxNewBlockLink = ( void * ) ( ( ( uint8_t * ) pxBlock ) + xWantedSize );
 166              		.loc 1 208 0
 167 00a8 FA69     		ldr	r2, [r7, #28]
 168 00aa 7B68     		ldr	r3, [r7, #4]
 169 00ac 1344     		add	r3, r3, r2
 170 00ae FB60     		str	r3, [r7, #12]
 209:FreeRTOS/heap_2.c **** 
 210:FreeRTOS/heap_2.c **** 					/* Calculate the sizes of two blocks split from the single
 211:FreeRTOS/heap_2.c **** 					block. */
 212:FreeRTOS/heap_2.c **** 					pxNewBlockLink->xBlockSize = pxBlock->xBlockSize - xWantedSize;
 171              		.loc 1 212 0
 172 00b0 FB69     		ldr	r3, [r7, #28]
 173 00b2 5A68     		ldr	r2, [r3, #4]
 174 00b4 7B68     		ldr	r3, [r7, #4]
 175 00b6 D21A     		subs	r2, r2, r3
 176 00b8 FB68     		ldr	r3, [r7, #12]
 177 00ba 5A60     		str	r2, [r3, #4]
 213:FreeRTOS/heap_2.c **** 					pxBlock->xBlockSize = xWantedSize;
 178              		.loc 1 213 0
ARM GAS  C:\Users\koseki\AppData\Local\Temp\ccbywLmb.s 			page 8


 179 00bc FB69     		ldr	r3, [r7, #28]
 180 00be 7A68     		ldr	r2, [r7, #4]
 181 00c0 5A60     		str	r2, [r3, #4]
 182              	.LBB2:
 214:FreeRTOS/heap_2.c **** 
 215:FreeRTOS/heap_2.c **** 					/* Insert the new block into the list of free blocks. */
 216:FreeRTOS/heap_2.c **** 					prvInsertBlockIntoFreeList( ( pxNewBlockLink ) );
 183              		.loc 1 216 0
 184 00c2 FB68     		ldr	r3, [r7, #12]
 185 00c4 5B68     		ldr	r3, [r3, #4]
 186 00c6 BB60     		str	r3, [r7, #8]
 187 00c8 134B     		ldr	r3, .L13+4
 188 00ca 3B61     		str	r3, [r7, #16]
 189 00cc 02E0     		b	.L9
 190              	.L10:
 191              		.loc 1 216 0 is_stmt 0 discriminator 3
 192 00ce 3B69     		ldr	r3, [r7, #16]
 193 00d0 1B68     		ldr	r3, [r3]
 194 00d2 3B61     		str	r3, [r7, #16]
 195              	.L9:
 196              		.loc 1 216 0 discriminator 1
 197 00d4 3B69     		ldr	r3, [r7, #16]
 198 00d6 1B68     		ldr	r3, [r3]
 199 00d8 5A68     		ldr	r2, [r3, #4]
 200 00da BB68     		ldr	r3, [r7, #8]
 201 00dc 9A42     		cmp	r2, r3
 202 00de F6D3     		bcc	.L10
 203              		.loc 1 216 0 discriminator 4
 204 00e0 3B69     		ldr	r3, [r7, #16]
 205 00e2 1A68     		ldr	r2, [r3]
 206 00e4 FB68     		ldr	r3, [r7, #12]
 207 00e6 1A60     		str	r2, [r3]
 208 00e8 3B69     		ldr	r3, [r7, #16]
 209 00ea FA68     		ldr	r2, [r7, #12]
 210 00ec 1A60     		str	r2, [r3]
 211              	.L8:
 212              	.LBE2:
 217:FreeRTOS/heap_2.c **** 				}
 218:FreeRTOS/heap_2.c **** 
 219:FreeRTOS/heap_2.c **** 				xFreeBytesRemaining -= pxBlock->xBlockSize;
 213              		.loc 1 219 0 is_stmt 1
 214 00ee 0C4B     		ldr	r3, .L13+12
 215 00f0 1A68     		ldr	r2, [r3]
 216 00f2 FB69     		ldr	r3, [r7, #28]
 217 00f4 5B68     		ldr	r3, [r3, #4]
 218 00f6 D31A     		subs	r3, r2, r3
 219 00f8 094A     		ldr	r2, .L13+12
 220 00fa 1360     		str	r3, [r2]
 221              	.L4:
 220:FreeRTOS/heap_2.c **** 			}
 221:FreeRTOS/heap_2.c **** 		}
 222:FreeRTOS/heap_2.c **** 
 223:FreeRTOS/heap_2.c **** 		traceMALLOC( pvReturn, xWantedSize );
 224:FreeRTOS/heap_2.c **** 	}
 225:FreeRTOS/heap_2.c **** 	( void ) xTaskResumeAll();
 222              		.loc 1 225 0
 223 00fc FFF7FEFF 		bl	xTaskResumeAll
ARM GAS  C:\Users\koseki\AppData\Local\Temp\ccbywLmb.s 			page 9


 226:FreeRTOS/heap_2.c **** 
 227:FreeRTOS/heap_2.c **** 	#if( configUSE_MALLOC_FAILED_HOOK == 1 )
 228:FreeRTOS/heap_2.c **** 	{
 229:FreeRTOS/heap_2.c **** 		if( pvReturn == NULL )
 224              		.loc 1 229 0
 225 0100 7B69     		ldr	r3, [r7, #20]
 226 0102 002B     		cmp	r3, #0
 227 0104 01D1     		bne	.L11
 228              	.LBB3:
 230:FreeRTOS/heap_2.c **** 		{
 231:FreeRTOS/heap_2.c **** 			extern void vApplicationMallocFailedHook( void );
 232:FreeRTOS/heap_2.c **** 			vApplicationMallocFailedHook();
 229              		.loc 1 232 0
 230 0106 FFF7FEFF 		bl	vApplicationMallocFailedHook
 231              	.L11:
 232              	.LBE3:
 233:FreeRTOS/heap_2.c **** 		}
 234:FreeRTOS/heap_2.c **** 	}
 235:FreeRTOS/heap_2.c **** 	#endif
 236:FreeRTOS/heap_2.c **** 
 237:FreeRTOS/heap_2.c **** 	return pvReturn;
 233              		.loc 1 237 0
 234 010a 7B69     		ldr	r3, [r7, #20]
 238:FreeRTOS/heap_2.c **** }
 235              		.loc 1 238 0
 236 010c 1846     		mov	r0, r3
 237 010e 2037     		adds	r7, r7, #32
 238              		.cfi_def_cfa_offset 8
 239 0110 BD46     		mov	sp, r7
 240              		.cfi_def_cfa_register 13
 241              		@ sp needed
 242 0112 80BD     		pop	{r7, pc}
 243              	.L14:
 244              		.align	2
 245              	.L13:
 246 0114 10800000 		.word	xHeapHasBeenInitialised.7206
 247 0118 00800000 		.word	xStart
 248 011c 08800000 		.word	xEnd
 249 0120 00000000 		.word	xFreeBytesRemaining
 250              		.cfi_endproc
 251              	.LFE64:
 252              		.size	pvPortMalloc, .-pvPortMalloc
 253              		.section	.text.vPortFree,"ax",%progbits
 254              		.align	2
 255              		.global	vPortFree
 256              		.thumb
 257              		.thumb_func
 258              		.type	vPortFree, %function
 259              	vPortFree:
 260              	.LFB65:
 239:FreeRTOS/heap_2.c **** /*-----------------------------------------------------------*/
 240:FreeRTOS/heap_2.c **** 
 241:FreeRTOS/heap_2.c **** void vPortFree( void *pv )
 242:FreeRTOS/heap_2.c **** {
 261              		.loc 1 242 0
 262              		.cfi_startproc
 263              		@ args = 0, pretend = 0, frame = 24
ARM GAS  C:\Users\koseki\AppData\Local\Temp\ccbywLmb.s 			page 10


 264              		@ frame_needed = 1, uses_anonymous_args = 0
 265 0000 80B5     		push	{r7, lr}
 266              		.cfi_def_cfa_offset 8
 267              		.cfi_offset 7, -8
 268              		.cfi_offset 14, -4
 269 0002 86B0     		sub	sp, sp, #24
 270              		.cfi_def_cfa_offset 32
 271 0004 00AF     		add	r7, sp, #0
 272              		.cfi_def_cfa_register 7
 273 0006 7860     		str	r0, [r7, #4]
 243:FreeRTOS/heap_2.c **** uint8_t *puc = ( uint8_t * ) pv;
 274              		.loc 1 243 0
 275 0008 7B68     		ldr	r3, [r7, #4]
 276 000a 3B61     		str	r3, [r7, #16]
 244:FreeRTOS/heap_2.c **** BlockLink_t *pxLink;
 245:FreeRTOS/heap_2.c **** 
 246:FreeRTOS/heap_2.c **** 	if( pv != NULL )
 277              		.loc 1 246 0
 278 000c 7B68     		ldr	r3, [r7, #4]
 279 000e 002B     		cmp	r3, #0
 280 0010 27D0     		beq	.L19
 247:FreeRTOS/heap_2.c **** 	{
 248:FreeRTOS/heap_2.c **** 		/* The memory being freed will have an BlockLink_t structure immediately
 249:FreeRTOS/heap_2.c **** 		before it. */
 250:FreeRTOS/heap_2.c **** 		puc -= heapSTRUCT_SIZE;
 281              		.loc 1 250 0
 282 0012 0823     		movs	r3, #8
 283 0014 5B42     		negs	r3, r3
 284 0016 3A69     		ldr	r2, [r7, #16]
 285 0018 1344     		add	r3, r3, r2
 286 001a 3B61     		str	r3, [r7, #16]
 251:FreeRTOS/heap_2.c **** 
 252:FreeRTOS/heap_2.c **** 		/* This unexpected casting is to keep some compilers from issuing
 253:FreeRTOS/heap_2.c **** 		byte alignment warnings. */
 254:FreeRTOS/heap_2.c **** 		pxLink = ( void * ) puc;
 287              		.loc 1 254 0
 288 001c 3B69     		ldr	r3, [r7, #16]
 289 001e FB60     		str	r3, [r7, #12]
 255:FreeRTOS/heap_2.c **** 
 256:FreeRTOS/heap_2.c **** 		vTaskSuspendAll();
 290              		.loc 1 256 0
 291 0020 FFF7FEFF 		bl	vTaskSuspendAll
 292              	.LBB4:
 257:FreeRTOS/heap_2.c **** 		{
 258:FreeRTOS/heap_2.c **** 			/* Add this block to the list of free blocks. */
 259:FreeRTOS/heap_2.c **** 			prvInsertBlockIntoFreeList( ( ( BlockLink_t * ) pxLink ) );
 293              		.loc 1 259 0
 294 0024 FB68     		ldr	r3, [r7, #12]
 295 0026 5B68     		ldr	r3, [r3, #4]
 296 0028 BB60     		str	r3, [r7, #8]
 297 002a 104B     		ldr	r3, .L20
 298 002c 7B61     		str	r3, [r7, #20]
 299 002e 02E0     		b	.L17
 300              	.L18:
 301              		.loc 1 259 0 is_stmt 0 discriminator 3
 302 0030 7B69     		ldr	r3, [r7, #20]
 303 0032 1B68     		ldr	r3, [r3]
ARM GAS  C:\Users\koseki\AppData\Local\Temp\ccbywLmb.s 			page 11


 304 0034 7B61     		str	r3, [r7, #20]
 305              	.L17:
 306              		.loc 1 259 0 discriminator 1
 307 0036 7B69     		ldr	r3, [r7, #20]
 308 0038 1B68     		ldr	r3, [r3]
 309 003a 5A68     		ldr	r2, [r3, #4]
 310 003c BB68     		ldr	r3, [r7, #8]
 311 003e 9A42     		cmp	r2, r3
 312 0040 F6D3     		bcc	.L18
 313              		.loc 1 259 0 discriminator 4
 314 0042 7B69     		ldr	r3, [r7, #20]
 315 0044 1A68     		ldr	r2, [r3]
 316 0046 FB68     		ldr	r3, [r7, #12]
 317 0048 1A60     		str	r2, [r3]
 318 004a 7B69     		ldr	r3, [r7, #20]
 319 004c FA68     		ldr	r2, [r7, #12]
 320 004e 1A60     		str	r2, [r3]
 321              	.LBE4:
 260:FreeRTOS/heap_2.c **** 			xFreeBytesRemaining += pxLink->xBlockSize;
 322              		.loc 1 260 0 is_stmt 1 discriminator 4
 323 0050 FB68     		ldr	r3, [r7, #12]
 324 0052 5A68     		ldr	r2, [r3, #4]
 325 0054 064B     		ldr	r3, .L20+4
 326 0056 1B68     		ldr	r3, [r3]
 327 0058 1344     		add	r3, r3, r2
 328 005a 054A     		ldr	r2, .L20+4
 329 005c 1360     		str	r3, [r2]
 261:FreeRTOS/heap_2.c **** 			traceFREE( pv, pxLink->xBlockSize );
 262:FreeRTOS/heap_2.c **** 		}
 263:FreeRTOS/heap_2.c **** 		( void ) xTaskResumeAll();
 330              		.loc 1 263 0 discriminator 4
 331 005e FFF7FEFF 		bl	xTaskResumeAll
 332              	.L19:
 264:FreeRTOS/heap_2.c **** 	}
 265:FreeRTOS/heap_2.c **** }
 333              		.loc 1 265 0
 334 0062 00BF     		nop
 335 0064 1837     		adds	r7, r7, #24
 336              		.cfi_def_cfa_offset 8
 337 0066 BD46     		mov	sp, r7
 338              		.cfi_def_cfa_register 13
 339              		@ sp needed
 340 0068 80BD     		pop	{r7, pc}
 341              	.L21:
 342 006a 00BF     		.align	2
 343              	.L20:
 344 006c 00800000 		.word	xStart
 345 0070 00000000 		.word	xFreeBytesRemaining
 346              		.cfi_endproc
 347              	.LFE65:
 348              		.size	vPortFree, .-vPortFree
 349              		.section	.text.xPortGetFreeHeapSize,"ax",%progbits
 350              		.align	2
 351              		.global	xPortGetFreeHeapSize
 352              		.thumb
 353              		.thumb_func
 354              		.type	xPortGetFreeHeapSize, %function
ARM GAS  C:\Users\koseki\AppData\Local\Temp\ccbywLmb.s 			page 12


 355              	xPortGetFreeHeapSize:
 356              	.LFB66:
 266:FreeRTOS/heap_2.c **** /*-----------------------------------------------------------*/
 267:FreeRTOS/heap_2.c **** 
 268:FreeRTOS/heap_2.c **** size_t xPortGetFreeHeapSize( void )
 269:FreeRTOS/heap_2.c **** {
 357              		.loc 1 269 0
 358              		.cfi_startproc
 359              		@ args = 0, pretend = 0, frame = 0
 360              		@ frame_needed = 1, uses_anonymous_args = 0
 361              		@ link register save eliminated.
 362 0000 80B4     		push	{r7}
 363              		.cfi_def_cfa_offset 4
 364              		.cfi_offset 7, -4
 365 0002 00AF     		add	r7, sp, #0
 366              		.cfi_def_cfa_register 7
 270:FreeRTOS/heap_2.c **** 	return xFreeBytesRemaining;
 367              		.loc 1 270 0
 368 0004 024B     		ldr	r3, .L24
 369 0006 1B68     		ldr	r3, [r3]
 271:FreeRTOS/heap_2.c **** }
 370              		.loc 1 271 0
 371 0008 1846     		mov	r0, r3
 372 000a BD46     		mov	sp, r7
 373              		.cfi_def_cfa_register 13
 374              		@ sp needed
 375 000c 80BC     		pop	{r7}
 376              		.cfi_restore 7
 377              		.cfi_def_cfa_offset 0
 378 000e 7047     		bx	lr
 379              	.L25:
 380              		.align	2
 381              	.L24:
 382 0010 00000000 		.word	xFreeBytesRemaining
 383              		.cfi_endproc
 384              	.LFE66:
 385              		.size	xPortGetFreeHeapSize, .-xPortGetFreeHeapSize
 386              		.section	.text.vPortInitialiseBlocks,"ax",%progbits
 387              		.align	2
 388              		.global	vPortInitialiseBlocks
 389              		.thumb
 390              		.thumb_func
 391              		.type	vPortInitialiseBlocks, %function
 392              	vPortInitialiseBlocks:
 393              	.LFB67:
 272:FreeRTOS/heap_2.c **** /*-----------------------------------------------------------*/
 273:FreeRTOS/heap_2.c **** 
 274:FreeRTOS/heap_2.c **** void vPortInitialiseBlocks( void )
 275:FreeRTOS/heap_2.c **** {
 394              		.loc 1 275 0
 395              		.cfi_startproc
 396              		@ args = 0, pretend = 0, frame = 0
 397              		@ frame_needed = 1, uses_anonymous_args = 0
 398              		@ link register save eliminated.
 399 0000 80B4     		push	{r7}
 400              		.cfi_def_cfa_offset 4
 401              		.cfi_offset 7, -4
ARM GAS  C:\Users\koseki\AppData\Local\Temp\ccbywLmb.s 			page 13


 402 0002 00AF     		add	r7, sp, #0
 403              		.cfi_def_cfa_register 7
 276:FreeRTOS/heap_2.c **** 	/* This just exists to keep the linker quiet. */
 277:FreeRTOS/heap_2.c **** }
 404              		.loc 1 277 0
 405 0004 00BF     		nop
 406 0006 BD46     		mov	sp, r7
 407              		.cfi_def_cfa_register 13
 408              		@ sp needed
 409 0008 80BC     		pop	{r7}
 410              		.cfi_restore 7
 411              		.cfi_def_cfa_offset 0
 412 000a 7047     		bx	lr
 413              		.cfi_endproc
 414              	.LFE67:
 415              		.size	vPortInitialiseBlocks, .-vPortInitialiseBlocks
 416              		.section	.text.prvHeapInit,"ax",%progbits
 417              		.align	2
 418              		.thumb
 419              		.thumb_func
 420              		.type	prvHeapInit, %function
 421              	prvHeapInit:
 422              	.LFB68:
 278:FreeRTOS/heap_2.c **** /*-----------------------------------------------------------*/
 279:FreeRTOS/heap_2.c **** 
 280:FreeRTOS/heap_2.c **** static void prvHeapInit( void )
 281:FreeRTOS/heap_2.c **** {
 423              		.loc 1 281 0
 424              		.cfi_startproc
 425              		@ args = 0, pretend = 0, frame = 8
 426              		@ frame_needed = 1, uses_anonymous_args = 0
 427              		@ link register save eliminated.
 428 0000 80B4     		push	{r7}
 429              		.cfi_def_cfa_offset 4
 430              		.cfi_offset 7, -4
 431 0002 83B0     		sub	sp, sp, #12
 432              		.cfi_def_cfa_offset 16
 433 0004 00AF     		add	r7, sp, #0
 434              		.cfi_def_cfa_register 7
 282:FreeRTOS/heap_2.c **** BlockLink_t *pxFirstFreeBlock;
 283:FreeRTOS/heap_2.c **** uint8_t *pucAlignedHeap;
 284:FreeRTOS/heap_2.c **** 
 285:FreeRTOS/heap_2.c **** 	/* Ensure the heap starts on a correctly aligned boundary. */
 286:FreeRTOS/heap_2.c **** 	pucAlignedHeap = ( uint8_t * ) ( ( ( portPOINTER_SIZE_TYPE ) &ucHeap[ portBYTE_ALIGNMENT ] ) & ( ~
 435              		.loc 1 286 0
 436 0006 0F4B     		ldr	r3, .L28
 437 0008 23F00703 		bic	r3, r3, #7
 438 000c 7B60     		str	r3, [r7, #4]
 287:FreeRTOS/heap_2.c **** 
 288:FreeRTOS/heap_2.c **** 	/* xStart is used to hold a pointer to the first item in the list of free
 289:FreeRTOS/heap_2.c **** 	blocks.  The void cast is used to prevent compiler warnings. */
 290:FreeRTOS/heap_2.c **** 	xStart.pxNextFreeBlock = ( void * ) pucAlignedHeap;
 439              		.loc 1 290 0
 440 000e 0E4A     		ldr	r2, .L28+4
 441 0010 7B68     		ldr	r3, [r7, #4]
 442 0012 1360     		str	r3, [r2]
 291:FreeRTOS/heap_2.c **** 	xStart.xBlockSize = ( size_t ) 0;
ARM GAS  C:\Users\koseki\AppData\Local\Temp\ccbywLmb.s 			page 14


 443              		.loc 1 291 0
 444 0014 0C4B     		ldr	r3, .L28+4
 445 0016 0022     		movs	r2, #0
 446 0018 5A60     		str	r2, [r3, #4]
 292:FreeRTOS/heap_2.c **** 
 293:FreeRTOS/heap_2.c **** 	/* xEnd is used to mark the end of the list of free blocks. */
 294:FreeRTOS/heap_2.c **** 	xEnd.xBlockSize = configADJUSTED_HEAP_SIZE;
 447              		.loc 1 294 0
 448 001a 0C4B     		ldr	r3, .L28+8
 449 001c 47F6F872 		movw	r2, #32760
 450 0020 5A60     		str	r2, [r3, #4]
 295:FreeRTOS/heap_2.c **** 	xEnd.pxNextFreeBlock = NULL;
 451              		.loc 1 295 0
 452 0022 0A4B     		ldr	r3, .L28+8
 453 0024 0022     		movs	r2, #0
 454 0026 1A60     		str	r2, [r3]
 296:FreeRTOS/heap_2.c **** 
 297:FreeRTOS/heap_2.c **** 	/* To start with there is a single free block that is sized to take up the
 298:FreeRTOS/heap_2.c **** 	entire heap space. */
 299:FreeRTOS/heap_2.c **** 	pxFirstFreeBlock = ( void * ) pucAlignedHeap;
 455              		.loc 1 299 0
 456 0028 7B68     		ldr	r3, [r7, #4]
 457 002a 3B60     		str	r3, [r7]
 300:FreeRTOS/heap_2.c **** 	pxFirstFreeBlock->xBlockSize = configADJUSTED_HEAP_SIZE;
 458              		.loc 1 300 0
 459 002c 3B68     		ldr	r3, [r7]
 460 002e 47F6F872 		movw	r2, #32760
 461 0032 5A60     		str	r2, [r3, #4]
 301:FreeRTOS/heap_2.c **** 	pxFirstFreeBlock->pxNextFreeBlock = &xEnd;
 462              		.loc 1 301 0
 463 0034 3B68     		ldr	r3, [r7]
 464 0036 054A     		ldr	r2, .L28+8
 465 0038 1A60     		str	r2, [r3]
 302:FreeRTOS/heap_2.c **** }
 466              		.loc 1 302 0
 467 003a 00BF     		nop
 468 003c 0C37     		adds	r7, r7, #12
 469              		.cfi_def_cfa_offset 4
 470 003e BD46     		mov	sp, r7
 471              		.cfi_def_cfa_register 13
 472              		@ sp needed
 473 0040 80BC     		pop	{r7}
 474              		.cfi_restore 7
 475              		.cfi_def_cfa_offset 0
 476 0042 7047     		bx	lr
 477              	.L29:
 478              		.align	2
 479              	.L28:
 480 0044 08000000 		.word	ucHeap+8
 481 0048 00800000 		.word	xStart
 482 004c 08800000 		.word	xEnd
 483              		.cfi_endproc
 484              	.LFE68:
 485              		.size	prvHeapInit, .-prvHeapInit
 486              		.bss
 487              		.align	2
 488              	xHeapHasBeenInitialised.7206:
ARM GAS  C:\Users\koseki\AppData\Local\Temp\ccbywLmb.s 			page 15


 489 8010 00000000 		.space	4
 490              		.text
 491              	.Letext0:
 492              		.file 2 "c:\\program files (x86)\\cypress\\psoc creator\\4.4\\psoc creator\\import\\gnu\\arm\\5.4.
 493              		.file 3 "c:\\program files (x86)\\cypress\\psoc creator\\4.4\\psoc creator\\import\\gnu\\arm\\5.4.
 494              		.file 4 "c:\\program files (x86)\\cypress\\psoc creator\\4.4\\psoc creator\\import\\gnu\\arm\\5.4.
 495              		.file 5 "FreeRTOS\\portmacro.h"
 496              		.file 6 "Generated_Source\\PSoC5/core_cm3.h"