ARM GAS  C:\Users\koseki\AppData\Local\Temp\ccpKaMvZ.s 			page 1


   1              		.syntax unified
   2              		.cpu cortex-m3
   3              		.fpu softvfp
   4              		.eabi_attribute 20, 1
   5              		.eabi_attribute 21, 1
   6              		.eabi_attribute 23, 3
   7              		.eabi_attribute 24, 1
   8              		.eabi_attribute 25, 1
   9              		.eabi_attribute 26, 1
  10              		.eabi_attribute 30, 6
  11              		.eabi_attribute 34, 1
  12              		.eabi_attribute 18, 4
  13              		.thumb
  14              		.syntax unified
  15              		.file	"I2C_CLCD.c"
  16              		.text
  17              	.Ltext0:
  18              		.cfi_sections	.debug_frame
  19              		.global	I2C_CLCD_enableState
  20              		.bss
  21              		.type	I2C_CLCD_enableState, %object
  22              		.size	I2C_CLCD_enableState, 1
  23              	I2C_CLCD_enableState:
  24 0000 00       		.space	1
  25              		.global	I2C_CLCD_initVar
  26              		.type	I2C_CLCD_initVar, %object
  27              		.size	I2C_CLCD_initVar, 1
  28              	I2C_CLCD_initVar:
  29 0001 00       		.space	1
  30              		.global	slaveAddress
  31              		.data
  32              		.type	slaveAddress, %object
  33              		.size	slaveAddress, 1
  34              	slaveAddress:
  35 0000 27       		.byte	39
  36              		.global	I2C_CLCD_BackLight
  37              		.type	I2C_CLCD_BackLight, %object
  38              		.size	I2C_CLCD_BackLight, 1
  39              	I2C_CLCD_BackLight:
  40 0001 08       		.byte	8
  41              		.section	.text.I2C_CLCD_Init,"ax",%progbits
  42              		.align	2
  43              		.global	I2C_CLCD_Init
  44              		.thumb
  45              		.thumb_func
  46              		.type	I2C_CLCD_Init, %function
  47              	I2C_CLCD_Init:
  48              	.LFB0:
  49              		.file 1 "API\\I2C_CLCD.c"
   1:API/I2C_CLCD.c **** /*******************************************************************************
   2:API/I2C_CLCD.c **** * File Name: I2C_CLCD.c
   3:API/I2C_CLCD.c **** * Version 1.0
   4:API/I2C_CLCD.c **** *
   5:API/I2C_CLCD.c **** * Description:
   6:API/I2C_CLCD.c **** *  This file provides source code for the I2C CLCD component's API.
   7:API/I2C_CLCD.c **** *  I2C_CLCD.c is midified LCD.c to use PCF8574 based I2C module for CLCD.
   8:API/I2C_CLCD.c **** *  In this file, the original 'LCD_' is changed to 'I2C_CLCD_'
ARM GAS  C:\Users\koseki\AppData\Local\Temp\ccpKaMvZ.s 			page 2


   9:API/I2C_CLCD.c **** *
  10:API/I2C_CLCD.c **** * Note:
  11:API/I2C_CLCD.c **** *
  12:API/I2C_CLCD.c **** ********************************************************************************
  13:API/I2C_CLCD.c **** * Copyright 2008-2014, Cypress Semiconductor Corporation.  All rights reserved.
  14:API/I2C_CLCD.c **** * You may use this file only in accordance with the license, terms, conditions,
  15:API/I2C_CLCD.c **** * disclaimers, and limitations in the end user license agreement accompanying
  16:API/I2C_CLCD.c **** * the software package with which this file was provided.
  17:API/I2C_CLCD.c **** *******************************************************************************/
  18:API/I2C_CLCD.c **** 
  19:API/I2C_CLCD.c **** /*******************************************************************************
  20:API/I2C_CLCD.c **** * Copyright 2016, JA7RHK.   All rights reserved.
  21:API/I2C_CLCD.c **** *******************************************************************************/
  22:API/I2C_CLCD.c **** 
  23:API/I2C_CLCD.c **** #include "CyLib.h"
  24:API/I2C_CLCD.c **** #include "I2C_CLCD.h"
  25:API/I2C_CLCD.c **** 
  26:API/I2C_CLCD.c **** 
  27:API/I2C_CLCD.c **** static void I2C_CLCD_WrDatNib(uint8 nibble) ;
  28:API/I2C_CLCD.c **** static void I2C_CLCD_WrCntrlNib(uint8 nibble) ;
  29:API/I2C_CLCD.c **** 
  30:API/I2C_CLCD.c **** /* Stores state of component. Indicates whether component is or not
  31:API/I2C_CLCD.c **** * in the enable state.
  32:API/I2C_CLCD.c **** */
  33:API/I2C_CLCD.c **** uint8 I2C_CLCD_enableState = 0u;
  34:API/I2C_CLCD.c **** 
  35:API/I2C_CLCD.c **** uint8 I2C_CLCD_initVar = 0u;
  36:API/I2C_CLCD.c **** 
  37:API/I2C_CLCD.c **** /* Need to have I2C_CLCD_buffIndex of different size to avoid MISRA
  38:API/I2C_CLCD.c **** * warning when SCB based I2C Master is used. 
  39:API/I2C_CLCD.c **** */
  40:API/I2C_CLCD.c **** 
  41:API/I2C_CLCD.c **** /* Variable stores the I2C address */
  42:API/I2C_CLCD.c **** /* 7-bit slave address. */
  43:API/I2C_CLCD.c **** uint8 slaveAddress = I2C_LCD_DEFAULT_I2C_ADDRESS;
  44:API/I2C_CLCD.c **** uint8 I2C_CLCD_BackLight = I2C_CLCD_BL;
  45:API/I2C_CLCD.c **** 
  46:API/I2C_CLCD.c **** 
  47:API/I2C_CLCD.c **** /*******************************************************************************
  48:API/I2C_CLCD.c **** * Function Name: I2C_CLCD_Init
  49:API/I2C_CLCD.c **** ********************************************************************************
  50:API/I2C_CLCD.c **** *
  51:API/I2C_CLCD.c **** * Summary:
  52:API/I2C_CLCD.c **** *  Perform initialization required for the components normal work.
  53:API/I2C_CLCD.c **** *  This function initializes the LCD hardware module as follows:
  54:API/I2C_CLCD.c **** *        Enables a 4-bit interface
  55:API/I2C_CLCD.c **** *        Clears the display
  56:API/I2C_CLCD.c **** *        Enables the auto cursor increment
  57:API/I2C_CLCD.c **** *        Resets the cursor to start position
  58:API/I2C_CLCD.c **** *  Also, it loads a custom character set to the LCD if it was defined in the customizer.
  59:API/I2C_CLCD.c **** *
  60:API/I2C_CLCD.c **** * Parameters:
  61:API/I2C_CLCD.c **** *  None.
  62:API/I2C_CLCD.c **** *
  63:API/I2C_CLCD.c **** * Return:
  64:API/I2C_CLCD.c **** *  None.
  65:API/I2C_CLCD.c **** *
ARM GAS  C:\Users\koseki\AppData\Local\Temp\ccpKaMvZ.s 			page 3


  66:API/I2C_CLCD.c **** * Reentrant:
  67:API/I2C_CLCD.c **** *  No.
  68:API/I2C_CLCD.c **** *
  69:API/I2C_CLCD.c **** *******************************************************************************/
  70:API/I2C_CLCD.c **** void I2C_CLCD_Init(void) 
  71:API/I2C_CLCD.c **** {
  50              		.loc 1 71 0
  51              		.cfi_startproc
  52              		@ args = 0, pretend = 0, frame = 0
  53              		@ frame_needed = 1, uses_anonymous_args = 0
  54 0000 80B5     		push	{r7, lr}
  55              		.cfi_def_cfa_offset 8
  56              		.cfi_offset 7, -8
  57              		.cfi_offset 14, -4
  58 0002 00AF     		add	r7, sp, #0
  59              		.cfi_def_cfa_register 7
  72:API/I2C_CLCD.c ****     /* INIT CODE */
  73:API/I2C_CLCD.c ****     CyDelay(40u);                                        /* Delay 40 ms */
  60              		.loc 1 73 0
  61 0004 2820     		movs	r0, #40
  62 0006 FFF7FEFF 		bl	CyDelay
  74:API/I2C_CLCD.c ****     I2C_CLCD_WrCntrlNib(I2C_CLCD_DISPLAY_8_BIT_INIT);    /* Selects 8-bit mode */
  63              		.loc 1 74 0
  64 000a 0320     		movs	r0, #3
  65 000c FFF7FEFF 		bl	I2C_CLCD_WrCntrlNib
  75:API/I2C_CLCD.c ****     CyDelay(5u);                                         /* Delay 5 ms */
  66              		.loc 1 75 0
  67 0010 0520     		movs	r0, #5
  68 0012 FFF7FEFF 		bl	CyDelay
  76:API/I2C_CLCD.c ****     I2C_CLCD_WrCntrlNib(I2C_CLCD_DISPLAY_8_BIT_INIT);    /* Selects 8-bit mode */
  69              		.loc 1 76 0
  70 0016 0320     		movs	r0, #3
  71 0018 FFF7FEFF 		bl	I2C_CLCD_WrCntrlNib
  77:API/I2C_CLCD.c ****     CyDelay(15u);                                        /* Delay 15 ms */
  72              		.loc 1 77 0
  73 001c 0F20     		movs	r0, #15
  74 001e FFF7FEFF 		bl	CyDelay
  78:API/I2C_CLCD.c ****     I2C_CLCD_WrCntrlNib(I2C_CLCD_DISPLAY_8_BIT_INIT);    /* Selects 8-bit mode */
  75              		.loc 1 78 0
  76 0022 0320     		movs	r0, #3
  77 0024 FFF7FEFF 		bl	I2C_CLCD_WrCntrlNib
  79:API/I2C_CLCD.c ****     CyDelay(1u);                                         /* Delay 1 ms */
  78              		.loc 1 79 0
  79 0028 0120     		movs	r0, #1
  80 002a FFF7FEFF 		bl	CyDelay
  80:API/I2C_CLCD.c ****     I2C_CLCD_WrCntrlNib(I2C_CLCD_DISPLAY_4_BIT_INIT);    /* Selects 4-bit mode */
  81              		.loc 1 80 0
  82 002e 0220     		movs	r0, #2
  83 0030 FFF7FEFF 		bl	I2C_CLCD_WrCntrlNib
  81:API/I2C_CLCD.c ****     CyDelay(5u);                                         /* Delay 5 ms */
  84              		.loc 1 81 0
  85 0034 0520     		movs	r0, #5
  86 0036 FFF7FEFF 		bl	CyDelay
  82:API/I2C_CLCD.c **** 
  83:API/I2C_CLCD.c ****     I2C_CLCD_WriteControl(I2C_CLCD_CURSOR_AUTO_INCR_ON);    /* Incr Cursor After Writes */
  87              		.loc 1 83 0
  88 003a 0620     		movs	r0, #6
ARM GAS  C:\Users\koseki\AppData\Local\Temp\ccpKaMvZ.s 			page 4


  89 003c FFF7FEFF 		bl	I2C_CLCD_WriteControl
  84:API/I2C_CLCD.c ****     I2C_CLCD_WriteControl(I2C_CLCD_DISPLAY_CURSOR_ON);      /* Turn Display, Cursor ON */
  90              		.loc 1 84 0
  91 0040 0E20     		movs	r0, #14
  92 0042 FFF7FEFF 		bl	I2C_CLCD_WriteControl
  85:API/I2C_CLCD.c ****     I2C_CLCD_WriteControl(I2C_CLCD_DISPLAY_2_LINES_5x10);   /* 2 Lines by 5x10 Characters */
  93              		.loc 1 85 0
  94 0046 2C20     		movs	r0, #44
  95 0048 FFF7FEFF 		bl	I2C_CLCD_WriteControl
  86:API/I2C_CLCD.c ****     I2C_CLCD_WriteControl(I2C_CLCD_DISPLAY_CURSOR_OFF);     /* Turn Display, Cursor OFF */
  96              		.loc 1 86 0
  97 004c 0820     		movs	r0, #8
  98 004e FFF7FEFF 		bl	I2C_CLCD_WriteControl
  87:API/I2C_CLCD.c ****     I2C_CLCD_WriteControl(I2C_CLCD_CLEAR_DISPLAY);          /* Clear LCD Screen */
  99              		.loc 1 87 0
 100 0052 0120     		movs	r0, #1
 101 0054 FFF7FEFF 		bl	I2C_CLCD_WriteControl
  88:API/I2C_CLCD.c ****     I2C_CLCD_WriteControl(I2C_CLCD_DISPLAY_ON_CURSOR_OFF);  /* Turn Display ON, Cursor OFF */
 102              		.loc 1 88 0
 103 0058 0C20     		movs	r0, #12
 104 005a FFF7FEFF 		bl	I2C_CLCD_WriteControl
  89:API/I2C_CLCD.c ****     I2C_CLCD_WriteControl(I2C_CLCD_RESET_CURSOR_POSITION);  /* Set Cursor to 0,0 */
 105              		.loc 1 89 0
 106 005e 0320     		movs	r0, #3
 107 0060 FFF7FEFF 		bl	I2C_CLCD_WriteControl
  90:API/I2C_CLCD.c ****     CyDelay(5u);
 108              		.loc 1 90 0
 109 0064 0520     		movs	r0, #5
 110 0066 FFF7FEFF 		bl	CyDelay
  91:API/I2C_CLCD.c **** }
 111              		.loc 1 91 0
 112 006a 00BF     		nop
 113 006c 80BD     		pop	{r7, pc}
 114              		.cfi_endproc
 115              	.LFE0:
 116              		.size	I2C_CLCD_Init, .-I2C_CLCD_Init
 117 006e 00BF     		.section	.text.I2C_CLCD_Enable,"ax",%progbits
 118              		.align	2
 119              		.global	I2C_CLCD_Enable
 120              		.thumb
 121              		.thumb_func
 122              		.type	I2C_CLCD_Enable, %function
 123              	I2C_CLCD_Enable:
 124              	.LFB1:
  92:API/I2C_CLCD.c **** 
  93:API/I2C_CLCD.c **** 
  94:API/I2C_CLCD.c **** /*******************************************************************************
  95:API/I2C_CLCD.c **** * Function Name: I2C_CLCD_Enable
  96:API/I2C_CLCD.c **** ********************************************************************************
  97:API/I2C_CLCD.c **** *
  98:API/I2C_CLCD.c **** * Summary:
  99:API/I2C_CLCD.c **** *  Turns on the display.
 100:API/I2C_CLCD.c **** *
 101:API/I2C_CLCD.c **** * Parameters:
 102:API/I2C_CLCD.c **** *  None.
 103:API/I2C_CLCD.c **** *
 104:API/I2C_CLCD.c **** * Return:
ARM GAS  C:\Users\koseki\AppData\Local\Temp\ccpKaMvZ.s 			page 5


 105:API/I2C_CLCD.c **** *  None.
 106:API/I2C_CLCD.c **** *
 107:API/I2C_CLCD.c **** * Reentrant:
 108:API/I2C_CLCD.c **** *  No.
 109:API/I2C_CLCD.c **** *
 110:API/I2C_CLCD.c **** * Theory:
 111:API/I2C_CLCD.c **** *  This function has no effect when it is called the first time as
 112:API/I2C_CLCD.c **** *  I2C_CLCD_Init() turns on the LCD.
 113:API/I2C_CLCD.c **** *
 114:API/I2C_CLCD.c **** *******************************************************************************/
 115:API/I2C_CLCD.c **** void I2C_CLCD_Enable(void) 
 116:API/I2C_CLCD.c **** {
 125              		.loc 1 116 0
 126              		.cfi_startproc
 127              		@ args = 0, pretend = 0, frame = 0
 128              		@ frame_needed = 1, uses_anonymous_args = 0
 129 0000 80B5     		push	{r7, lr}
 130              		.cfi_def_cfa_offset 8
 131              		.cfi_offset 7, -8
 132              		.cfi_offset 14, -4
 133 0002 00AF     		add	r7, sp, #0
 134              		.cfi_def_cfa_register 7
 117:API/I2C_CLCD.c ****     I2C_CLCD_DisplayOn();
 135              		.loc 1 117 0
 136 0004 0C20     		movs	r0, #12
 137 0006 FFF7FEFF 		bl	I2C_CLCD_WriteControl
 118:API/I2C_CLCD.c ****     I2C_CLCD_enableState = 1u;
 138              		.loc 1 118 0
 139 000a 024B     		ldr	r3, .L3
 140 000c 0122     		movs	r2, #1
 141 000e 1A70     		strb	r2, [r3]
 119:API/I2C_CLCD.c **** }
 142              		.loc 1 119 0
 143 0010 00BF     		nop
 144 0012 80BD     		pop	{r7, pc}
 145              	.L4:
 146              		.align	2
 147              	.L3:
 148 0014 00000000 		.word	I2C_CLCD_enableState
 149              		.cfi_endproc
 150              	.LFE1:
 151              		.size	I2C_CLCD_Enable, .-I2C_CLCD_Enable
 152              		.section	.text.I2C_CLCD_Start,"ax",%progbits
 153              		.align	2
 154              		.global	I2C_CLCD_Start
 155              		.thumb
 156              		.thumb_func
 157              		.type	I2C_CLCD_Start, %function
 158              	I2C_CLCD_Start:
 159              	.LFB2:
 120:API/I2C_CLCD.c **** 
 121:API/I2C_CLCD.c **** 
 122:API/I2C_CLCD.c **** /*******************************************************************************
 123:API/I2C_CLCD.c **** * Function Name: I2C_CLCD_Start
 124:API/I2C_CLCD.c **** ********************************************************************************
 125:API/I2C_CLCD.c **** *
 126:API/I2C_CLCD.c **** * Summary:
ARM GAS  C:\Users\koseki\AppData\Local\Temp\ccpKaMvZ.s 			page 6


 127:API/I2C_CLCD.c **** *  Perform initialization required for the components normal work.
 128:API/I2C_CLCD.c **** *  This function initializes the LCD hardware module as follows:
 129:API/I2C_CLCD.c **** *        Enables 4-bit interface
 130:API/I2C_CLCD.c **** *        Clears the display
 131:API/I2C_CLCD.c **** *        Enables auto cursor increment
 132:API/I2C_CLCD.c **** *        Resets the cursor to start position
 133:API/I2C_CLCD.c **** *  Also, it loads a custom character set to the LCD if it was defined in the customizer.
 134:API/I2C_CLCD.c **** *  If it was not the first call in this project, then it just turns on the
 135:API/I2C_CLCD.c **** *  display
 136:API/I2C_CLCD.c **** *
 137:API/I2C_CLCD.c **** *
 138:API/I2C_CLCD.c **** * Parameters:
 139:API/I2C_CLCD.c **** *  I2C_CLCD_initVar - global variable.
 140:API/I2C_CLCD.c **** *
 141:API/I2C_CLCD.c **** * Return:
 142:API/I2C_CLCD.c **** *  I2C_CLCD_initVar - global variable.
 143:API/I2C_CLCD.c **** *
 144:API/I2C_CLCD.c **** * Reentrant:
 145:API/I2C_CLCD.c **** *  No.
 146:API/I2C_CLCD.c **** *
 147:API/I2C_CLCD.c **** *******************************************************************************/
 148:API/I2C_CLCD.c **** void I2C_CLCD_Start(void) 
 149:API/I2C_CLCD.c **** {
 160              		.loc 1 149 0
 161              		.cfi_startproc
 162              		@ args = 0, pretend = 0, frame = 0
 163              		@ frame_needed = 1, uses_anonymous_args = 0
 164 0000 80B5     		push	{r7, lr}
 165              		.cfi_def_cfa_offset 8
 166              		.cfi_offset 7, -8
 167              		.cfi_offset 14, -4
 168 0002 00AF     		add	r7, sp, #0
 169              		.cfi_def_cfa_register 7
 150:API/I2C_CLCD.c ****     /* If not initialized, perform initialization */
 151:API/I2C_CLCD.c ****     if(I2C_CLCD_initVar == 0u)
 170              		.loc 1 151 0
 171 0004 064B     		ldr	r3, .L7
 172 0006 1B78     		ldrb	r3, [r3]	@ zero_extendqisi2
 173 0008 002B     		cmp	r3, #0
 174 000a 04D1     		bne	.L6
 152:API/I2C_CLCD.c ****     {
 153:API/I2C_CLCD.c ****         I2C_CLCD_Init();
 175              		.loc 1 153 0
 176 000c FFF7FEFF 		bl	I2C_CLCD_Init
 154:API/I2C_CLCD.c ****         I2C_CLCD_initVar = 1u;
 177              		.loc 1 154 0
 178 0010 034B     		ldr	r3, .L7
 179 0012 0122     		movs	r2, #1
 180 0014 1A70     		strb	r2, [r3]
 181              	.L6:
 155:API/I2C_CLCD.c ****     }
 156:API/I2C_CLCD.c **** 
 157:API/I2C_CLCD.c ****     /* Turn on the LCD */
 158:API/I2C_CLCD.c ****     I2C_CLCD_Enable();
 182              		.loc 1 158 0
 183 0016 FFF7FEFF 		bl	I2C_CLCD_Enable
 159:API/I2C_CLCD.c **** }
ARM GAS  C:\Users\koseki\AppData\Local\Temp\ccpKaMvZ.s 			page 7


 184              		.loc 1 159 0
 185 001a 00BF     		nop
 186 001c 80BD     		pop	{r7, pc}
 187              	.L8:
 188 001e 00BF     		.align	2
 189              	.L7:
 190 0020 00000000 		.word	I2C_CLCD_initVar
 191              		.cfi_endproc
 192              	.LFE2:
 193              		.size	I2C_CLCD_Start, .-I2C_CLCD_Start
 194              		.section	.text.I2C_CLCD_Stop,"ax",%progbits
 195              		.align	2
 196              		.global	I2C_CLCD_Stop
 197              		.thumb
 198              		.thumb_func
 199              		.type	I2C_CLCD_Stop, %function
 200              	I2C_CLCD_Stop:
 201              	.LFB3:
 160:API/I2C_CLCD.c **** 
 161:API/I2C_CLCD.c **** 
 162:API/I2C_CLCD.c **** /*******************************************************************************
 163:API/I2C_CLCD.c **** * Function Name: I2C_CLCD_Stop
 164:API/I2C_CLCD.c **** ********************************************************************************
 165:API/I2C_CLCD.c **** *
 166:API/I2C_CLCD.c **** * Summary:
 167:API/I2C_CLCD.c **** *  Turns off the display of the LCD screen.
 168:API/I2C_CLCD.c **** *
 169:API/I2C_CLCD.c **** * Parameters:
 170:API/I2C_CLCD.c **** *  None.
 171:API/I2C_CLCD.c **** *
 172:API/I2C_CLCD.c **** * Return:
 173:API/I2C_CLCD.c **** *  None.
 174:API/I2C_CLCD.c **** *
 175:API/I2C_CLCD.c **** * Reentrant:
 176:API/I2C_CLCD.c **** *  No.
 177:API/I2C_CLCD.c **** *
 178:API/I2C_CLCD.c **** *******************************************************************************/
 179:API/I2C_CLCD.c **** void I2C_CLCD_Stop(void) 
 180:API/I2C_CLCD.c **** {
 202              		.loc 1 180 0
 203              		.cfi_startproc
 204              		@ args = 0, pretend = 0, frame = 0
 205              		@ frame_needed = 1, uses_anonymous_args = 0
 206 0000 80B5     		push	{r7, lr}
 207              		.cfi_def_cfa_offset 8
 208              		.cfi_offset 7, -8
 209              		.cfi_offset 14, -4
 210 0002 00AF     		add	r7, sp, #0
 211              		.cfi_def_cfa_register 7
 181:API/I2C_CLCD.c ****     /* Calls LCD Off Macro */
 182:API/I2C_CLCD.c ****     I2C_CLCD_DisplayOff();
 212              		.loc 1 182 0
 213 0004 0820     		movs	r0, #8
 214 0006 FFF7FEFF 		bl	I2C_CLCD_WriteControl
 183:API/I2C_CLCD.c ****     I2C_CLCD_enableState = 0u;
 215              		.loc 1 183 0
 216 000a 024B     		ldr	r3, .L10
ARM GAS  C:\Users\koseki\AppData\Local\Temp\ccpKaMvZ.s 			page 8


 217 000c 0022     		movs	r2, #0
 218 000e 1A70     		strb	r2, [r3]
 184:API/I2C_CLCD.c **** }
 219              		.loc 1 184 0
 220 0010 00BF     		nop
 221 0012 80BD     		pop	{r7, pc}
 222              	.L11:
 223              		.align	2
 224              	.L10:
 225 0014 00000000 		.word	I2C_CLCD_enableState
 226              		.cfi_endproc
 227              	.LFE3:
 228              		.size	I2C_CLCD_Stop, .-I2C_CLCD_Stop
 229              		.section	.text.I2C_CLCD_Position,"ax",%progbits
 230              		.align	2
 231              		.global	I2C_CLCD_Position
 232              		.thumb
 233              		.thumb_func
 234              		.type	I2C_CLCD_Position, %function
 235              	I2C_CLCD_Position:
 236              	.LFB4:
 185:API/I2C_CLCD.c **** 
 186:API/I2C_CLCD.c **** 
 187:API/I2C_CLCD.c **** /*******************************************************************************
 188:API/I2C_CLCD.c **** *  Function Name: I2C_CLCD_Position
 189:API/I2C_CLCD.c **** ********************************************************************************
 190:API/I2C_CLCD.c **** *
 191:API/I2C_CLCD.c **** * Summary:
 192:API/I2C_CLCD.c **** *  Moves the active cursor location to a point specified by the input arguments
 193:API/I2C_CLCD.c **** *
 194:API/I2C_CLCD.c **** * Parameters:
 195:API/I2C_CLCD.c **** *  row:    Specific row of LCD module to be written
 196:API/I2C_CLCD.c **** *  column: Column of LCD module to be written
 197:API/I2C_CLCD.c **** *
 198:API/I2C_CLCD.c **** * Return:
 199:API/I2C_CLCD.c **** *  None.
 200:API/I2C_CLCD.c **** *
 201:API/I2C_CLCD.c **** * Note:
 202:API/I2C_CLCD.c **** *  This only applies for LCD displays that use the 2X40 address mode.
 203:API/I2C_CLCD.c **** *  In this case Row 2 starts with 0x28 offset from Row 1.
 204:API/I2C_CLCD.c **** *  When there are more than 2 rows, each row must be fewer than 20 characters.
 205:API/I2C_CLCD.c **** *
 206:API/I2C_CLCD.c **** *******************************************************************************/
 207:API/I2C_CLCD.c **** void I2C_CLCD_Position(uint8 row, uint8 column) 
 208:API/I2C_CLCD.c **** {
 237              		.loc 1 208 0
 238              		.cfi_startproc
 239              		@ args = 0, pretend = 0, frame = 8
 240              		@ frame_needed = 1, uses_anonymous_args = 0
 241 0000 80B5     		push	{r7, lr}
 242              		.cfi_def_cfa_offset 8
 243              		.cfi_offset 7, -8
 244              		.cfi_offset 14, -4
 245 0002 82B0     		sub	sp, sp, #8
 246              		.cfi_def_cfa_offset 16
 247 0004 00AF     		add	r7, sp, #0
 248              		.cfi_def_cfa_register 7
ARM GAS  C:\Users\koseki\AppData\Local\Temp\ccpKaMvZ.s 			page 9


 249 0006 0346     		mov	r3, r0
 250 0008 0A46     		mov	r2, r1
 251 000a FB71     		strb	r3, [r7, #7]
 252 000c 1346     		mov	r3, r2
 253 000e BB71     		strb	r3, [r7, #6]
 209:API/I2C_CLCD.c ****     switch (row)
 254              		.loc 1 209 0
 255 0010 FB79     		ldrb	r3, [r7, #7]	@ zero_extendqisi2
 256 0012 032B     		cmp	r3, #3
 257 0014 26D8     		bhi	.L20
 258 0016 01A2     		adr	r2, .L15
 259 0018 52F823F0 		ldr	pc, [r2, r3, lsl #2]
 260              		.p2align 2
 261              	.L15:
 262 001c 2D000000 		.word	.L14+1
 263 0020 3B000000 		.word	.L16+1
 264 0024 49000000 		.word	.L17+1
 265 0028 57000000 		.word	.L18+1
 266              		.p2align 1
 267              	.L14:
 210:API/I2C_CLCD.c ****     {
 211:API/I2C_CLCD.c ****         case (uint8)0:
 212:API/I2C_CLCD.c ****             I2C_CLCD_WriteControl(I2C_CLCD_ROW_0_START + column);
 268              		.loc 1 212 0
 269 002c BB79     		ldrb	r3, [r7, #6]
 270 002e 803B     		subs	r3, r3, #128
 271 0030 DBB2     		uxtb	r3, r3
 272 0032 1846     		mov	r0, r3
 273 0034 FFF7FEFF 		bl	I2C_CLCD_WriteControl
 213:API/I2C_CLCD.c ****             break;
 274              		.loc 1 213 0
 275 0038 15E0     		b	.L19
 276              	.L16:
 214:API/I2C_CLCD.c ****         case (uint8) 1:
 215:API/I2C_CLCD.c ****             I2C_CLCD_WriteControl(I2C_CLCD_ROW_1_START + column);
 277              		.loc 1 215 0
 278 003a BB79     		ldrb	r3, [r7, #6]
 279 003c 403B     		subs	r3, r3, #64
 280 003e DBB2     		uxtb	r3, r3
 281 0040 1846     		mov	r0, r3
 282 0042 FFF7FEFF 		bl	I2C_CLCD_WriteControl
 216:API/I2C_CLCD.c ****             break;
 283              		.loc 1 216 0
 284 0046 0EE0     		b	.L19
 285              	.L17:
 217:API/I2C_CLCD.c ****         case (uint8) 2:
 218:API/I2C_CLCD.c ****             I2C_CLCD_WriteControl(I2C_CLCD_ROW_2_START + column);
 286              		.loc 1 218 0
 287 0048 BB79     		ldrb	r3, [r7, #6]
 288 004a 6C3B     		subs	r3, r3, #108
 289 004c DBB2     		uxtb	r3, r3
 290 004e 1846     		mov	r0, r3
 291 0050 FFF7FEFF 		bl	I2C_CLCD_WriteControl
 219:API/I2C_CLCD.c ****             break;
 292              		.loc 1 219 0
 293 0054 07E0     		b	.L19
 294              	.L18:
ARM GAS  C:\Users\koseki\AppData\Local\Temp\ccpKaMvZ.s 			page 10


 220:API/I2C_CLCD.c ****         case (uint8) 3:
 221:API/I2C_CLCD.c ****             I2C_CLCD_WriteControl(I2C_CLCD_ROW_3_START + column);
 295              		.loc 1 221 0
 296 0056 BB79     		ldrb	r3, [r7, #6]
 297 0058 2C3B     		subs	r3, r3, #44
 298 005a DBB2     		uxtb	r3, r3
 299 005c 1846     		mov	r0, r3
 300 005e FFF7FEFF 		bl	I2C_CLCD_WriteControl
 222:API/I2C_CLCD.c ****             break;
 301              		.loc 1 222 0
 302 0062 00E0     		b	.L19
 303              	.L20:
 223:API/I2C_CLCD.c ****         default:
 224:API/I2C_CLCD.c ****             /* if default case is hit, invalid row argument was passed.*/
 225:API/I2C_CLCD.c ****             break;
 304              		.loc 1 225 0
 305 0064 00BF     		nop
 306              	.L19:
 226:API/I2C_CLCD.c ****     }
 227:API/I2C_CLCD.c **** }
 307              		.loc 1 227 0
 308 0066 00BF     		nop
 309 0068 0837     		adds	r7, r7, #8
 310              		.cfi_def_cfa_offset 8
 311 006a BD46     		mov	sp, r7
 312              		.cfi_def_cfa_register 13
 313              		@ sp needed
 314 006c 80BD     		pop	{r7, pc}
 315              		.cfi_endproc
 316              	.LFE4:
 317              		.size	I2C_CLCD_Position, .-I2C_CLCD_Position
 318 006e 00BF     		.section	.text.I2C_CLCD_PrintString,"ax",%progbits
 319              		.align	2
 320              		.global	I2C_CLCD_PrintString
 321              		.thumb
 322              		.thumb_func
 323              		.type	I2C_CLCD_PrintString, %function
 324              	I2C_CLCD_PrintString:
 325              	.LFB5:
 228:API/I2C_CLCD.c **** 
 229:API/I2C_CLCD.c **** 
 230:API/I2C_CLCD.c **** /*******************************************************************************
 231:API/I2C_CLCD.c **** * Function Name: I2C_CLCD_PrintString
 232:API/I2C_CLCD.c **** ********************************************************************************
 233:API/I2C_CLCD.c **** *
 234:API/I2C_CLCD.c **** * Summary:
 235:API/I2C_CLCD.c **** *  Writes a zero terminated string to the LCD.
 236:API/I2C_CLCD.c **** *
 237:API/I2C_CLCD.c **** * Parameters:
 238:API/I2C_CLCD.c **** *  string: Pointer to head of char8 array to be written to the LCD module
 239:API/I2C_CLCD.c **** *
 240:API/I2C_CLCD.c **** * Return:
 241:API/I2C_CLCD.c **** *  None.
 242:API/I2C_CLCD.c **** *
 243:API/I2C_CLCD.c **** *******************************************************************************/
 244:API/I2C_CLCD.c **** void I2C_CLCD_PrintString(char8 const string[]) 
 245:API/I2C_CLCD.c **** {
ARM GAS  C:\Users\koseki\AppData\Local\Temp\ccpKaMvZ.s 			page 11


 326              		.loc 1 245 0
 327              		.cfi_startproc
 328              		@ args = 0, pretend = 0, frame = 16
 329              		@ frame_needed = 1, uses_anonymous_args = 0
 330 0000 80B5     		push	{r7, lr}
 331              		.cfi_def_cfa_offset 8
 332              		.cfi_offset 7, -8
 333              		.cfi_offset 14, -4
 334 0002 84B0     		sub	sp, sp, #16
 335              		.cfi_def_cfa_offset 24
 336 0004 00AF     		add	r7, sp, #0
 337              		.cfi_def_cfa_register 7
 338 0006 7860     		str	r0, [r7, #4]
 246:API/I2C_CLCD.c ****     uint8 indexU8 = 1u;
 339              		.loc 1 246 0
 340 0008 0123     		movs	r3, #1
 341 000a FB73     		strb	r3, [r7, #15]
 247:API/I2C_CLCD.c ****     char8 current = *string;
 342              		.loc 1 247 0
 343 000c 7B68     		ldr	r3, [r7, #4]
 344 000e 1B78     		ldrb	r3, [r3]
 345 0010 BB73     		strb	r3, [r7, #14]
 248:API/I2C_CLCD.c **** 
 249:API/I2C_CLCD.c ****     /* Until null is reached, print next character */
 250:API/I2C_CLCD.c ****     while((char8) '\0' != current)
 346              		.loc 1 250 0
 347 0012 0BE0     		b	.L22
 348              	.L23:
 251:API/I2C_CLCD.c ****     {
 252:API/I2C_CLCD.c ****         I2C_CLCD_WriteData((uint8)current);
 349              		.loc 1 252 0
 350 0014 BB7B     		ldrb	r3, [r7, #14]	@ zero_extendqisi2
 351 0016 1846     		mov	r0, r3
 352 0018 FFF7FEFF 		bl	I2C_CLCD_WriteData
 253:API/I2C_CLCD.c ****         current = string[indexU8];
 353              		.loc 1 253 0
 354 001c FB7B     		ldrb	r3, [r7, #15]	@ zero_extendqisi2
 355 001e 7A68     		ldr	r2, [r7, #4]
 356 0020 1344     		add	r3, r3, r2
 357 0022 1B78     		ldrb	r3, [r3]
 358 0024 BB73     		strb	r3, [r7, #14]
 254:API/I2C_CLCD.c ****         indexU8++;
 359              		.loc 1 254 0
 360 0026 FB7B     		ldrb	r3, [r7, #15]	@ zero_extendqisi2
 361 0028 0133     		adds	r3, r3, #1
 362 002a FB73     		strb	r3, [r7, #15]
 363              	.L22:
 250:API/I2C_CLCD.c ****     {
 364              		.loc 1 250 0
 365 002c BB7B     		ldrb	r3, [r7, #14]	@ zero_extendqisi2
 366 002e 002B     		cmp	r3, #0
 367 0030 F0D1     		bne	.L23
 255:API/I2C_CLCD.c ****     }
 256:API/I2C_CLCD.c **** }
 368              		.loc 1 256 0
 369 0032 00BF     		nop
 370 0034 1037     		adds	r7, r7, #16
ARM GAS  C:\Users\koseki\AppData\Local\Temp\ccpKaMvZ.s 			page 12


 371              		.cfi_def_cfa_offset 8
 372 0036 BD46     		mov	sp, r7
 373              		.cfi_def_cfa_register 13
 374              		@ sp needed
 375 0038 80BD     		pop	{r7, pc}
 376              		.cfi_endproc
 377              	.LFE5:
 378              		.size	I2C_CLCD_PrintString, .-I2C_CLCD_PrintString
 379 003a 00BF     		.section	.text.I2C_CLCD_PutChar,"ax",%progbits
 380              		.align	2
 381              		.global	I2C_CLCD_PutChar
 382              		.thumb
 383              		.thumb_func
 384              		.type	I2C_CLCD_PutChar, %function
 385              	I2C_CLCD_PutChar:
 386              	.LFB6:
 257:API/I2C_CLCD.c **** 
 258:API/I2C_CLCD.c **** 
 259:API/I2C_CLCD.c **** /*******************************************************************************
 260:API/I2C_CLCD.c **** *  Function Name: I2C_CLCD_PutChar
 261:API/I2C_CLCD.c **** ********************************************************************************
 262:API/I2C_CLCD.c **** *
 263:API/I2C_CLCD.c **** * Summary:
 264:API/I2C_CLCD.c **** *  Writes a single character to the current cursor position of the LCD module.
 265:API/I2C_CLCD.c **** *  Custom character names (_CUSTOM_0 through
 266:API/I2C_CLCD.c **** *  _CUSTOM_7) are acceptable as inputs.
 267:API/I2C_CLCD.c **** *
 268:API/I2C_CLCD.c **** * Parameters:
 269:API/I2C_CLCD.c **** *  character: Character to be written to LCD
 270:API/I2C_CLCD.c **** *
 271:API/I2C_CLCD.c **** * Return:
 272:API/I2C_CLCD.c **** *  None.
 273:API/I2C_CLCD.c **** *
 274:API/I2C_CLCD.c **** *******************************************************************************/
 275:API/I2C_CLCD.c **** void I2C_CLCD_PutChar(char8 character) 
 276:API/I2C_CLCD.c **** {
 387              		.loc 1 276 0
 388              		.cfi_startproc
 389              		@ args = 0, pretend = 0, frame = 8
 390              		@ frame_needed = 1, uses_anonymous_args = 0
 391 0000 80B5     		push	{r7, lr}
 392              		.cfi_def_cfa_offset 8
 393              		.cfi_offset 7, -8
 394              		.cfi_offset 14, -4
 395 0002 82B0     		sub	sp, sp, #8
 396              		.cfi_def_cfa_offset 16
 397 0004 00AF     		add	r7, sp, #0
 398              		.cfi_def_cfa_register 7
 399 0006 0346     		mov	r3, r0
 400 0008 FB71     		strb	r3, [r7, #7]
 277:API/I2C_CLCD.c ****     I2C_CLCD_WriteData((uint8)character);
 401              		.loc 1 277 0
 402 000a FB79     		ldrb	r3, [r7, #7]	@ zero_extendqisi2
 403 000c 1846     		mov	r0, r3
 404 000e FFF7FEFF 		bl	I2C_CLCD_WriteData
 278:API/I2C_CLCD.c **** }
 405              		.loc 1 278 0
ARM GAS  C:\Users\koseki\AppData\Local\Temp\ccpKaMvZ.s 			page 13


 406 0012 00BF     		nop
 407 0014 0837     		adds	r7, r7, #8
 408              		.cfi_def_cfa_offset 8
 409 0016 BD46     		mov	sp, r7
 410              		.cfi_def_cfa_register 13
 411              		@ sp needed
 412 0018 80BD     		pop	{r7, pc}
 413              		.cfi_endproc
 414              	.LFE6:
 415              		.size	I2C_CLCD_PutChar, .-I2C_CLCD_PutChar
 416 001a 00BF     		.section	.text.I2C_CLCD_WriteData,"ax",%progbits
 417              		.align	2
 418              		.global	I2C_CLCD_WriteData
 419              		.thumb
 420              		.thumb_func
 421              		.type	I2C_CLCD_WriteData, %function
 422              	I2C_CLCD_WriteData:
 423              	.LFB7:
 279:API/I2C_CLCD.c **** 
 280:API/I2C_CLCD.c **** 
 281:API/I2C_CLCD.c **** /*******************************************************************************
 282:API/I2C_CLCD.c **** *  Function Name: I2C_CLCD_WriteData
 283:API/I2C_CLCD.c **** ********************************************************************************
 284:API/I2C_CLCD.c **** *
 285:API/I2C_CLCD.c **** * Summary:
 286:API/I2C_CLCD.c **** *  Writes a data byte to the LCD module's Data Display RAM.
 287:API/I2C_CLCD.c **** *
 288:API/I2C_CLCD.c **** * Parameters:
 289:API/I2C_CLCD.c **** *  dByte: Byte to be written to the LCD module
 290:API/I2C_CLCD.c **** *
 291:API/I2C_CLCD.c **** * Return:
 292:API/I2C_CLCD.c **** *  None.
 293:API/I2C_CLCD.c **** *
 294:API/I2C_CLCD.c **** *******************************************************************************/
 295:API/I2C_CLCD.c **** void I2C_CLCD_WriteData(uint8 dByte) 
 296:API/I2C_CLCD.c **** {
 424              		.loc 1 296 0
 425              		.cfi_startproc
 426              		@ args = 0, pretend = 0, frame = 16
 427              		@ frame_needed = 1, uses_anonymous_args = 0
 428 0000 80B5     		push	{r7, lr}
 429              		.cfi_def_cfa_offset 8
 430              		.cfi_offset 7, -8
 431              		.cfi_offset 14, -4
 432 0002 84B0     		sub	sp, sp, #16
 433              		.cfi_def_cfa_offset 24
 434 0004 00AF     		add	r7, sp, #0
 435              		.cfi_def_cfa_register 7
 436 0006 0346     		mov	r3, r0
 437 0008 FB71     		strb	r3, [r7, #7]
 297:API/I2C_CLCD.c ****     uint8 nibble;
 298:API/I2C_CLCD.c **** 
 299:API/I2C_CLCD.c ****     I2C_CLCD_IsReady();
 438              		.loc 1 299 0
 439 000a FFF7FEFF 		bl	I2C_CLCD_IsReady
 300:API/I2C_CLCD.c ****     nibble = dByte >> I2C_CLCD_NIBBLE_SHIFT;
 440              		.loc 1 300 0
ARM GAS  C:\Users\koseki\AppData\Local\Temp\ccpKaMvZ.s 			page 14


 441 000e FB79     		ldrb	r3, [r7, #7]	@ zero_extendqisi2
 442 0010 1B09     		lsrs	r3, r3, #4
 443 0012 FB73     		strb	r3, [r7, #15]
 301:API/I2C_CLCD.c **** 
 302:API/I2C_CLCD.c ****     /* Write high nibble */
 303:API/I2C_CLCD.c ****     I2C_CLCD_WrDatNib(nibble);
 444              		.loc 1 303 0
 445 0014 FB7B     		ldrb	r3, [r7, #15]	@ zero_extendqisi2
 446 0016 1846     		mov	r0, r3
 447 0018 FFF7FEFF 		bl	I2C_CLCD_WrDatNib
 304:API/I2C_CLCD.c **** 
 305:API/I2C_CLCD.c ****     nibble = dByte & I2C_CLCD_NIBBLE_MASK;
 448              		.loc 1 305 0
 449 001c FB79     		ldrb	r3, [r7, #7]
 450 001e 03F00F03 		and	r3, r3, #15
 451 0022 FB73     		strb	r3, [r7, #15]
 306:API/I2C_CLCD.c ****     /* Write low nibble */
 307:API/I2C_CLCD.c ****     I2C_CLCD_WrDatNib(nibble);
 452              		.loc 1 307 0
 453 0024 FB7B     		ldrb	r3, [r7, #15]	@ zero_extendqisi2
 454 0026 1846     		mov	r0, r3
 455 0028 FFF7FEFF 		bl	I2C_CLCD_WrDatNib
 308:API/I2C_CLCD.c **** }
 456              		.loc 1 308 0
 457 002c 00BF     		nop
 458 002e 1037     		adds	r7, r7, #16
 459              		.cfi_def_cfa_offset 8
 460 0030 BD46     		mov	sp, r7
 461              		.cfi_def_cfa_register 13
 462              		@ sp needed
 463 0032 80BD     		pop	{r7, pc}
 464              		.cfi_endproc
 465              	.LFE7:
 466              		.size	I2C_CLCD_WriteData, .-I2C_CLCD_WriteData
 467              		.section	.text.I2C_CLCD_WriteControl,"ax",%progbits
 468              		.align	2
 469              		.global	I2C_CLCD_WriteControl
 470              		.thumb
 471              		.thumb_func
 472              		.type	I2C_CLCD_WriteControl, %function
 473              	I2C_CLCD_WriteControl:
 474              	.LFB8:
 309:API/I2C_CLCD.c **** 
 310:API/I2C_CLCD.c **** 
 311:API/I2C_CLCD.c **** /*******************************************************************************
 312:API/I2C_CLCD.c **** *  Function Name: I2C_CLCD_WriteControl
 313:API/I2C_CLCD.c **** ********************************************************************************
 314:API/I2C_CLCD.c **** *
 315:API/I2C_CLCD.c **** * Summary:
 316:API/I2C_CLCD.c **** *  Writes a command byte to the LCD module.
 317:API/I2C_CLCD.c **** *
 318:API/I2C_CLCD.c **** * Parameters:
 319:API/I2C_CLCD.c **** *  cByte:  The byte to be written to theLCD module
 320:API/I2C_CLCD.c **** * 
 321:API/I2C_CLCD.c **** * Return:
 322:API/I2C_CLCD.c **** *  None.
 323:API/I2C_CLCD.c **** *
ARM GAS  C:\Users\koseki\AppData\Local\Temp\ccpKaMvZ.s 			page 15


 324:API/I2C_CLCD.c **** *******************************************************************************/
 325:API/I2C_CLCD.c **** void I2C_CLCD_WriteControl(uint8 cByte) 
 326:API/I2C_CLCD.c **** {
 475              		.loc 1 326 0
 476              		.cfi_startproc
 477              		@ args = 0, pretend = 0, frame = 16
 478              		@ frame_needed = 1, uses_anonymous_args = 0
 479 0000 80B5     		push	{r7, lr}
 480              		.cfi_def_cfa_offset 8
 481              		.cfi_offset 7, -8
 482              		.cfi_offset 14, -4
 483 0002 84B0     		sub	sp, sp, #16
 484              		.cfi_def_cfa_offset 24
 485 0004 00AF     		add	r7, sp, #0
 486              		.cfi_def_cfa_register 7
 487 0006 0346     		mov	r3, r0
 488 0008 FB71     		strb	r3, [r7, #7]
 327:API/I2C_CLCD.c ****     uint8 nibble;
 328:API/I2C_CLCD.c **** 
 329:API/I2C_CLCD.c ****     I2C_CLCD_IsReady();
 489              		.loc 1 329 0
 490 000a FFF7FEFF 		bl	I2C_CLCD_IsReady
 330:API/I2C_CLCD.c **** 
 331:API/I2C_CLCD.c ****     nibble = cByte >> I2C_CLCD_NIBBLE_SHIFT;
 491              		.loc 1 331 0
 492 000e FB79     		ldrb	r3, [r7, #7]	@ zero_extendqisi2
 493 0010 1B09     		lsrs	r3, r3, #4
 494 0012 FB73     		strb	r3, [r7, #15]
 332:API/I2C_CLCD.c ****     
 333:API/I2C_CLCD.c ****     /* WrCntrlNib(High Nibble) */
 334:API/I2C_CLCD.c ****     I2C_CLCD_WrCntrlNib(nibble);
 495              		.loc 1 334 0
 496 0014 FB7B     		ldrb	r3, [r7, #15]	@ zero_extendqisi2
 497 0016 1846     		mov	r0, r3
 498 0018 FFF7FEFF 		bl	I2C_CLCD_WrCntrlNib
 335:API/I2C_CLCD.c ****     nibble = cByte & I2C_CLCD_NIBBLE_MASK;
 499              		.loc 1 335 0
 500 001c FB79     		ldrb	r3, [r7, #7]
 501 001e 03F00F03 		and	r3, r3, #15
 502 0022 FB73     		strb	r3, [r7, #15]
 336:API/I2C_CLCD.c **** 
 337:API/I2C_CLCD.c ****     /* WrCntrlNib(Low Nibble) */
 338:API/I2C_CLCD.c ****     I2C_CLCD_WrCntrlNib(nibble);
 503              		.loc 1 338 0
 504 0024 FB7B     		ldrb	r3, [r7, #15]	@ zero_extendqisi2
 505 0026 1846     		mov	r0, r3
 506 0028 FFF7FEFF 		bl	I2C_CLCD_WrCntrlNib
 339:API/I2C_CLCD.c **** }
 507              		.loc 1 339 0
 508 002c 00BF     		nop
 509 002e 1037     		adds	r7, r7, #16
 510              		.cfi_def_cfa_offset 8
 511 0030 BD46     		mov	sp, r7
 512              		.cfi_def_cfa_register 13
 513              		@ sp needed
 514 0032 80BD     		pop	{r7, pc}
 515              		.cfi_endproc
ARM GAS  C:\Users\koseki\AppData\Local\Temp\ccpKaMvZ.s 			page 16


 516              	.LFE8:
 517              		.size	I2C_CLCD_WriteControl, .-I2C_CLCD_WriteControl
 518              		.section	.text.I2C_CLCD_IsReady,"ax",%progbits
 519              		.align	2
 520              		.global	I2C_CLCD_IsReady
 521              		.thumb
 522              		.thumb_func
 523              		.type	I2C_CLCD_IsReady, %function
 524              	I2C_CLCD_IsReady:
 525              	.LFB9:
 340:API/I2C_CLCD.c **** 
 341:API/I2C_CLCD.c **** 
 342:API/I2C_CLCD.c **** /*******************************************************************************
 343:API/I2C_CLCD.c **** * Function Name: I2C_CLCD_IsReady
 344:API/I2C_CLCD.c **** ********************************************************************************
 345:API/I2C_CLCD.c **** *
 346:API/I2C_CLCD.c **** * Summary:
 347:API/I2C_CLCD.c **** *  Polls the LCD until the ready bit is set.
 348:API/I2C_CLCD.c **** *
 349:API/I2C_CLCD.c **** * Parameters:
 350:API/I2C_CLCD.c **** *  None.
 351:API/I2C_CLCD.c **** *
 352:API/I2C_CLCD.c **** * Return:
 353:API/I2C_CLCD.c **** *  None.
 354:API/I2C_CLCD.c **** *
 355:API/I2C_CLCD.c **** *******************************************************************************/
 356:API/I2C_CLCD.c **** void I2C_CLCD_IsReady(void) 
 357:API/I2C_CLCD.c **** {
 526              		.loc 1 357 0
 527              		.cfi_startproc
 528              		@ args = 0, pretend = 0, frame = 0
 529              		@ frame_needed = 1, uses_anonymous_args = 0
 530 0000 80B5     		push	{r7, lr}
 531              		.cfi_def_cfa_offset 8
 532              		.cfi_offset 7, -8
 533              		.cfi_offset 14, -4
 534 0002 00AF     		add	r7, sp, #0
 535              		.cfi_def_cfa_register 7
 358:API/I2C_CLCD.c ****     /*
 359:API/I2C_CLCD.c ****     *  No need to use the delay routines since the time taken to write takes
 360:API/I2C_CLCD.c ****     *  longer that what is needed both for toggling and enable pin an to execute
 361:API/I2C_CLCD.c ****     *  the command.
 362:API/I2C_CLCD.c ****     */
 363:API/I2C_CLCD.c ****     CyDelayUs(1u);
 536              		.loc 1 363 0
 537 0004 0120     		movs	r0, #1
 538 0006 FFF7FEFF 		bl	CyDelayUs
 364:API/I2C_CLCD.c **** }
 539              		.loc 1 364 0
 540 000a 00BF     		nop
 541 000c 80BD     		pop	{r7, pc}
 542              		.cfi_endproc
 543              	.LFE9:
 544              		.size	I2C_CLCD_IsReady, .-I2C_CLCD_IsReady
 545 000e 00BF     		.section	.text.I2C_CLCD_WrDatNib,"ax",%progbits
 546              		.align	2
 547              		.thumb
ARM GAS  C:\Users\koseki\AppData\Local\Temp\ccpKaMvZ.s 			page 17


 548              		.thumb_func
 549              		.type	I2C_CLCD_WrDatNib, %function
 550              	I2C_CLCD_WrDatNib:
 551              	.LFB10:
 365:API/I2C_CLCD.c **** 
 366:API/I2C_CLCD.c **** 
 367:API/I2C_CLCD.c **** /*******************************************************************************
 368:API/I2C_CLCD.c **** *  Function Name: I2C_CLCD_WrDatNib
 369:API/I2C_CLCD.c **** ********************************************************************************
 370:API/I2C_CLCD.c **** *
 371:API/I2C_CLCD.c **** * Summary:
 372:API/I2C_CLCD.c **** *  Writes a data nibble to the LCD module.
 373:API/I2C_CLCD.c **** *
 374:API/I2C_CLCD.c **** * Parameters:
 375:API/I2C_CLCD.c **** *  nibble:  Byte containing nibble in least significant nibble to be written
 376:API/I2C_CLCD.c **** *           to LCD module.
 377:API/I2C_CLCD.c **** *
 378:API/I2C_CLCD.c **** * Return:
 379:API/I2C_CLCD.c **** *  None.
 380:API/I2C_CLCD.c **** *
 381:API/I2C_CLCD.c **** *******************************************************************************/
 382:API/I2C_CLCD.c **** static void I2C_CLCD_WrDatNib(uint8 nibble) 
 383:API/I2C_CLCD.c **** {
 552              		.loc 1 383 0
 553              		.cfi_startproc
 554              		@ args = 0, pretend = 0, frame = 16
 555              		@ frame_needed = 1, uses_anonymous_args = 0
 556 0000 80B5     		push	{r7, lr}
 557              		.cfi_def_cfa_offset 8
 558              		.cfi_offset 7, -8
 559              		.cfi_offset 14, -4
 560 0002 84B0     		sub	sp, sp, #16
 561              		.cfi_def_cfa_offset 24
 562 0004 00AF     		add	r7, sp, #0
 563              		.cfi_def_cfa_register 7
 564 0006 0346     		mov	r3, r0
 565 0008 FB71     		strb	r3, [r7, #7]
 384:API/I2C_CLCD.c **** 	uint8 data = I2C_CLCD_BackLight;
 566              		.loc 1 384 0
 567 000a 244B     		ldr	r3, .L29
 568 000c 1B78     		ldrb	r3, [r3]
 569 000e FB73     		strb	r3, [r7, #15]
 385:API/I2C_CLCD.c **** 
 386:API/I2C_CLCD.c ****     I2C_CLCD_MasterSendStart(slaveAddress, I2C_WRITE);
 570              		.loc 1 386 0
 571 0010 234B     		ldr	r3, .L29+4
 572 0012 1B78     		ldrb	r3, [r3]	@ zero_extendqisi2
 573 0014 0021     		movs	r1, #0
 574 0016 1846     		mov	r0, r3
 575 0018 FFF7FEFF 		bl	I2C_1_MasterSendStart
 387:API/I2C_CLCD.c ****     CyDelayUs(1u);
 576              		.loc 1 387 0
 577 001c 0120     		movs	r0, #1
 578 001e FFF7FEFF 		bl	CyDelayUs
 388:API/I2C_CLCD.c **** 
 389:API/I2C_CLCD.c ****     /* RS should be low to select data register */
 390:API/I2C_CLCD.c ****     data |= I2C_CLCD_RS;
ARM GAS  C:\Users\koseki\AppData\Local\Temp\ccpKaMvZ.s 			page 18


 579              		.loc 1 390 0
 580 0022 FB7B     		ldrb	r3, [r7, #15]
 581 0024 43F00103 		orr	r3, r3, #1
 582 0028 FB73     		strb	r3, [r7, #15]
 391:API/I2C_CLCD.c **** 	I2C_CLCD_MasterWriteByte(data);
 583              		.loc 1 391 0
 584 002a FB7B     		ldrb	r3, [r7, #15]	@ zero_extendqisi2
 585 002c 1846     		mov	r0, r3
 586 002e FFF7FEFF 		bl	I2C_1_MasterWriteByte
 392:API/I2C_CLCD.c **** 
 393:API/I2C_CLCD.c ****     /* Reset RW for write operation */
 394:API/I2C_CLCD.c ****     data &= ((uint8)(~I2C_CLCD_RW));
 587              		.loc 1 394 0
 588 0032 FB7B     		ldrb	r3, [r7, #15]
 589 0034 23F00203 		bic	r3, r3, #2
 590 0038 FB73     		strb	r3, [r7, #15]
 395:API/I2C_CLCD.c **** 	I2C_CLCD_MasterWriteByte(data);
 591              		.loc 1 395 0
 592 003a FB7B     		ldrb	r3, [r7, #15]	@ zero_extendqisi2
 593 003c 1846     		mov	r0, r3
 594 003e FFF7FEFF 		bl	I2C_1_MasterWriteByte
 396:API/I2C_CLCD.c **** 
 397:API/I2C_CLCD.c ****     /* Guaranteed delay between Setting RS and RW and setting E bits */
 398:API/I2C_CLCD.c ****     CyDelayUs(0u);
 595              		.loc 1 398 0
 596 0042 0020     		movs	r0, #0
 597 0044 FFF7FEFF 		bl	CyDelayUs
 399:API/I2C_CLCD.c ****     
 400:API/I2C_CLCD.c ****     /* Clear data pins */
 401:API/I2C_CLCD.c ****     data &= ((uint8)(~I2C_CLCD_DATA_MASK));
 598              		.loc 1 401 0
 599 0048 FB7B     		ldrb	r3, [r7, #15]
 600 004a 03F00F03 		and	r3, r3, #15
 601 004e FB73     		strb	r3, [r7, #15]
 402:API/I2C_CLCD.c **** 	I2C_CLCD_MasterWriteByte(data);
 602              		.loc 1 402 0
 603 0050 FB7B     		ldrb	r3, [r7, #15]	@ zero_extendqisi2
 604 0052 1846     		mov	r0, r3
 605 0054 FFF7FEFF 		bl	I2C_1_MasterWriteByte
 403:API/I2C_CLCD.c **** 
 404:API/I2C_CLCD.c ****     /* Write data, bring E high */
 405:API/I2C_CLCD.c ****     /* for FC-113 data position is 0xF0 */
 406:API/I2C_CLCD.c ****     data |= (I2C_CLCD_E | (nibble << I2C_CLCD_4BIT_DATA_SHIFT));
 606              		.loc 1 406 0
 607 0058 FB79     		ldrb	r3, [r7, #7]
 608 005a 1B01     		lsls	r3, r3, #4
 609 005c DAB2     		uxtb	r2, r3
 610 005e FB7B     		ldrb	r3, [r7, #15]
 611 0060 1343     		orrs	r3, r3, r2
 612 0062 DBB2     		uxtb	r3, r3
 613 0064 43F00403 		orr	r3, r3, #4
 614 0068 FB73     		strb	r3, [r7, #15]
 407:API/I2C_CLCD.c ****  	I2C_CLCD_MasterWriteByte(data);
 615              		.loc 1 407 0
 616 006a FB7B     		ldrb	r3, [r7, #15]	@ zero_extendqisi2
 617 006c 1846     		mov	r0, r3
 618 006e FFF7FEFF 		bl	I2C_1_MasterWriteByte
ARM GAS  C:\Users\koseki\AppData\Local\Temp\ccpKaMvZ.s 			page 19


 408:API/I2C_CLCD.c **** 
 409:API/I2C_CLCD.c ****     /* Minimum of 230 ns delay */
 410:API/I2C_CLCD.c ****     CyDelayUs(1u);
 619              		.loc 1 410 0
 620 0072 0120     		movs	r0, #1
 621 0074 FFF7FEFF 		bl	CyDelayUs
 411:API/I2C_CLCD.c **** 
 412:API/I2C_CLCD.c ****     data &= ((uint8)(~I2C_CLCD_E));
 622              		.loc 1 412 0
 623 0078 FB7B     		ldrb	r3, [r7, #15]
 624 007a 23F00403 		bic	r3, r3, #4
 625 007e FB73     		strb	r3, [r7, #15]
 413:API/I2C_CLCD.c **** 	I2C_CLCD_MasterWriteByte(data);
 626              		.loc 1 413 0
 627 0080 FB7B     		ldrb	r3, [r7, #15]	@ zero_extendqisi2
 628 0082 1846     		mov	r0, r3
 629 0084 FFF7FEFF 		bl	I2C_1_MasterWriteByte
 414:API/I2C_CLCD.c **** 
 415:API/I2C_CLCD.c ****     CyDelayUs(1u);
 630              		.loc 1 415 0
 631 0088 0120     		movs	r0, #1
 632 008a FFF7FEFF 		bl	CyDelayUs
 416:API/I2C_CLCD.c ****     I2C_1_MasterSendStop();
 633              		.loc 1 416 0
 634 008e FFF7FEFF 		bl	I2C_1_MasterSendStop
 417:API/I2C_CLCD.c **** }
 635              		.loc 1 417 0
 636 0092 00BF     		nop
 637 0094 1037     		adds	r7, r7, #16
 638              		.cfi_def_cfa_offset 8
 639 0096 BD46     		mov	sp, r7
 640              		.cfi_def_cfa_register 13
 641              		@ sp needed
 642 0098 80BD     		pop	{r7, pc}
 643              	.L30:
 644 009a 00BF     		.align	2
 645              	.L29:
 646 009c 00000000 		.word	I2C_CLCD_BackLight
 647 00a0 00000000 		.word	slaveAddress
 648              		.cfi_endproc
 649              	.LFE10:
 650              		.size	I2C_CLCD_WrDatNib, .-I2C_CLCD_WrDatNib
 651              		.section	.text.I2C_CLCD_WrCntrlNib,"ax",%progbits
 652              		.align	2
 653              		.thumb
 654              		.thumb_func
 655              		.type	I2C_CLCD_WrCntrlNib, %function
 656              	I2C_CLCD_WrCntrlNib:
 657              	.LFB11:
 418:API/I2C_CLCD.c **** 
 419:API/I2C_CLCD.c **** 
 420:API/I2C_CLCD.c **** /*******************************************************************************
 421:API/I2C_CLCD.c **** *  Function Name: I2C_CLCD_WrCntrlNib
 422:API/I2C_CLCD.c **** ********************************************************************************
 423:API/I2C_CLCD.c **** *
 424:API/I2C_CLCD.c **** * Summary:
 425:API/I2C_CLCD.c **** *  Writes a control nibble to the LCD module.
ARM GAS  C:\Users\koseki\AppData\Local\Temp\ccpKaMvZ.s 			page 20


 426:API/I2C_CLCD.c **** *
 427:API/I2C_CLCD.c **** * Parameters:
 428:API/I2C_CLCD.c **** *  nibble: The byte containing a nibble in the four least significant bits.????
 429:API/I2C_CLCD.c **** *
 430:API/I2C_CLCD.c **** * Return:
 431:API/I2C_CLCD.c **** *  None.
 432:API/I2C_CLCD.c **** *
 433:API/I2C_CLCD.c **** *******************************************************************************/
 434:API/I2C_CLCD.c **** static void I2C_CLCD_WrCntrlNib(uint8 nibble) 
 435:API/I2C_CLCD.c **** {
 658              		.loc 1 435 0
 659              		.cfi_startproc
 660              		@ args = 0, pretend = 0, frame = 16
 661              		@ frame_needed = 1, uses_anonymous_args = 0
 662 0000 80B5     		push	{r7, lr}
 663              		.cfi_def_cfa_offset 8
 664              		.cfi_offset 7, -8
 665              		.cfi_offset 14, -4
 666 0002 84B0     		sub	sp, sp, #16
 667              		.cfi_def_cfa_offset 24
 668 0004 00AF     		add	r7, sp, #0
 669              		.cfi_def_cfa_register 7
 670 0006 0346     		mov	r3, r0
 671 0008 FB71     		strb	r3, [r7, #7]
 436:API/I2C_CLCD.c **** 	uint8 data = I2C_CLCD_BackLight;
 672              		.loc 1 436 0
 673 000a 1E4B     		ldr	r3, .L32
 674 000c 1B78     		ldrb	r3, [r3]
 675 000e FB73     		strb	r3, [r7, #15]
 437:API/I2C_CLCD.c ****     
 438:API/I2C_CLCD.c ****     I2C_CLCD_MasterSendStart(slaveAddress, I2C_WRITE);
 676              		.loc 1 438 0
 677 0010 1D4B     		ldr	r3, .L32+4
 678 0012 1B78     		ldrb	r3, [r3]	@ zero_extendqisi2
 679 0014 0021     		movs	r1, #0
 680 0016 1846     		mov	r0, r3
 681 0018 FFF7FEFF 		bl	I2C_1_MasterSendStart
 439:API/I2C_CLCD.c ****     CyDelayUs(1u);
 682              		.loc 1 439 0
 683 001c 0120     		movs	r0, #1
 684 001e FFF7FEFF 		bl	CyDelayUs
 440:API/I2C_CLCD.c **** 
 441:API/I2C_CLCD.c ****     /* RS and RW should be low to select instruction register and  write operation respectively */
 442:API/I2C_CLCD.c ****     data |= ((uint8)(~(I2C_CLCD_RS | I2C_CLCD_RW)));
 685              		.loc 1 442 0
 686 0022 FB7B     		ldrb	r3, [r7, #15]
 687 0024 63F00303 		orn	r3, r3, #3
 688 0028 FB73     		strb	r3, [r7, #15]
 443:API/I2C_CLCD.c **** 	I2C_CLCD_MasterWriteByte(data);
 689              		.loc 1 443 0
 690 002a FB7B     		ldrb	r3, [r7, #15]	@ zero_extendqisi2
 691 002c 1846     		mov	r0, r3
 692 002e FFF7FEFF 		bl	I2C_1_MasterWriteByte
 444:API/I2C_CLCD.c **** 
 445:API/I2C_CLCD.c ****     /* Two following lines of code will give 40ns delay */
 446:API/I2C_CLCD.c ****     /* Clear data pins */
 447:API/I2C_CLCD.c ****     data &= ((uint8)(~I2C_CLCD_DATA_MASK));
ARM GAS  C:\Users\koseki\AppData\Local\Temp\ccpKaMvZ.s 			page 21


 693              		.loc 1 447 0
 694 0032 FB7B     		ldrb	r3, [r7, #15]
 695 0034 03F00F03 		and	r3, r3, #15
 696 0038 FB73     		strb	r3, [r7, #15]
 448:API/I2C_CLCD.c **** 	I2C_CLCD_MasterWriteByte(data);
 697              		.loc 1 448 0
 698 003a FB7B     		ldrb	r3, [r7, #15]	@ zero_extendqisi2
 699 003c 1846     		mov	r0, r3
 700 003e FFF7FEFF 		bl	I2C_1_MasterWriteByte
 449:API/I2C_CLCD.c **** 
 450:API/I2C_CLCD.c ****     /* for FC-113 data position is 0xF0 */
 451:API/I2C_CLCD.c ****     data |= (I2C_CLCD_E | (nibble << I2C_CLCD_4BIT_DATA_SHIFT));
 701              		.loc 1 451 0
 702 0042 FB79     		ldrb	r3, [r7, #7]
 703 0044 1B01     		lsls	r3, r3, #4
 704 0046 DAB2     		uxtb	r2, r3
 705 0048 FB7B     		ldrb	r3, [r7, #15]
 706 004a 1343     		orrs	r3, r3, r2
 707 004c DBB2     		uxtb	r3, r3
 708 004e 43F00403 		orr	r3, r3, #4
 709 0052 FB73     		strb	r3, [r7, #15]
 452:API/I2C_CLCD.c **** 	I2C_CLCD_MasterWriteByte(data);
 710              		.loc 1 452 0
 711 0054 FB7B     		ldrb	r3, [r7, #15]	@ zero_extendqisi2
 712 0056 1846     		mov	r0, r3
 713 0058 FFF7FEFF 		bl	I2C_1_MasterWriteByte
 453:API/I2C_CLCD.c **** 
 454:API/I2C_CLCD.c ****     /* Minimum of 230 ns delay */
 455:API/I2C_CLCD.c ****     CyDelayUs(1u);
 714              		.loc 1 455 0
 715 005c 0120     		movs	r0, #1
 716 005e FFF7FEFF 		bl	CyDelayUs
 456:API/I2C_CLCD.c **** 
 457:API/I2C_CLCD.c ****     data &= ((uint8)(~I2C_CLCD_E));
 717              		.loc 1 457 0
 718 0062 FB7B     		ldrb	r3, [r7, #15]
 719 0064 23F00403 		bic	r3, r3, #4
 720 0068 FB73     		strb	r3, [r7, #15]
 458:API/I2C_CLCD.c **** 	I2C_CLCD_MasterWriteByte(data);
 721              		.loc 1 458 0
 722 006a FB7B     		ldrb	r3, [r7, #15]	@ zero_extendqisi2
 723 006c 1846     		mov	r0, r3
 724 006e FFF7FEFF 		bl	I2C_1_MasterWriteByte
 459:API/I2C_CLCD.c ****     
 460:API/I2C_CLCD.c ****     CyDelayUs(1u);
 725              		.loc 1 460 0
 726 0072 0120     		movs	r0, #1
 727 0074 FFF7FEFF 		bl	CyDelayUs
 461:API/I2C_CLCD.c ****     I2C_1_MasterSendStop();
 728              		.loc 1 461 0
 729 0078 FFF7FEFF 		bl	I2C_1_MasterSendStop
 462:API/I2C_CLCD.c **** }
 730              		.loc 1 462 0
 731 007c 00BF     		nop
 732 007e 1037     		adds	r7, r7, #16
 733              		.cfi_def_cfa_offset 8
 734 0080 BD46     		mov	sp, r7
ARM GAS  C:\Users\koseki\AppData\Local\Temp\ccpKaMvZ.s 			page 22


 735              		.cfi_def_cfa_register 13
 736              		@ sp needed
 737 0082 80BD     		pop	{r7, pc}
 738              	.L33:
 739              		.align	2
 740              	.L32:
 741 0084 00000000 		.word	I2C_CLCD_BackLight
 742 0088 00000000 		.word	slaveAddress
 743              		.cfi_endproc
 744              	.LFE11:
 745              		.size	I2C_CLCD_WrCntrlNib, .-I2C_CLCD_WrCntrlNib
 746              		.section	.text.I2C_CLCD_PrintInt8,"ax",%progbits
 747              		.align	2
 748              		.global	I2C_CLCD_PrintInt8
 749              		.thumb
 750              		.thumb_func
 751              		.type	I2C_CLCD_PrintInt8, %function
 752              	I2C_CLCD_PrintInt8:
 753              	.LFB12:
 463:API/I2C_CLCD.c **** 
 464:API/I2C_CLCD.c **** #if(I2C_CLCD_CONVERSION_ROUTINES == 1u)
 465:API/I2C_CLCD.c **** 
 466:API/I2C_CLCD.c ****     /*******************************************************************************
 467:API/I2C_CLCD.c ****     *  Function Name: I2C_CLCD_PrintInt8
 468:API/I2C_CLCD.c ****     ********************************************************************************
 469:API/I2C_CLCD.c ****     *
 470:API/I2C_CLCD.c ****     * Summary:
 471:API/I2C_CLCD.c ****     *  Print a byte as two ASCII characters.
 472:API/I2C_CLCD.c ****     *
 473:API/I2C_CLCD.c ****     * Parameters:
 474:API/I2C_CLCD.c ****     *  value: The byte to be printed out as ASCII characters.
 475:API/I2C_CLCD.c ****     *
 476:API/I2C_CLCD.c ****     * Return:
 477:API/I2C_CLCD.c ****     *  None.
 478:API/I2C_CLCD.c ****     *
 479:API/I2C_CLCD.c ****     *******************************************************************************/
 480:API/I2C_CLCD.c ****     void I2C_CLCD_PrintInt8(uint8 value) 
 481:API/I2C_CLCD.c ****     {
 754              		.loc 1 481 0
 755              		.cfi_startproc
 756              		@ args = 0, pretend = 0, frame = 8
 757              		@ frame_needed = 1, uses_anonymous_args = 0
 758 0000 80B5     		push	{r7, lr}
 759              		.cfi_def_cfa_offset 8
 760              		.cfi_offset 7, -8
 761              		.cfi_offset 14, -4
 762 0002 82B0     		sub	sp, sp, #8
 763              		.cfi_def_cfa_offset 16
 764 0004 00AF     		add	r7, sp, #0
 765              		.cfi_def_cfa_register 7
 766 0006 0346     		mov	r3, r0
 767 0008 FB71     		strb	r3, [r7, #7]
 482:API/I2C_CLCD.c ****         static char8 const CYCODE I2C_CLCD_hex[16u] = "0123456789ABCDEF";
 483:API/I2C_CLCD.c ****         
 484:API/I2C_CLCD.c ****         I2C_CLCD_PutChar((char8) I2C_CLCD_hex[value >> I2C_CLCD_BYTE_UPPER_NIBBLE_SHIFT]);
 768              		.loc 1 484 0
 769 000a FB79     		ldrb	r3, [r7, #7]	@ zero_extendqisi2
ARM GAS  C:\Users\koseki\AppData\Local\Temp\ccpKaMvZ.s 			page 23


 770 000c 1B09     		lsrs	r3, r3, #4
 771 000e DBB2     		uxtb	r3, r3
 772 0010 1A46     		mov	r2, r3
 773 0012 084B     		ldr	r3, .L35
 774 0014 9B5C     		ldrb	r3, [r3, r2]	@ zero_extendqisi2
 775 0016 1846     		mov	r0, r3
 776 0018 FFF7FEFF 		bl	I2C_CLCD_PutChar
 485:API/I2C_CLCD.c ****         I2C_CLCD_PutChar((char8) I2C_CLCD_hex[value & I2C_CLCD_BYTE_LOWER_NIBBLE_MASK]);
 777              		.loc 1 485 0
 778 001c FB79     		ldrb	r3, [r7, #7]	@ zero_extendqisi2
 779 001e 03F00F03 		and	r3, r3, #15
 780 0022 044A     		ldr	r2, .L35
 781 0024 D35C     		ldrb	r3, [r2, r3]	@ zero_extendqisi2
 782 0026 1846     		mov	r0, r3
 783 0028 FFF7FEFF 		bl	I2C_CLCD_PutChar
 486:API/I2C_CLCD.c ****     }
 784              		.loc 1 486 0
 785 002c 00BF     		nop
 786 002e 0837     		adds	r7, r7, #8
 787              		.cfi_def_cfa_offset 8
 788 0030 BD46     		mov	sp, r7
 789              		.cfi_def_cfa_register 13
 790              		@ sp needed
 791 0032 80BD     		pop	{r7, pc}
 792              	.L36:
 793              		.align	2
 794              	.L35:
 795 0034 00000000 		.word	I2C_CLCD_hex.5090
 796              		.cfi_endproc
 797              	.LFE12:
 798              		.size	I2C_CLCD_PrintInt8, .-I2C_CLCD_PrintInt8
 799              		.section	.text.I2C_CLCD_PrintInt16,"ax",%progbits
 800              		.align	2
 801              		.global	I2C_CLCD_PrintInt16
 802              		.thumb
 803              		.thumb_func
 804              		.type	I2C_CLCD_PrintInt16, %function
 805              	I2C_CLCD_PrintInt16:
 806              	.LFB13:
 487:API/I2C_CLCD.c **** 
 488:API/I2C_CLCD.c **** 
 489:API/I2C_CLCD.c ****     /*******************************************************************************
 490:API/I2C_CLCD.c ****     *  Function Name: I2C_CLCD_PrintInt16
 491:API/I2C_CLCD.c ****     ********************************************************************************
 492:API/I2C_CLCD.c ****     *
 493:API/I2C_CLCD.c ****     * Summary:
 494:API/I2C_CLCD.c ****     *  Print a uint16 as four ASCII characters.
 495:API/I2C_CLCD.c ****     *
 496:API/I2C_CLCD.c ****     * Parameters:
 497:API/I2C_CLCD.c ****     *  value: The uint16 to be printed out as ASCII characters.
 498:API/I2C_CLCD.c ****     *
 499:API/I2C_CLCD.c ****     * Return:
 500:API/I2C_CLCD.c ****     *  None.
 501:API/I2C_CLCD.c ****     *
 502:API/I2C_CLCD.c ****     *******************************************************************************/
 503:API/I2C_CLCD.c ****     void I2C_CLCD_PrintInt16(uint16 value) 
 504:API/I2C_CLCD.c ****     {
ARM GAS  C:\Users\koseki\AppData\Local\Temp\ccpKaMvZ.s 			page 24


 807              		.loc 1 504 0
 808              		.cfi_startproc
 809              		@ args = 0, pretend = 0, frame = 8
 810              		@ frame_needed = 1, uses_anonymous_args = 0
 811 0000 80B5     		push	{r7, lr}
 812              		.cfi_def_cfa_offset 8
 813              		.cfi_offset 7, -8
 814              		.cfi_offset 14, -4
 815 0002 82B0     		sub	sp, sp, #8
 816              		.cfi_def_cfa_offset 16
 817 0004 00AF     		add	r7, sp, #0
 818              		.cfi_def_cfa_register 7
 819 0006 0346     		mov	r3, r0
 820 0008 FB80     		strh	r3, [r7, #6]	@ movhi
 505:API/I2C_CLCD.c ****         I2C_CLCD_PrintInt8((uint8)(value >> I2C_CLCD_U16_UPPER_BYTE_SHIFT));
 821              		.loc 1 505 0
 822 000a FB88     		ldrh	r3, [r7, #6]
 823 000c 1B0A     		lsrs	r3, r3, #8
 824 000e 9BB2     		uxth	r3, r3
 825 0010 DBB2     		uxtb	r3, r3
 826 0012 1846     		mov	r0, r3
 827 0014 FFF7FEFF 		bl	I2C_CLCD_PrintInt8
 506:API/I2C_CLCD.c ****         I2C_CLCD_PrintInt8((uint8)(value & I2C_CLCD_U16_LOWER_BYTE_MASK));
 828              		.loc 1 506 0
 829 0018 FB88     		ldrh	r3, [r7, #6]	@ movhi
 830 001a DBB2     		uxtb	r3, r3
 831 001c 1846     		mov	r0, r3
 832 001e FFF7FEFF 		bl	I2C_CLCD_PrintInt8
 507:API/I2C_CLCD.c ****     }
 833              		.loc 1 507 0
 834 0022 00BF     		nop
 835 0024 0837     		adds	r7, r7, #8
 836              		.cfi_def_cfa_offset 8
 837 0026 BD46     		mov	sp, r7
 838              		.cfi_def_cfa_register 13
 839              		@ sp needed
 840 0028 80BD     		pop	{r7, pc}
 841              		.cfi_endproc
 842              	.LFE13:
 843              		.size	I2C_CLCD_PrintInt16, .-I2C_CLCD_PrintInt16
 844 002a 00BF     		.section	.text.I2C_CLCD_PrintInt32,"ax",%progbits
 845              		.align	2
 846              		.global	I2C_CLCD_PrintInt32
 847              		.thumb
 848              		.thumb_func
 849              		.type	I2C_CLCD_PrintInt32, %function
 850              	I2C_CLCD_PrintInt32:
 851              	.LFB14:
 508:API/I2C_CLCD.c **** 
 509:API/I2C_CLCD.c ****     
 510:API/I2C_CLCD.c ****     /*******************************************************************************
 511:API/I2C_CLCD.c ****     *  Function Name: I2C_CLCD_PrintInt32
 512:API/I2C_CLCD.c ****     ********************************************************************************
 513:API/I2C_CLCD.c ****     *
 514:API/I2C_CLCD.c ****     * Summary:
 515:API/I2C_CLCD.c ****     *  Print a uint32 hexadecimal number as eight ASCII characters.
 516:API/I2C_CLCD.c ****     *
ARM GAS  C:\Users\koseki\AppData\Local\Temp\ccpKaMvZ.s 			page 25


 517:API/I2C_CLCD.c ****     * Parameters:
 518:API/I2C_CLCD.c ****     *  value: The uint32 to be printed out as ASCII characters.
 519:API/I2C_CLCD.c ****     *
 520:API/I2C_CLCD.c ****     * Return:
 521:API/I2C_CLCD.c ****     *  None.
 522:API/I2C_CLCD.c ****     *
 523:API/I2C_CLCD.c ****     *******************************************************************************/
 524:API/I2C_CLCD.c ****     void I2C_CLCD_PrintInt32(uint32 value) 
 525:API/I2C_CLCD.c ****     {
 852              		.loc 1 525 0
 853              		.cfi_startproc
 854              		@ args = 0, pretend = 0, frame = 16
 855              		@ frame_needed = 1, uses_anonymous_args = 0
 856 0000 80B5     		push	{r7, lr}
 857              		.cfi_def_cfa_offset 8
 858              		.cfi_offset 7, -8
 859              		.cfi_offset 14, -4
 860 0002 84B0     		sub	sp, sp, #16
 861              		.cfi_def_cfa_offset 24
 862 0004 00AF     		add	r7, sp, #0
 863              		.cfi_def_cfa_register 7
 864 0006 7860     		str	r0, [r7, #4]
 526:API/I2C_CLCD.c ****         uint8 shift = I2C_CLCD_32_BIT_SHIFT;
 865              		.loc 1 526 0
 866 0008 2023     		movs	r3, #32
 867 000a FB73     		strb	r3, [r7, #15]
 527:API/I2C_CLCD.c ****         
 528:API/I2C_CLCD.c ****         while (shift != 0u)
 868              		.loc 1 528 0
 869 000c 0AE0     		b	.L39
 870              	.L40:
 529:API/I2C_CLCD.c ****         {
 530:API/I2C_CLCD.c ****             /* "shift" var should be subtracted by 8 prior shifting. This implements 
 531:API/I2C_CLCD.c ****             * shifting by 24, 16, 8 and 0u. 
 532:API/I2C_CLCD.c ****             */
 533:API/I2C_CLCD.c ****             shift -= I2C_CLCD_8_BIT_SHIFT;
 871              		.loc 1 533 0
 872 000e FB7B     		ldrb	r3, [r7, #15]
 873 0010 083B     		subs	r3, r3, #8
 874 0012 FB73     		strb	r3, [r7, #15]
 534:API/I2C_CLCD.c ****             
 535:API/I2C_CLCD.c ****             /* Print 8 bits of uint32 hex number */
 536:API/I2C_CLCD.c ****             I2C_CLCD_PrintInt8((uint8) ((uint32) (value >> shift)));
 875              		.loc 1 536 0
 876 0014 FB7B     		ldrb	r3, [r7, #15]	@ zero_extendqisi2
 877 0016 7A68     		ldr	r2, [r7, #4]
 878 0018 22FA03F3 		lsr	r3, r2, r3
 879 001c DBB2     		uxtb	r3, r3
 880 001e 1846     		mov	r0, r3
 881 0020 FFF7FEFF 		bl	I2C_CLCD_PrintInt8
 882              	.L39:
 528:API/I2C_CLCD.c ****         {
 883              		.loc 1 528 0
 884 0024 FB7B     		ldrb	r3, [r7, #15]	@ zero_extendqisi2
 885 0026 002B     		cmp	r3, #0
 886 0028 F1D1     		bne	.L40
 537:API/I2C_CLCD.c ****         }
ARM GAS  C:\Users\koseki\AppData\Local\Temp\ccpKaMvZ.s 			page 26


 538:API/I2C_CLCD.c ****     }
 887              		.loc 1 538 0
 888 002a 00BF     		nop
 889 002c 1037     		adds	r7, r7, #16
 890              		.cfi_def_cfa_offset 8
 891 002e BD46     		mov	sp, r7
 892              		.cfi_def_cfa_register 13
 893              		@ sp needed
 894 0030 80BD     		pop	{r7, pc}
 895              		.cfi_endproc
 896              	.LFE14:
 897              		.size	I2C_CLCD_PrintInt32, .-I2C_CLCD_PrintInt32
 898 0032 00BF     		.section	.text.I2C_CLCD_PrintU32Number,"ax",%progbits
 899              		.align	2
 900              		.global	I2C_CLCD_PrintU32Number
 901              		.thumb
 902              		.thumb_func
 903              		.type	I2C_CLCD_PrintU32Number, %function
 904              	I2C_CLCD_PrintU32Number:
 905              	.LFB15:
 539:API/I2C_CLCD.c ****     
 540:API/I2C_CLCD.c ****     
 541:API/I2C_CLCD.c ****     /*******************************************************************************
 542:API/I2C_CLCD.c ****     *  Function Name: I2C_CLCD_PrintNumber
 543:API/I2C_CLCD.c ****     ********************************************************************************
 544:API/I2C_CLCD.c ****     *
 545:API/I2C_CLCD.c ****     * Summary:
 546:API/I2C_CLCD.c ****     *  Print an uint16 value as a left-justified decimal value.
 547:API/I2C_CLCD.c ****     *
 548:API/I2C_CLCD.c ****     * Parameters:
 549:API/I2C_CLCD.c ****     *  value: A 16-bit value to be printed in ASCII characters as a decimal number
 550:API/I2C_CLCD.c ****     *
 551:API/I2C_CLCD.c ****     * Return:
 552:API/I2C_CLCD.c ****     *  None.
 553:API/I2C_CLCD.c ****     *
 554:API/I2C_CLCD.c ****     * Note:
 555:API/I2C_CLCD.c ****     *  This function is implemented as a macro.
 556:API/I2C_CLCD.c ****     *
 557:API/I2C_CLCD.c ****     *******************************************************************************/
 558:API/I2C_CLCD.c **** 
 559:API/I2C_CLCD.c ****     
 560:API/I2C_CLCD.c ****     /*******************************************************************************
 561:API/I2C_CLCD.c ****     *  Function Name: I2C_CLCD_PrintU32Number
 562:API/I2C_CLCD.c ****     ********************************************************************************
 563:API/I2C_CLCD.c ****     *
 564:API/I2C_CLCD.c ****     * Summary:
 565:API/I2C_CLCD.c ****     *  Print an uint32 value as a left-justified decimal value.
 566:API/I2C_CLCD.c ****     *
 567:API/I2C_CLCD.c ****     * Parameters:
 568:API/I2C_CLCD.c ****     *  value: A 32-bit value to be printed in ASCII characters as a decimal number
 569:API/I2C_CLCD.c ****     *
 570:API/I2C_CLCD.c ****     * Return:
 571:API/I2C_CLCD.c ****     *  None.
 572:API/I2C_CLCD.c ****     *
 573:API/I2C_CLCD.c ****     *******************************************************************************/
 574:API/I2C_CLCD.c ****     void I2C_CLCD_PrintU32Number(uint32 value) 
 575:API/I2C_CLCD.c ****     {
ARM GAS  C:\Users\koseki\AppData\Local\Temp\ccpKaMvZ.s 			page 27


 906              		.loc 1 575 0
 907              		.cfi_startproc
 908              		@ args = 0, pretend = 0, frame = 24
 909              		@ frame_needed = 1, uses_anonymous_args = 0
 910 0000 80B5     		push	{r7, lr}
 911              		.cfi_def_cfa_offset 8
 912              		.cfi_offset 7, -8
 913              		.cfi_offset 14, -4
 914 0002 86B0     		sub	sp, sp, #24
 915              		.cfi_def_cfa_offset 32
 916 0004 00AF     		add	r7, sp, #0
 917              		.cfi_def_cfa_register 7
 918 0006 7860     		str	r0, [r7, #4]
 576:API/I2C_CLCD.c ****         uint8 tmpDigit;
 577:API/I2C_CLCD.c ****         char8 number[I2C_CLCD_NUMBER_OF_REMAINDERS_U32 + 1u];
 578:API/I2C_CLCD.c ****         uint8 digIndex = I2C_CLCD_NUMBER_OF_REMAINDERS_U32;
 919              		.loc 1 578 0
 920 0008 0A23     		movs	r3, #10
 921 000a FB75     		strb	r3, [r7, #23]
 579:API/I2C_CLCD.c ****         
 580:API/I2C_CLCD.c ****         /* This API will output a decimal number as a string and that string will be 
 581:API/I2C_CLCD.c ****         * filled from end to start. Set Null termination character first.
 582:API/I2C_CLCD.c ****         */
 583:API/I2C_CLCD.c ****         number[digIndex] = (char8) '\0';
 922              		.loc 1 583 0
 923 000c FB7D     		ldrb	r3, [r7, #23]	@ zero_extendqisi2
 924 000e 07F11802 		add	r2, r7, #24
 925 0012 1344     		add	r3, r3, r2
 926 0014 0022     		movs	r2, #0
 927 0016 03F8102C 		strb	r2, [r3, #-16]
 584:API/I2C_CLCD.c ****         digIndex--;
 928              		.loc 1 584 0
 929 001a FB7D     		ldrb	r3, [r7, #23]	@ zero_extendqisi2
 930 001c 013B     		subs	r3, r3, #1
 931 001e FB75     		strb	r3, [r7, #23]
 585:API/I2C_CLCD.c ****         
 586:API/I2C_CLCD.c ****         /* Load these in reverse order */
 587:API/I2C_CLCD.c ****         while(value >= I2C_CLCD_TEN)
 932              		.loc 1 587 0
 933 0020 1CE0     		b	.L42
 934              	.L43:
 588:API/I2C_CLCD.c ****         {
 589:API/I2C_CLCD.c ****             /* Extract decimal digit, indexed by 'digIndex', from 'value' and
 590:API/I2C_CLCD.c ****             * convert it to ASCII character.
 591:API/I2C_CLCD.c ****             */
 592:API/I2C_CLCD.c ****             tmpDigit = (uint8) (((uint8) (value % I2C_CLCD_TEN)) + (uint8) I2C_CLCD_ZERO_CHAR_ASCII
 935              		.loc 1 592 0
 936 0022 7968     		ldr	r1, [r7, #4]
 937 0024 1E4B     		ldr	r3, .L44
 938 0026 A3FB0123 		umull	r2, r3, r3, r1
 939 002a DA08     		lsrs	r2, r3, #3
 940 002c 1346     		mov	r3, r2
 941 002e 9B00     		lsls	r3, r3, #2
 942 0030 1344     		add	r3, r3, r2
 943 0032 5B00     		lsls	r3, r3, #1
 944 0034 CA1A     		subs	r2, r1, r3
 945 0036 D3B2     		uxtb	r3, r2
ARM GAS  C:\Users\koseki\AppData\Local\Temp\ccpKaMvZ.s 			page 28


 946 0038 3033     		adds	r3, r3, #48
 947 003a BB75     		strb	r3, [r7, #22]
 593:API/I2C_CLCD.c ****             
 594:API/I2C_CLCD.c ****             /* Temporary variable 'tmpDigit' is used to avoid Violation of MISRA rule 
 595:API/I2C_CLCD.c ****             * #10.3.
 596:API/I2C_CLCD.c ****             */
 597:API/I2C_CLCD.c ****             number[digIndex] = (char8) tmpDigit;
 948              		.loc 1 597 0
 949 003c FB7D     		ldrb	r3, [r7, #23]	@ zero_extendqisi2
 950 003e 07F11802 		add	r2, r7, #24
 951 0042 1344     		add	r3, r3, r2
 952 0044 BA7D     		ldrb	r2, [r7, #22]
 953 0046 03F8102C 		strb	r2, [r3, #-16]
 598:API/I2C_CLCD.c ****             value /= I2C_CLCD_TEN;
 954              		.loc 1 598 0
 955 004a 7B68     		ldr	r3, [r7, #4]
 956 004c 144A     		ldr	r2, .L44
 957 004e A2FB0323 		umull	r2, r3, r2, r3
 958 0052 DB08     		lsrs	r3, r3, #3
 959 0054 7B60     		str	r3, [r7, #4]
 599:API/I2C_CLCD.c ****             digIndex--;
 960              		.loc 1 599 0
 961 0056 FB7D     		ldrb	r3, [r7, #23]	@ zero_extendqisi2
 962 0058 013B     		subs	r3, r3, #1
 963 005a FB75     		strb	r3, [r7, #23]
 964              	.L42:
 587:API/I2C_CLCD.c ****         {
 965              		.loc 1 587 0
 966 005c 7B68     		ldr	r3, [r7, #4]
 967 005e 092B     		cmp	r3, #9
 968 0060 DFD8     		bhi	.L43
 600:API/I2C_CLCD.c ****         }
 601:API/I2C_CLCD.c ****         
 602:API/I2C_CLCD.c ****         /* Extract last decimal digit 'digIndex', from the 'value' and convert it
 603:API/I2C_CLCD.c ****         * to ASCII character.
 604:API/I2C_CLCD.c ****         */
 605:API/I2C_CLCD.c ****         tmpDigit = (uint8) (((uint8)(value % I2C_CLCD_TEN)) + (uint8) I2C_CLCD_ZERO_CHAR_ASCII);
 969              		.loc 1 605 0
 970 0062 7968     		ldr	r1, [r7, #4]
 971 0064 0E4B     		ldr	r3, .L44
 972 0066 A3FB0123 		umull	r2, r3, r3, r1
 973 006a DA08     		lsrs	r2, r3, #3
 974 006c 1346     		mov	r3, r2
 975 006e 9B00     		lsls	r3, r3, #2
 976 0070 1344     		add	r3, r3, r2
 977 0072 5B00     		lsls	r3, r3, #1
 978 0074 CA1A     		subs	r2, r1, r3
 979 0076 D3B2     		uxtb	r3, r2
 980 0078 3033     		adds	r3, r3, #48
 981 007a BB75     		strb	r3, [r7, #22]
 606:API/I2C_CLCD.c ****         number[digIndex] = (char8) tmpDigit;
 982              		.loc 1 606 0
 983 007c FB7D     		ldrb	r3, [r7, #23]	@ zero_extendqisi2
 984 007e 07F11802 		add	r2, r7, #24
 985 0082 1344     		add	r3, r3, r2
 986 0084 BA7D     		ldrb	r2, [r7, #22]
 987 0086 03F8102C 		strb	r2, [r3, #-16]
ARM GAS  C:\Users\koseki\AppData\Local\Temp\ccpKaMvZ.s 			page 29


 607:API/I2C_CLCD.c **** 
 608:API/I2C_CLCD.c ****         /* Print out number */
 609:API/I2C_CLCD.c ****         I2C_CLCD_PrintString(&number[digIndex]);
 988              		.loc 1 609 0
 989 008a FB7D     		ldrb	r3, [r7, #23]	@ zero_extendqisi2
 990 008c 07F10802 		add	r2, r7, #8
 991 0090 1344     		add	r3, r3, r2
 992 0092 1846     		mov	r0, r3
 993 0094 FFF7FEFF 		bl	I2C_CLCD_PrintString
 610:API/I2C_CLCD.c ****     }
 994              		.loc 1 610 0
 995 0098 00BF     		nop
 996 009a 1837     		adds	r7, r7, #24
 997              		.cfi_def_cfa_offset 8
 998 009c BD46     		mov	sp, r7
 999              		.cfi_def_cfa_register 13
 1000              		@ sp needed
 1001 009e 80BD     		pop	{r7, pc}
 1002              	.L45:
 1003              		.align	2
 1004              	.L44:
 1005 00a0 CDCCCCCC 		.word	-858993459
 1006              		.cfi_endproc
 1007              	.LFE15:
 1008              		.size	I2C_CLCD_PrintU32Number, .-I2C_CLCD_PrintU32Number
 1009              		.section	.rodata
 1010              		.align	2
 1011              		.type	I2C_CLCD_hex.5090, %object
 1012              		.size	I2C_CLCD_hex.5090, 16
 1013              	I2C_CLCD_hex.5090:
 1014 0000 30313233 		.ascii	"0123456789ABCDEF"
 1014      34353637 
 1014      38394142 
 1014      43444546 
 1015              		.text
 1016              	.Letext0:
 1017              		.file 2 "Generated_Source\\PSoC5/cytypes.h"