ARM GAS  C:\Users\koseki\AppData\Local\Temp\ccDuPQ7w.s 			page 1


   1              		.syntax unified
   2              		.cpu cortex-m3
   3              		.fpu softvfp
   4              		.eabi_attribute 20, 1
   5              		.eabi_attribute 21, 1
   6              		.eabi_attribute 23, 3
   7              		.eabi_attribute 24, 1
   8              		.eabi_attribute 25, 1
   9              		.eabi_attribute 26, 1
  10              		.eabi_attribute 30, 6
  11              		.eabi_attribute 34, 1
  12              		.eabi_attribute 18, 4
  13              		.thumb
  14              		.syntax unified
  15              		.file	"list.c"
  16              		.text
  17              	.Ltext0:
  18              		.cfi_sections	.debug_frame
  19              		.section	.text.vListInitialise,"ax",%progbits
  20              		.align	2
  21              		.global	vListInitialise
  22              		.thumb
  23              		.thumb_func
  24              		.type	vListInitialise, %function
  25              	vListInitialise:
  26              	.LFB64:
  27              		.file 1 "FreeRTOS\\list.c"
   1:FreeRTOS/list.c **** /*
   2:FreeRTOS/list.c ****     FreeRTOS V8.2.3 - Copyright (C) 2015 Real Time Engineers Ltd.
   3:FreeRTOS/list.c ****     All rights reserved
   4:FreeRTOS/list.c **** 
   5:FreeRTOS/list.c ****     VISIT http://www.FreeRTOS.org TO ENSURE YOU ARE USING THE LATEST VERSION.
   6:FreeRTOS/list.c **** 
   7:FreeRTOS/list.c ****     This file is part of the FreeRTOS distribution.
   8:FreeRTOS/list.c **** 
   9:FreeRTOS/list.c ****     FreeRTOS is free software; you can redistribute it and/or modify it under
  10:FreeRTOS/list.c ****     the terms of the GNU General Public License (version 2) as published by the
  11:FreeRTOS/list.c ****     Free Software Foundation >>>> AND MODIFIED BY <<<< the FreeRTOS exception.
  12:FreeRTOS/list.c **** 
  13:FreeRTOS/list.c ****     ***************************************************************************
  14:FreeRTOS/list.c ****     >>!   NOTE: The modification to the GPL is included to allow you to     !<<
  15:FreeRTOS/list.c ****     >>!   distribute a combined work that includes FreeRTOS without being   !<<
  16:FreeRTOS/list.c ****     >>!   obliged to provide the source code for proprietary components     !<<
  17:FreeRTOS/list.c ****     >>!   outside of the FreeRTOS kernel.                                   !<<
  18:FreeRTOS/list.c ****     ***************************************************************************
  19:FreeRTOS/list.c **** 
  20:FreeRTOS/list.c ****     FreeRTOS is distributed in the hope that it will be useful, but WITHOUT ANY
  21:FreeRTOS/list.c ****     WARRANTY; without even the implied warranty of MERCHANTABILITY or FITNESS
  22:FreeRTOS/list.c ****     FOR A PARTICULAR PURPOSE.  Full license text is available on the following
  23:FreeRTOS/list.c ****     link: http://www.freertos.org/a00114.html
  24:FreeRTOS/list.c **** 
  25:FreeRTOS/list.c ****     ***************************************************************************
  26:FreeRTOS/list.c ****      *                                                                       *
  27:FreeRTOS/list.c ****      *    FreeRTOS provides completely free yet professionally developed,    *
  28:FreeRTOS/list.c ****      *    robust, strictly quality controlled, supported, and cross          *
  29:FreeRTOS/list.c ****      *    platform software that is more than just the market leader, it     *
  30:FreeRTOS/list.c ****      *    is the industry's de facto standard.                               *
ARM GAS  C:\Users\koseki\AppData\Local\Temp\ccDuPQ7w.s 			page 2


  31:FreeRTOS/list.c ****      *                                                                       *
  32:FreeRTOS/list.c ****      *    Help yourself get started quickly while simultaneously helping     *
  33:FreeRTOS/list.c ****      *    to support the FreeRTOS project by purchasing a FreeRTOS           *
  34:FreeRTOS/list.c ****      *    tutorial book, reference manual, or both:                          *
  35:FreeRTOS/list.c ****      *    http://www.FreeRTOS.org/Documentation                              *
  36:FreeRTOS/list.c ****      *                                                                       *
  37:FreeRTOS/list.c ****     ***************************************************************************
  38:FreeRTOS/list.c **** 
  39:FreeRTOS/list.c ****     http://www.FreeRTOS.org/FAQHelp.html - Having a problem?  Start by reading
  40:FreeRTOS/list.c ****     the FAQ page "My application does not run, what could be wrong?".  Have you
  41:FreeRTOS/list.c ****     defined configASSERT()?
  42:FreeRTOS/list.c **** 
  43:FreeRTOS/list.c ****     http://www.FreeRTOS.org/support - In return for receiving this top quality
  44:FreeRTOS/list.c ****     embedded software for free we request you assist our global community by
  45:FreeRTOS/list.c ****     participating in the support forum.
  46:FreeRTOS/list.c **** 
  47:FreeRTOS/list.c ****     http://www.FreeRTOS.org/training - Investing in training allows your team to
  48:FreeRTOS/list.c ****     be as productive as possible as early as possible.  Now you can receive
  49:FreeRTOS/list.c ****     FreeRTOS training directly from Richard Barry, CEO of Real Time Engineers
  50:FreeRTOS/list.c ****     Ltd, and the world's leading authority on the world's leading RTOS.
  51:FreeRTOS/list.c **** 
  52:FreeRTOS/list.c ****     http://www.FreeRTOS.org/plus - A selection of FreeRTOS ecosystem products,
  53:FreeRTOS/list.c ****     including FreeRTOS+Trace - an indispensable productivity tool, a DOS
  54:FreeRTOS/list.c ****     compatible FAT file system, and our tiny thread aware UDP/IP stack.
  55:FreeRTOS/list.c **** 
  56:FreeRTOS/list.c ****     http://www.FreeRTOS.org/labs - Where new FreeRTOS products go to incubate.
  57:FreeRTOS/list.c ****     Come and try FreeRTOS+TCP, our new open source TCP/IP stack for FreeRTOS.
  58:FreeRTOS/list.c **** 
  59:FreeRTOS/list.c ****     http://www.OpenRTOS.com - Real Time Engineers ltd. license FreeRTOS to High
  60:FreeRTOS/list.c ****     Integrity Systems ltd. to sell under the OpenRTOS brand.  Low cost OpenRTOS
  61:FreeRTOS/list.c ****     licenses offer ticketed support, indemnification and commercial middleware.
  62:FreeRTOS/list.c **** 
  63:FreeRTOS/list.c ****     http://www.SafeRTOS.com - High Integrity Systems also provide a safety
  64:FreeRTOS/list.c ****     engineered and independently SIL3 certified version for use in safety and
  65:FreeRTOS/list.c ****     mission critical applications that require provable dependability.
  66:FreeRTOS/list.c **** 
  67:FreeRTOS/list.c ****     1 tab == 4 spaces!
  68:FreeRTOS/list.c **** */
  69:FreeRTOS/list.c **** 
  70:FreeRTOS/list.c **** 
  71:FreeRTOS/list.c **** #include <stdlib.h>
  72:FreeRTOS/list.c **** #include "FreeRTOS.h"
  73:FreeRTOS/list.c **** #include "list.h"
  74:FreeRTOS/list.c **** 
  75:FreeRTOS/list.c **** /*-----------------------------------------------------------
  76:FreeRTOS/list.c ****  * PUBLIC LIST API documented in list.h
  77:FreeRTOS/list.c ****  *----------------------------------------------------------*/
  78:FreeRTOS/list.c **** 
  79:FreeRTOS/list.c **** void vListInitialise( List_t * const pxList )
  80:FreeRTOS/list.c **** {
  28              		.loc 1 80 0
  29              		.cfi_startproc
  30              		@ args = 0, pretend = 0, frame = 8
  31              		@ frame_needed = 1, uses_anonymous_args = 0
  32              		@ link register save eliminated.
  33 0000 80B4     		push	{r7}
  34              		.cfi_def_cfa_offset 4
ARM GAS  C:\Users\koseki\AppData\Local\Temp\ccDuPQ7w.s 			page 3


  35              		.cfi_offset 7, -4
  36 0002 83B0     		sub	sp, sp, #12
  37              		.cfi_def_cfa_offset 16
  38 0004 00AF     		add	r7, sp, #0
  39              		.cfi_def_cfa_register 7
  40 0006 7860     		str	r0, [r7, #4]
  81:FreeRTOS/list.c **** 	/* The list structure contains a list item which is used to mark the
  82:FreeRTOS/list.c **** 	end of the list.  To initialise the list the list end is inserted
  83:FreeRTOS/list.c **** 	as the only list entry. */
  84:FreeRTOS/list.c **** 	pxList->pxIndex = ( ListItem_t * ) &( pxList->xListEnd );			/*lint !e826 !e740 The mini list struc
  41              		.loc 1 84 0
  42 0008 7B68     		ldr	r3, [r7, #4]
  43 000a 03F10802 		add	r2, r3, #8
  44 000e 7B68     		ldr	r3, [r7, #4]
  45 0010 5A60     		str	r2, [r3, #4]
  85:FreeRTOS/list.c **** 
  86:FreeRTOS/list.c **** 	/* The list end value is the highest possible value in the list to
  87:FreeRTOS/list.c **** 	ensure it remains at the end of the list. */
  88:FreeRTOS/list.c **** 	pxList->xListEnd.xItemValue = portMAX_DELAY;
  46              		.loc 1 88 0
  47 0012 7B68     		ldr	r3, [r7, #4]
  48 0014 4FF0FF32 		mov	r2, #-1
  49 0018 9A60     		str	r2, [r3, #8]
  89:FreeRTOS/list.c **** 
  90:FreeRTOS/list.c **** 	/* The list end next and previous pointers point to itself so we know
  91:FreeRTOS/list.c **** 	when the list is empty. */
  92:FreeRTOS/list.c **** 	pxList->xListEnd.pxNext = ( ListItem_t * ) &( pxList->xListEnd );	/*lint !e826 !e740 The mini list
  50              		.loc 1 92 0
  51 001a 7B68     		ldr	r3, [r7, #4]
  52 001c 03F10802 		add	r2, r3, #8
  53 0020 7B68     		ldr	r3, [r7, #4]
  54 0022 DA60     		str	r2, [r3, #12]
  93:FreeRTOS/list.c **** 	pxList->xListEnd.pxPrevious = ( ListItem_t * ) &( pxList->xListEnd );/*lint !e826 !e740 The mini l
  55              		.loc 1 93 0
  56 0024 7B68     		ldr	r3, [r7, #4]
  57 0026 03F10802 		add	r2, r3, #8
  58 002a 7B68     		ldr	r3, [r7, #4]
  59 002c 1A61     		str	r2, [r3, #16]
  94:FreeRTOS/list.c **** 
  95:FreeRTOS/list.c **** 	pxList->uxNumberOfItems = ( UBaseType_t ) 0U;
  60              		.loc 1 95 0
  61 002e 7B68     		ldr	r3, [r7, #4]
  62 0030 0022     		movs	r2, #0
  63 0032 1A60     		str	r2, [r3]
  96:FreeRTOS/list.c **** 
  97:FreeRTOS/list.c **** 	/* Write known values into the list if
  98:FreeRTOS/list.c **** 	configUSE_LIST_DATA_INTEGRITY_CHECK_BYTES is set to 1. */
  99:FreeRTOS/list.c **** 	listSET_LIST_INTEGRITY_CHECK_1_VALUE( pxList );
 100:FreeRTOS/list.c **** 	listSET_LIST_INTEGRITY_CHECK_2_VALUE( pxList );
 101:FreeRTOS/list.c **** }
  64              		.loc 1 101 0
  65 0034 00BF     		nop
  66 0036 0C37     		adds	r7, r7, #12
  67              		.cfi_def_cfa_offset 4
  68 0038 BD46     		mov	sp, r7
  69              		.cfi_def_cfa_register 13
  70              		@ sp needed
ARM GAS  C:\Users\koseki\AppData\Local\Temp\ccDuPQ7w.s 			page 4


  71 003a 80BC     		pop	{r7}
  72              		.cfi_restore 7
  73              		.cfi_def_cfa_offset 0
  74 003c 7047     		bx	lr
  75              		.cfi_endproc
  76              	.LFE64:
  77              		.size	vListInitialise, .-vListInitialise
  78 003e 00BF     		.section	.text.vListInitialiseItem,"ax",%progbits
  79              		.align	2
  80              		.global	vListInitialiseItem
  81              		.thumb
  82              		.thumb_func
  83              		.type	vListInitialiseItem, %function
  84              	vListInitialiseItem:
  85              	.LFB65:
 102:FreeRTOS/list.c **** /*-----------------------------------------------------------*/
 103:FreeRTOS/list.c **** 
 104:FreeRTOS/list.c **** void vListInitialiseItem( ListItem_t * const pxItem )
 105:FreeRTOS/list.c **** {
  86              		.loc 1 105 0
  87              		.cfi_startproc
  88              		@ args = 0, pretend = 0, frame = 8
  89              		@ frame_needed = 1, uses_anonymous_args = 0
  90              		@ link register save eliminated.
  91 0000 80B4     		push	{r7}
  92              		.cfi_def_cfa_offset 4
  93              		.cfi_offset 7, -4
  94 0002 83B0     		sub	sp, sp, #12
  95              		.cfi_def_cfa_offset 16
  96 0004 00AF     		add	r7, sp, #0
  97              		.cfi_def_cfa_register 7
  98 0006 7860     		str	r0, [r7, #4]
 106:FreeRTOS/list.c **** 	/* Make sure the list item is not recorded as being on a list. */
 107:FreeRTOS/list.c **** 	pxItem->pvContainer = NULL;
  99              		.loc 1 107 0
 100 0008 7B68     		ldr	r3, [r7, #4]
 101 000a 0022     		movs	r2, #0
 102 000c 1A61     		str	r2, [r3, #16]
 108:FreeRTOS/list.c **** 
 109:FreeRTOS/list.c **** 	/* Write known values into the list item if
 110:FreeRTOS/list.c **** 	configUSE_LIST_DATA_INTEGRITY_CHECK_BYTES is set to 1. */
 111:FreeRTOS/list.c **** 	listSET_FIRST_LIST_ITEM_INTEGRITY_CHECK_VALUE( pxItem );
 112:FreeRTOS/list.c **** 	listSET_SECOND_LIST_ITEM_INTEGRITY_CHECK_VALUE( pxItem );
 113:FreeRTOS/list.c **** }
 103              		.loc 1 113 0
 104 000e 00BF     		nop
 105 0010 0C37     		adds	r7, r7, #12
 106              		.cfi_def_cfa_offset 4
 107 0012 BD46     		mov	sp, r7
 108              		.cfi_def_cfa_register 13
 109              		@ sp needed
 110 0014 80BC     		pop	{r7}
 111              		.cfi_restore 7
 112              		.cfi_def_cfa_offset 0
 113 0016 7047     		bx	lr
 114              		.cfi_endproc
 115              	.LFE65:
ARM GAS  C:\Users\koseki\AppData\Local\Temp\ccDuPQ7w.s 			page 5


 116              		.size	vListInitialiseItem, .-vListInitialiseItem
 117              		.section	.text.vListInsertEnd,"ax",%progbits
 118              		.align	2
 119              		.global	vListInsertEnd
 120              		.thumb
 121              		.thumb_func
 122              		.type	vListInsertEnd, %function
 123              	vListInsertEnd:
 124              	.LFB66:
 114:FreeRTOS/list.c **** /*-----------------------------------------------------------*/
 115:FreeRTOS/list.c **** 
 116:FreeRTOS/list.c **** void vListInsertEnd( List_t * const pxList, ListItem_t * const pxNewListItem )
 117:FreeRTOS/list.c **** {
 125              		.loc 1 117 0
 126              		.cfi_startproc
 127              		@ args = 0, pretend = 0, frame = 16
 128              		@ frame_needed = 1, uses_anonymous_args = 0
 129              		@ link register save eliminated.
 130 0000 80B4     		push	{r7}
 131              		.cfi_def_cfa_offset 4
 132              		.cfi_offset 7, -4
 133 0002 85B0     		sub	sp, sp, #20
 134              		.cfi_def_cfa_offset 24
 135 0004 00AF     		add	r7, sp, #0
 136              		.cfi_def_cfa_register 7
 137 0006 7860     		str	r0, [r7, #4]
 138 0008 3960     		str	r1, [r7]
 118:FreeRTOS/list.c **** ListItem_t * const pxIndex = pxList->pxIndex;
 139              		.loc 1 118 0
 140 000a 7B68     		ldr	r3, [r7, #4]
 141 000c 5B68     		ldr	r3, [r3, #4]
 142 000e FB60     		str	r3, [r7, #12]
 119:FreeRTOS/list.c **** 
 120:FreeRTOS/list.c **** 	/* Only effective when configASSERT() is also defined, these tests may catch
 121:FreeRTOS/list.c **** 	the list data structures being overwritten in memory.  They will not catch
 122:FreeRTOS/list.c **** 	data errors caused by incorrect configuration or use of FreeRTOS. */
 123:FreeRTOS/list.c **** 	listTEST_LIST_INTEGRITY( pxList );
 124:FreeRTOS/list.c **** 	listTEST_LIST_ITEM_INTEGRITY( pxNewListItem );
 125:FreeRTOS/list.c **** 
 126:FreeRTOS/list.c **** 	/* Insert a new list item into pxList, but rather than sort the list,
 127:FreeRTOS/list.c **** 	makes the new list item the last item to be removed by a call to
 128:FreeRTOS/list.c **** 	listGET_OWNER_OF_NEXT_ENTRY(). */
 129:FreeRTOS/list.c **** 	pxNewListItem->pxNext = pxIndex;
 143              		.loc 1 129 0
 144 0010 3B68     		ldr	r3, [r7]
 145 0012 FA68     		ldr	r2, [r7, #12]
 146 0014 5A60     		str	r2, [r3, #4]
 130:FreeRTOS/list.c **** 	pxNewListItem->pxPrevious = pxIndex->pxPrevious;
 147              		.loc 1 130 0
 148 0016 FB68     		ldr	r3, [r7, #12]
 149 0018 9A68     		ldr	r2, [r3, #8]
 150 001a 3B68     		ldr	r3, [r7]
 151 001c 9A60     		str	r2, [r3, #8]
 131:FreeRTOS/list.c **** 
 132:FreeRTOS/list.c **** 	/* Only used during decision coverage testing. */
 133:FreeRTOS/list.c **** 	mtCOVERAGE_TEST_DELAY();
 134:FreeRTOS/list.c **** 
ARM GAS  C:\Users\koseki\AppData\Local\Temp\ccDuPQ7w.s 			page 6


 135:FreeRTOS/list.c **** 	pxIndex->pxPrevious->pxNext = pxNewListItem;
 152              		.loc 1 135 0
 153 001e FB68     		ldr	r3, [r7, #12]
 154 0020 9B68     		ldr	r3, [r3, #8]
 155 0022 3A68     		ldr	r2, [r7]
 156 0024 5A60     		str	r2, [r3, #4]
 136:FreeRTOS/list.c **** 	pxIndex->pxPrevious = pxNewListItem;
 157              		.loc 1 136 0
 158 0026 FB68     		ldr	r3, [r7, #12]
 159 0028 3A68     		ldr	r2, [r7]
 160 002a 9A60     		str	r2, [r3, #8]
 137:FreeRTOS/list.c **** 
 138:FreeRTOS/list.c **** 	/* Remember which list the item is in. */
 139:FreeRTOS/list.c **** 	pxNewListItem->pvContainer = ( void * ) pxList;
 161              		.loc 1 139 0
 162 002c 3B68     		ldr	r3, [r7]
 163 002e 7A68     		ldr	r2, [r7, #4]
 164 0030 1A61     		str	r2, [r3, #16]
 140:FreeRTOS/list.c **** 
 141:FreeRTOS/list.c **** 	( pxList->uxNumberOfItems )++;
 165              		.loc 1 141 0
 166 0032 7B68     		ldr	r3, [r7, #4]
 167 0034 1B68     		ldr	r3, [r3]
 168 0036 5A1C     		adds	r2, r3, #1
 169 0038 7B68     		ldr	r3, [r7, #4]
 170 003a 1A60     		str	r2, [r3]
 142:FreeRTOS/list.c **** }
 171              		.loc 1 142 0
 172 003c 00BF     		nop
 173 003e 1437     		adds	r7, r7, #20
 174              		.cfi_def_cfa_offset 4
 175 0040 BD46     		mov	sp, r7
 176              		.cfi_def_cfa_register 13
 177              		@ sp needed
 178 0042 80BC     		pop	{r7}
 179              		.cfi_restore 7
 180              		.cfi_def_cfa_offset 0
 181 0044 7047     		bx	lr
 182              		.cfi_endproc
 183              	.LFE66:
 184              		.size	vListInsertEnd, .-vListInsertEnd
 185 0046 00BF     		.section	.text.vListInsert,"ax",%progbits
 186              		.align	2
 187              		.global	vListInsert
 188              		.thumb
 189              		.thumb_func
 190              		.type	vListInsert, %function
 191              	vListInsert:
 192              	.LFB67:
 143:FreeRTOS/list.c **** /*-----------------------------------------------------------*/
 144:FreeRTOS/list.c **** 
 145:FreeRTOS/list.c **** void vListInsert( List_t * const pxList, ListItem_t * const pxNewListItem )
 146:FreeRTOS/list.c **** {
 193              		.loc 1 146 0
 194              		.cfi_startproc
 195              		@ args = 0, pretend = 0, frame = 16
 196              		@ frame_needed = 1, uses_anonymous_args = 0
ARM GAS  C:\Users\koseki\AppData\Local\Temp\ccDuPQ7w.s 			page 7


 197              		@ link register save eliminated.
 198 0000 80B4     		push	{r7}
 199              		.cfi_def_cfa_offset 4
 200              		.cfi_offset 7, -4
 201 0002 85B0     		sub	sp, sp, #20
 202              		.cfi_def_cfa_offset 24
 203 0004 00AF     		add	r7, sp, #0
 204              		.cfi_def_cfa_register 7
 205 0006 7860     		str	r0, [r7, #4]
 206 0008 3960     		str	r1, [r7]
 147:FreeRTOS/list.c **** ListItem_t *pxIterator;
 148:FreeRTOS/list.c **** const TickType_t xValueOfInsertion = pxNewListItem->xItemValue;
 207              		.loc 1 148 0
 208 000a 3B68     		ldr	r3, [r7]
 209 000c 1B68     		ldr	r3, [r3]
 210 000e BB60     		str	r3, [r7, #8]
 149:FreeRTOS/list.c **** 
 150:FreeRTOS/list.c **** 	/* Only effective when configASSERT() is also defined, these tests may catch
 151:FreeRTOS/list.c **** 	the list data structures being overwritten in memory.  They will not catch
 152:FreeRTOS/list.c **** 	data errors caused by incorrect configuration or use of FreeRTOS. */
 153:FreeRTOS/list.c **** 	listTEST_LIST_INTEGRITY( pxList );
 154:FreeRTOS/list.c **** 	listTEST_LIST_ITEM_INTEGRITY( pxNewListItem );
 155:FreeRTOS/list.c **** 
 156:FreeRTOS/list.c **** 	/* Insert the new list item into the list, sorted in xItemValue order.
 157:FreeRTOS/list.c **** 
 158:FreeRTOS/list.c **** 	If the list already contains a list item with the same item value then the
 159:FreeRTOS/list.c **** 	new list item should be placed after it.  This ensures that TCB's which are
 160:FreeRTOS/list.c **** 	stored in ready lists (all of which have the same xItemValue value) get a
 161:FreeRTOS/list.c **** 	share of the CPU.  However, if the xItemValue is the same as the back marker
 162:FreeRTOS/list.c **** 	the iteration loop below will not end.  Therefore the value is checked
 163:FreeRTOS/list.c **** 	first, and the algorithm slightly modified if necessary. */
 164:FreeRTOS/list.c **** 	if( xValueOfInsertion == portMAX_DELAY )
 211              		.loc 1 164 0
 212 0010 BB68     		ldr	r3, [r7, #8]
 213 0012 B3F1FF3F 		cmp	r3, #-1
 214 0016 03D1     		bne	.L5
 165:FreeRTOS/list.c **** 	{
 166:FreeRTOS/list.c **** 		pxIterator = pxList->xListEnd.pxPrevious;
 215              		.loc 1 166 0
 216 0018 7B68     		ldr	r3, [r7, #4]
 217 001a 1B69     		ldr	r3, [r3, #16]
 218 001c FB60     		str	r3, [r7, #12]
 219 001e 0CE0     		b	.L6
 220              	.L5:
 167:FreeRTOS/list.c **** 	}
 168:FreeRTOS/list.c **** 	else
 169:FreeRTOS/list.c **** 	{
 170:FreeRTOS/list.c **** 		/* *** NOTE ***********************************************************
 171:FreeRTOS/list.c **** 		If you find your application is crashing here then likely causes are
 172:FreeRTOS/list.c **** 		listed below.  In addition see http://www.freertos.org/FAQHelp.html for
 173:FreeRTOS/list.c **** 		more tips, and ensure configASSERT() is defined!
 174:FreeRTOS/list.c **** 		http://www.freertos.org/a00110.html#configASSERT
 175:FreeRTOS/list.c **** 
 176:FreeRTOS/list.c **** 			1) Stack overflow -
 177:FreeRTOS/list.c **** 			   see http://www.freertos.org/Stacks-and-stack-overflow-checking.html
 178:FreeRTOS/list.c **** 			2) Incorrect interrupt priority assignment, especially on Cortex-M
 179:FreeRTOS/list.c **** 			   parts where numerically high priority values denote low actual
ARM GAS  C:\Users\koseki\AppData\Local\Temp\ccDuPQ7w.s 			page 8


 180:FreeRTOS/list.c **** 			   interrupt priorities, which can seem counter intuitive.  See
 181:FreeRTOS/list.c **** 			   http://www.freertos.org/RTOS-Cortex-M3-M4.html and the definition
 182:FreeRTOS/list.c **** 			   of configMAX_SYSCALL_INTERRUPT_PRIORITY on
 183:FreeRTOS/list.c **** 			   http://www.freertos.org/a00110.html
 184:FreeRTOS/list.c **** 			3) Calling an API function from within a critical section or when
 185:FreeRTOS/list.c **** 			   the scheduler is suspended, or calling an API function that does
 186:FreeRTOS/list.c **** 			   not end in "FromISR" from an interrupt.
 187:FreeRTOS/list.c **** 			4) Using a queue or semaphore before it has been initialised or
 188:FreeRTOS/list.c **** 			   before the scheduler has been started (are interrupts firing
 189:FreeRTOS/list.c **** 			   before vTaskStartScheduler() has been called?).
 190:FreeRTOS/list.c **** 		**********************************************************************/
 191:FreeRTOS/list.c **** 
 192:FreeRTOS/list.c **** 		for( pxIterator = ( ListItem_t * ) &( pxList->xListEnd ); pxIterator->pxNext->xItemValue <= xValu
 221              		.loc 1 192 0
 222 0020 7B68     		ldr	r3, [r7, #4]
 223 0022 0833     		adds	r3, r3, #8
 224 0024 FB60     		str	r3, [r7, #12]
 225 0026 02E0     		b	.L7
 226              	.L8:
 227              		.loc 1 192 0 is_stmt 0 discriminator 3
 228 0028 FB68     		ldr	r3, [r7, #12]
 229 002a 5B68     		ldr	r3, [r3, #4]
 230 002c FB60     		str	r3, [r7, #12]
 231              	.L7:
 232              		.loc 1 192 0 discriminator 1
 233 002e FB68     		ldr	r3, [r7, #12]
 234 0030 5B68     		ldr	r3, [r3, #4]
 235 0032 1A68     		ldr	r2, [r3]
 236 0034 BB68     		ldr	r3, [r7, #8]
 237 0036 9A42     		cmp	r2, r3
 238 0038 F6D9     		bls	.L8
 239              	.L6:
 193:FreeRTOS/list.c **** 		{
 194:FreeRTOS/list.c **** 			/* There is nothing to do here, just iterating to the wanted
 195:FreeRTOS/list.c **** 			insertion position. */
 196:FreeRTOS/list.c **** 		}
 197:FreeRTOS/list.c **** 	}
 198:FreeRTOS/list.c **** 
 199:FreeRTOS/list.c **** 	pxNewListItem->pxNext = pxIterator->pxNext;
 240              		.loc 1 199 0 is_stmt 1
 241 003a FB68     		ldr	r3, [r7, #12]
 242 003c 5A68     		ldr	r2, [r3, #4]
 243 003e 3B68     		ldr	r3, [r7]
 244 0040 5A60     		str	r2, [r3, #4]
 200:FreeRTOS/list.c **** 	pxNewListItem->pxNext->pxPrevious = pxNewListItem;
 245              		.loc 1 200 0
 246 0042 3B68     		ldr	r3, [r7]
 247 0044 5B68     		ldr	r3, [r3, #4]
 248 0046 3A68     		ldr	r2, [r7]
 249 0048 9A60     		str	r2, [r3, #8]
 201:FreeRTOS/list.c **** 	pxNewListItem->pxPrevious = pxIterator;
 250              		.loc 1 201 0
 251 004a 3B68     		ldr	r3, [r7]
 252 004c FA68     		ldr	r2, [r7, #12]
 253 004e 9A60     		str	r2, [r3, #8]
 202:FreeRTOS/list.c **** 	pxIterator->pxNext = pxNewListItem;
 254              		.loc 1 202 0
ARM GAS  C:\Users\koseki\AppData\Local\Temp\ccDuPQ7w.s 			page 9


 255 0050 FB68     		ldr	r3, [r7, #12]
 256 0052 3A68     		ldr	r2, [r7]
 257 0054 5A60     		str	r2, [r3, #4]
 203:FreeRTOS/list.c **** 
 204:FreeRTOS/list.c **** 	/* Remember which list the item is in.  This allows fast removal of the
 205:FreeRTOS/list.c **** 	item later. */
 206:FreeRTOS/list.c **** 	pxNewListItem->pvContainer = ( void * ) pxList;
 258              		.loc 1 206 0
 259 0056 3B68     		ldr	r3, [r7]
 260 0058 7A68     		ldr	r2, [r7, #4]
 261 005a 1A61     		str	r2, [r3, #16]
 207:FreeRTOS/list.c **** 
 208:FreeRTOS/list.c **** 	( pxList->uxNumberOfItems )++;
 262              		.loc 1 208 0
 263 005c 7B68     		ldr	r3, [r7, #4]
 264 005e 1B68     		ldr	r3, [r3]
 265 0060 5A1C     		adds	r2, r3, #1
 266 0062 7B68     		ldr	r3, [r7, #4]
 267 0064 1A60     		str	r2, [r3]
 209:FreeRTOS/list.c **** }
 268              		.loc 1 209 0
 269 0066 00BF     		nop
 270 0068 1437     		adds	r7, r7, #20
 271              		.cfi_def_cfa_offset 4
 272 006a BD46     		mov	sp, r7
 273              		.cfi_def_cfa_register 13
 274              		@ sp needed
 275 006c 80BC     		pop	{r7}
 276              		.cfi_restore 7
 277              		.cfi_def_cfa_offset 0
 278 006e 7047     		bx	lr
 279              		.cfi_endproc
 280              	.LFE67:
 281              		.size	vListInsert, .-vListInsert
 282              		.section	.text.uxListRemove,"ax",%progbits
 283              		.align	2
 284              		.global	uxListRemove
 285              		.thumb
 286              		.thumb_func
 287              		.type	uxListRemove, %function
 288              	uxListRemove:
 289              	.LFB68:
 210:FreeRTOS/list.c **** /*-----------------------------------------------------------*/
 211:FreeRTOS/list.c **** 
 212:FreeRTOS/list.c **** UBaseType_t uxListRemove( ListItem_t * const pxItemToRemove )
 213:FreeRTOS/list.c **** {
 290              		.loc 1 213 0
 291              		.cfi_startproc
 292              		@ args = 0, pretend = 0, frame = 16
 293              		@ frame_needed = 1, uses_anonymous_args = 0
 294              		@ link register save eliminated.
 295 0000 80B4     		push	{r7}
 296              		.cfi_def_cfa_offset 4
 297              		.cfi_offset 7, -4
 298 0002 85B0     		sub	sp, sp, #20
 299              		.cfi_def_cfa_offset 24
 300 0004 00AF     		add	r7, sp, #0
ARM GAS  C:\Users\koseki\AppData\Local\Temp\ccDuPQ7w.s 			page 10


 301              		.cfi_def_cfa_register 7
 302 0006 7860     		str	r0, [r7, #4]
 214:FreeRTOS/list.c **** /* The list item knows which list it is in.  Obtain the list from the list
 215:FreeRTOS/list.c **** item. */
 216:FreeRTOS/list.c **** List_t * const pxList = ( List_t * ) pxItemToRemove->pvContainer;
 303              		.loc 1 216 0
 304 0008 7B68     		ldr	r3, [r7, #4]
 305 000a 1B69     		ldr	r3, [r3, #16]
 306 000c FB60     		str	r3, [r7, #12]
 217:FreeRTOS/list.c **** 
 218:FreeRTOS/list.c **** 	pxItemToRemove->pxNext->pxPrevious = pxItemToRemove->pxPrevious;
 307              		.loc 1 218 0
 308 000e 7B68     		ldr	r3, [r7, #4]
 309 0010 5B68     		ldr	r3, [r3, #4]
 310 0012 7A68     		ldr	r2, [r7, #4]
 311 0014 9268     		ldr	r2, [r2, #8]
 312 0016 9A60     		str	r2, [r3, #8]
 219:FreeRTOS/list.c **** 	pxItemToRemove->pxPrevious->pxNext = pxItemToRemove->pxNext;
 313              		.loc 1 219 0
 314 0018 7B68     		ldr	r3, [r7, #4]
 315 001a 9B68     		ldr	r3, [r3, #8]
 316 001c 7A68     		ldr	r2, [r7, #4]
 317 001e 5268     		ldr	r2, [r2, #4]
 318 0020 5A60     		str	r2, [r3, #4]
 220:FreeRTOS/list.c **** 
 221:FreeRTOS/list.c **** 	/* Only used during decision coverage testing. */
 222:FreeRTOS/list.c **** 	mtCOVERAGE_TEST_DELAY();
 223:FreeRTOS/list.c **** 
 224:FreeRTOS/list.c **** 	/* Make sure the index is left pointing to a valid item. */
 225:FreeRTOS/list.c **** 	if( pxList->pxIndex == pxItemToRemove )
 319              		.loc 1 225 0
 320 0022 FB68     		ldr	r3, [r7, #12]
 321 0024 5A68     		ldr	r2, [r3, #4]
 322 0026 7B68     		ldr	r3, [r7, #4]
 323 0028 9A42     		cmp	r2, r3
 324 002a 03D1     		bne	.L10
 226:FreeRTOS/list.c **** 	{
 227:FreeRTOS/list.c **** 		pxList->pxIndex = pxItemToRemove->pxPrevious;
 325              		.loc 1 227 0
 326 002c 7B68     		ldr	r3, [r7, #4]
 327 002e 9A68     		ldr	r2, [r3, #8]
 328 0030 FB68     		ldr	r3, [r7, #12]
 329 0032 5A60     		str	r2, [r3, #4]
 330              	.L10:
 228:FreeRTOS/list.c **** 	}
 229:FreeRTOS/list.c **** 	else
 230:FreeRTOS/list.c **** 	{
 231:FreeRTOS/list.c **** 		mtCOVERAGE_TEST_MARKER();
 232:FreeRTOS/list.c **** 	}
 233:FreeRTOS/list.c **** 
 234:FreeRTOS/list.c **** 	pxItemToRemove->pvContainer = NULL;
 331              		.loc 1 234 0
 332 0034 7B68     		ldr	r3, [r7, #4]
 333 0036 0022     		movs	r2, #0
 334 0038 1A61     		str	r2, [r3, #16]
 235:FreeRTOS/list.c **** 	( pxList->uxNumberOfItems )--;
 335              		.loc 1 235 0
ARM GAS  C:\Users\koseki\AppData\Local\Temp\ccDuPQ7w.s 			page 11


 336 003a FB68     		ldr	r3, [r7, #12]
 337 003c 1B68     		ldr	r3, [r3]
 338 003e 5A1E     		subs	r2, r3, #1
 339 0040 FB68     		ldr	r3, [r7, #12]
 340 0042 1A60     		str	r2, [r3]
 236:FreeRTOS/list.c **** 
 237:FreeRTOS/list.c **** 	return pxList->uxNumberOfItems;
 341              		.loc 1 237 0
 342 0044 FB68     		ldr	r3, [r7, #12]
 343 0046 1B68     		ldr	r3, [r3]
 238:FreeRTOS/list.c **** }
 344              		.loc 1 238 0
 345 0048 1846     		mov	r0, r3
 346 004a 1437     		adds	r7, r7, #20
 347              		.cfi_def_cfa_offset 4
 348 004c BD46     		mov	sp, r7
 349              		.cfi_def_cfa_register 13
 350              		@ sp needed
 351 004e 80BC     		pop	{r7}
 352              		.cfi_restore 7
 353              		.cfi_def_cfa_offset 0
 354 0050 7047     		bx	lr
 355              		.cfi_endproc
 356              	.LFE68:
 357              		.size	uxListRemove, .-uxListRemove
 358 0052 00BF     		.text
 359              	.Letext0:
 360              		.file 2 "c:\\program files (x86)\\cypress\\psoc creator\\4.4\\psoc creator\\import\\gnu\\arm\\5.4.
 361              		.file 3 "c:\\program files (x86)\\cypress\\psoc creator\\4.4\\psoc creator\\import\\gnu\\arm\\5.4.
 362              		.file 4 "FreeRTOS\\portmacro.h"
 363              		.file 5 "FreeRTOS\\list.h"
 364              		.file 6 "Generated_Source\\PSoC5/core_cm3.h"