ARM GAS  C:\Users\koseki\AppData\Local\Temp\ccrnawwQ.s 			page 1


   1              		.syntax unified
   2              		.cpu cortex-m3
   3              		.fpu softvfp
   4              		.eabi_attribute 20, 1
   5              		.eabi_attribute 21, 1
   6              		.eabi_attribute 23, 3
   7              		.eabi_attribute 24, 1
   8              		.eabi_attribute 25, 1
   9              		.eabi_attribute 26, 1
  10              		.eabi_attribute 30, 6
  11              		.eabi_attribute 34, 1
  12              		.eabi_attribute 18, 4
  13              		.thumb
  14              		.syntax unified
  15              		.file	"main.c"
  16              		.text
  17              	.Ltext0:
  18              		.cfi_sections	.debug_frame
  19              		.comm	xQueue_ROT,4,4
  20              		.comm	xQueue_TONE,4,4
  21              		.comm	xQueue_CHAR,4,4
  22              		.comm	xQueue_WPM,4,4
  23              		.comm	xQueue_TH,4,4
  24              		.global	sign_cntr
  25              		.bss
  26              		.type	sign_cntr, %object
  27              		.size	sign_cntr, 1
  28              	sign_cntr:
  29 0000 00       		.space	1
  30              		.global	Sign_Sin
  31              		.section	.rodata
  32              		.align	2
  33              		.type	Sign_Sin, %object
  34              		.size	Sign_Sin, 20
  35              	Sign_Sin:
  36 0000 01       		.byte	1
  37 0001 01       		.byte	1
  38 0002 01       		.byte	1
  39 0003 01       		.byte	1
  40 0004 01       		.byte	1
  41 0005 01       		.byte	1
  42 0006 01       		.byte	1
  43 0007 01       		.byte	1
  44 0008 01       		.byte	1
  45 0009 01       		.byte	1
  46 000a FF       		.byte	-1
  47 000b FF       		.byte	-1
  48 000c FF       		.byte	-1
  49 000d FF       		.byte	-1
  50 000e FF       		.byte	-1
  51 000f FF       		.byte	-1
  52 0010 FF       		.byte	-1
  53 0011 FF       		.byte	-1
  54 0012 FF       		.byte	-1
  55 0013 FF       		.byte	-1
  56              		.global	Sign_Cos
  57              		.align	2
ARM GAS  C:\Users\koseki\AppData\Local\Temp\ccrnawwQ.s 			page 2


  58              		.type	Sign_Cos, %object
  59              		.size	Sign_Cos, 20
  60              	Sign_Cos:
  61 0014 01       		.byte	1
  62 0015 01       		.byte	1
  63 0016 01       		.byte	1
  64 0017 01       		.byte	1
  65 0018 01       		.byte	1
  66 0019 FF       		.byte	-1
  67 001a FF       		.byte	-1
  68 001b FF       		.byte	-1
  69 001c FF       		.byte	-1
  70 001d FF       		.byte	-1
  71 001e FF       		.byte	-1
  72 001f FF       		.byte	-1
  73 0020 FF       		.byte	-1
  74 0021 FF       		.byte	-1
  75 0022 FF       		.byte	-1
  76 0023 01       		.byte	1
  77 0024 01       		.byte	1
  78 0025 01       		.byte	1
  79 0026 01       		.byte	1
  80 0027 01       		.byte	1
  81              		.global	acc_v_sin
  82              		.bss
  83 0001 000000   		.align	2
  84              		.type	acc_v_sin, %object
  85              		.size	acc_v_sin, 4
  86              	acc_v_sin:
  87 0004 00000000 		.space	4
  88              		.global	acc_v_cos
  89              		.align	2
  90              		.type	acc_v_cos, %object
  91              		.size	acc_v_cos, 4
  92              	acc_v_cos:
  93 0008 00000000 		.space	4
  94              		.comm	IDelay,32,4
  95              		.comm	IDelayPtr,1,1
  96              		.global	acc_Vrms
  97              		.align	2
  98              		.type	acc_Vrms, %object
  99              		.size	acc_Vrms, 4
 100              	acc_Vrms:
 101 000c 00000000 		.space	4
 102              		.global	int_cntr
 103              		.type	int_cntr, %object
 104              		.size	int_cntr, 1
 105              	int_cntr:
 106 0010 00       		.space	1
 107              		.global	debouunce_cntr
 108              		.data
 109              		.type	debouunce_cntr, %object
 110              		.size	debouunce_cntr, 1
 111              	debouunce_cntr:
 112 0000 02       		.byte	2
 113              		.comm	ComRxCmd,32,4
 114              		.comm	ComRxPtr,1,1
ARM GAS  C:\Users\koseki\AppData\Local\Temp\ccrnawwQ.s 			page 3


 115              		.comm	UsbTxBuffer,80,4
 116              		.comm	UsbRxBuffer,256,4
 117              		.section	.rodata
 118              		.align	2
 119              	.LC0:
 120 0028 4C454400 		.ascii	"LED\000"
 121              		.align	2
 122              	.LC1:
 123 002c 55534255 		.ascii	"USBUART\000"
 123      41525400 
 124              		.align	2
 125              	.LC2:
 126 0034 524F5400 		.ascii	"ROT\000"
 127              		.align	2
 128              	.LC3:
 129 0038 544F4E45 		.ascii	"TONE\000"
 129      00
 130              		.section	.text.main,"ax",%progbits
 131              		.align	2
 132              		.global	main
 133              		.thumb
 134              		.thumb_func
 135              		.type	main, %function
 136              	main:
 137              	.LFB65:
 138              		.file 1 "main.c"
   1:main.c        **** //******************************************************************************
   2:main.c        **** // File Name: main.c
   3:main.c        **** //
   4:main.c        **** // Version: 1.10
   5:main.c        **** //
   6:main.c        **** //******************************************************************************
   7:main.c        **** 
   8:main.c        **** // PSoC5
   9:main.c        **** #include <device.h>
  10:main.c        **** #include <stdio.h>
  11:main.c        **** #include <stdlib.h>
  12:main.c        **** #include <math.h>
  13:main.c        **** // FreeRTOS
  14:main.c        **** #include "FreeRTOS.h"
  15:main.c        **** #include "task.h"
  16:main.c        **** #include "queue.h"
  17:main.c        **** #include "semphr.h"
  18:main.c        **** // API
  19:main.c        **** #include "USBUART_FIFO.h"
  20:main.c        **** #include "rot.h"
  21:main.c        **** 
  22:main.c        **** // Project Defines
  23:main.c        **** #define FALSE  0
  24:main.c        **** #define TRUE   1
  25:main.c        **** 
  26:main.c        **** // Resources for FreeRTOS
  27:main.c        **** #define TASK_STACK_LED      128
  28:main.c        **** #define TASK_STACK_USBUART  256
  29:main.c        **** #define TASK_STACK_ROT      128
  30:main.c        **** #define TASK_STACK_KEY      128
  31:main.c        **** #define TASK_STACK_TONE     512
ARM GAS  C:\Users\koseki\AppData\Local\Temp\ccrnawwQ.s 			page 4


  32:main.c        **** 
  33:main.c        **** #define TASK_PRIORITY_LED  (tskIDLE_PRIORITY + 4)
  34:main.c        **** #define TASK_PRIORITY_ROT  (tskIDLE_PRIORITY + 3)
  35:main.c        **** #define TASK_PRIORITY_KEY  (tskIDLE_PRIORITY + 3)
  36:main.c        **** #define TASK_PRIORITY_TONE (tskIDLE_PRIORITY + 2)
  37:main.c        **** #define TASK_PRIORITY_USBUART (tskIDLE_PRIORITY + 1)
  38:main.c        **** 
  39:main.c        **** #define USBUART_TIMEOUT 2000000                 // Timeout for USB Connection (adjustment might be 
  40:main.c        **** 
  41:main.c        **** // Function Prototypes
  42:main.c        **** void prvHardwareSetup(void);
  43:main.c        **** void Initialize(void);
  44:main.c        **** void timerISR_1_Routine(void);  // watchdog timer interrupt
  45:main.c        **** void Filter_Handler(void);      // filter interrupt
  46:main.c        **** void DMA_Config(void);
  47:main.c        **** void Task_LED   (void *pvParameters);
  48:main.c        **** void Task_USBUART  (void *pvParameters);
  49:main.c        **** void Task_ROT   (void *pvParameters);
  50:main.c        **** void Task_TONE  (void *pvParameters);
  51:main.c        **** void ReadUSB (void);
  52:main.c        **** void FactorySetup (void);
  53:main.c        **** void Initialize (void);
  54:main.c        **** void ProcessComRx (void);
  55:main.c        **** 
  56:main.c        **** // Global variables for FreeRTOS
  57:main.c        **** xQueueHandle xQueue_ROT;        // Queue Data from Task_ROT(ROT_ENC_Handler)
  58:main.c        **** xQueueHandle xQueue_TONE;       // Queue Data from CY_ISR(Filter_Handler)
  59:main.c        **** xQueueHandle xQueue_CHAR;       // Queue Data from Task_TONE
  60:main.c        **** xQueueHandle xQueue_WPM;        // Queue Data from Task_TONE
  61:main.c        **** xQueueHandle xQueue_TH;         // Queue Data from Task_TONE
  62:main.c        **** 
  63:main.c        **** //#define CORDIC
  64:main.c        **** // Global variables Filter interrupt
  65:main.c        **** #ifndef CORDIC
  66:main.c        **** // SIGN(sin(2pi*(fd/fs)*n) = SIGN(sin(2pi*n/20)) = [1 @cntr=0~9 | 0 @cntr=10~19]
  67:main.c        **** // SIGN(cos(2pi*(fd/fs)*n) = SIGN(cos(2pi*n/20)) = [1 @cntr=0~4,15~19 | 0 @cntr=5~14]
  68:main.c        **** #define SIGN_CNTR_CYCLE     20
  69:main.c        **** uint8   sign_cntr = 0;          // 20 counter
  70:main.c        **** const int8 Sign_Sin[20] = { 1, 1, 1, 1, 1, 1, 1, 1, 1, 1, -1, -1, -1, -1, -1, -1, -1, -1, -1, -1 };
  71:main.c        **** const int8 Sign_Cos[20] = { 1, 1, 1, 1, 1, -1, -1, -1, -1, -1, -1, -1, -1, -1, -1, 1, 1, 1, 1, 1 };
  72:main.c        **** int32  acc_v_sin = 0;      // accumulator of RMS for 80 times
  73:main.c        **** int32  acc_v_cos = 0;      // accumulator of RMS for 80 times
  74:main.c        **** #endif
  75:main.c        **** int32   IDelay[8];
  76:main.c        **** uint8   IDelayPtr;
  77:main.c        **** uint32  acc_Vrms = 0;      // accumulator of RMS for 80 times
  78:main.c        **** uint8   int_cntr = 0;      // 80 counter (80 / 16kbps =  5 ms)
  79:main.c        **** uint8   debouunce_cntr = 2;      // debounce counter = 2
  80:main.c        **** 
  81:main.c        **** // Global variables for USBUART
  82:main.c        **** uint8	ComRxCmd [32];				// remote command rx buffer
  83:main.c        **** uint8	ComRxPtr;					// pointer into com rx buffer
  84:main.c        **** uint8	UsbTxBuffer [80];			// USB transmit buffer
  85:main.c        **** uint8	UsbRxBuffer [256];			// USB receive buffer
  86:main.c        **** 
  87:main.c        **** 
  88:main.c        **** extern char MorseCharTraslateTable [];
ARM GAS  C:\Users\koseki\AppData\Local\Temp\ccrnawwQ.s 			page 5


  89:main.c        **** //extern uint8 WPM_Table[];
  90:main.c        **** 
  91:main.c        **** //******************************************************************************
  92:main.c        **** // Function Name: main
  93:main.c        **** //******************************************************************************
  94:main.c        **** //
  95:main.c        **** // Summary:
  96:main.c        **** //  Main function performs following functions:
  97:main.c        **** //   1: Enables global interrupts
  98:main.c        **** //   2: Start all components on the schematic
  99:main.c        **** //   3: Calls a function to configure DMA
 100:main.c        **** //
 101:main.c        **** // Parameters:
 102:main.c        **** //  None.
 103:main.c        **** //
 104:main.c        **** // Return:
 105:main.c        **** //  None.
 106:main.c        **** //
 107:main.c        **** //******************************************************************************
 108:main.c        **** int main()
 109:main.c        **** {
 139              		.loc 1 109 0
 140              		.cfi_startproc
 141              		@ args = 0, pretend = 0, frame = 0
 142              		@ frame_needed = 1, uses_anonymous_args = 0
 143 0000 80B5     		push	{r7, lr}
 144              		.cfi_def_cfa_offset 8
 145              		.cfi_offset 7, -8
 146              		.cfi_offset 14, -4
 147 0002 84B0     		sub	sp, sp, #16
 148              		.cfi_def_cfa_offset 24
 149 0004 04AF     		add	r7, sp, #16
 150              		.cfi_def_cfa 7, 8
 110:main.c        ****     prvHardwareSetup();
 151              		.loc 1 110 0
 152 0006 FFF7FEFF 		bl	prvHardwareSetup
 111:main.c        ****     
 112:main.c        **** 	Initialize();
 153              		.loc 1 112 0
 154 000a FFF7FEFF 		bl	Initialize
 113:main.c        **** 
 114:main.c        ****     // Create Queue
 115:main.c        ****     xQueue_ROT    = xQueueCreate(8, 1);     // 8 x 1byte
 155              		.loc 1 115 0
 156 000e 0022     		movs	r2, #0
 157 0010 0121     		movs	r1, #1
 158 0012 0820     		movs	r0, #8
 159 0014 FFF7FEFF 		bl	xQueueGenericCreate
 160 0018 0246     		mov	r2, r0
 161 001a 2F4B     		ldr	r3, .L3
 162 001c 1A60     		str	r2, [r3]
 116:main.c        ****     xQueue_TONE   = xQueueCreate(8, 1);     // 8 x 1bytes
 163              		.loc 1 116 0
 164 001e 0022     		movs	r2, #0
 165 0020 0121     		movs	r1, #1
 166 0022 0820     		movs	r0, #8
 167 0024 FFF7FEFF 		bl	xQueueGenericCreate
ARM GAS  C:\Users\koseki\AppData\Local\Temp\ccrnawwQ.s 			page 6


 168 0028 0246     		mov	r2, r0
 169 002a 2C4B     		ldr	r3, .L3+4
 170 002c 1A60     		str	r2, [r3]
 117:main.c        ****     xQueue_CHAR   = xQueueCreate(8, 1);     // 8 x 1bytes
 171              		.loc 1 117 0
 172 002e 0022     		movs	r2, #0
 173 0030 0121     		movs	r1, #1
 174 0032 0820     		movs	r0, #8
 175 0034 FFF7FEFF 		bl	xQueueGenericCreate
 176 0038 0246     		mov	r2, r0
 177 003a 294B     		ldr	r3, .L3+8
 178 003c 1A60     		str	r2, [r3]
 118:main.c        ****     xQueue_WPM    = xQueueCreate(1, 1);     // 1 x 1bytes
 179              		.loc 1 118 0
 180 003e 0022     		movs	r2, #0
 181 0040 0121     		movs	r1, #1
 182 0042 0120     		movs	r0, #1
 183 0044 FFF7FEFF 		bl	xQueueGenericCreate
 184 0048 0246     		mov	r2, r0
 185 004a 264B     		ldr	r3, .L3+12
 186 004c 1A60     		str	r2, [r3]
 119:main.c        ****     xQueue_TH     = xQueueCreate(1, 1);     // 1 x 1bytes
 187              		.loc 1 119 0
 188 004e 0022     		movs	r2, #0
 189 0050 0121     		movs	r1, #1
 190 0052 0120     		movs	r0, #1
 191 0054 FFF7FEFF 		bl	xQueueGenericCreate
 192 0058 0246     		mov	r2, r0
 193 005a 234B     		ldr	r3, .L3+16
 194 005c 1A60     		str	r2, [r3]
 120:main.c        ****     
 121:main.c        ****     // Create Tasks
 122:main.c        ****     xTaskCreate(Task_LED, "LED", TASK_STACK_LED, NULL, TASK_PRIORITY_LED, NULL);
 195              		.loc 1 122 0
 196 005e 0023     		movs	r3, #0
 197 0060 0393     		str	r3, [sp, #12]
 198 0062 0023     		movs	r3, #0
 199 0064 0293     		str	r3, [sp, #8]
 200 0066 0023     		movs	r3, #0
 201 0068 0193     		str	r3, [sp, #4]
 202 006a 0423     		movs	r3, #4
 203 006c 0093     		str	r3, [sp]
 204 006e 0023     		movs	r3, #0
 205 0070 8022     		movs	r2, #128
 206 0072 1E49     		ldr	r1, .L3+20
 207 0074 1E48     		ldr	r0, .L3+24
 208 0076 FFF7FEFF 		bl	xTaskGenericCreate
 123:main.c        ****     xTaskCreate(Task_USBUART, "USBUART", TASK_STACK_USBUART, NULL, TASK_PRIORITY_USBUART, NULL);
 209              		.loc 1 123 0
 210 007a 0023     		movs	r3, #0
 211 007c 0393     		str	r3, [sp, #12]
 212 007e 0023     		movs	r3, #0
 213 0080 0293     		str	r3, [sp, #8]
 214 0082 0023     		movs	r3, #0
 215 0084 0193     		str	r3, [sp, #4]
 216 0086 0123     		movs	r3, #1
 217 0088 0093     		str	r3, [sp]
ARM GAS  C:\Users\koseki\AppData\Local\Temp\ccrnawwQ.s 			page 7


 218 008a 0023     		movs	r3, #0
 219 008c 4FF48072 		mov	r2, #256
 220 0090 1849     		ldr	r1, .L3+28
 221 0092 1948     		ldr	r0, .L3+32
 222 0094 FFF7FEFF 		bl	xTaskGenericCreate
 124:main.c        ****     xTaskCreate(Task_ROT, "ROT", TASK_STACK_ROT, NULL, TASK_PRIORITY_ROT, NULL);
 223              		.loc 1 124 0
 224 0098 0023     		movs	r3, #0
 225 009a 0393     		str	r3, [sp, #12]
 226 009c 0023     		movs	r3, #0
 227 009e 0293     		str	r3, [sp, #8]
 228 00a0 0023     		movs	r3, #0
 229 00a2 0193     		str	r3, [sp, #4]
 230 00a4 0323     		movs	r3, #3
 231 00a6 0093     		str	r3, [sp]
 232 00a8 0023     		movs	r3, #0
 233 00aa 8022     		movs	r2, #128
 234 00ac 1349     		ldr	r1, .L3+36
 235 00ae 1448     		ldr	r0, .L3+40
 236 00b0 FFF7FEFF 		bl	xTaskGenericCreate
 125:main.c        ****     xTaskCreate(Task_TONE, "TONE", TASK_STACK_TONE, NULL, TASK_PRIORITY_TONE, NULL);
 237              		.loc 1 125 0
 238 00b4 0023     		movs	r3, #0
 239 00b6 0393     		str	r3, [sp, #12]
 240 00b8 0023     		movs	r3, #0
 241 00ba 0293     		str	r3, [sp, #8]
 242 00bc 0023     		movs	r3, #0
 243 00be 0193     		str	r3, [sp, #4]
 244 00c0 0223     		movs	r3, #2
 245 00c2 0093     		str	r3, [sp]
 246 00c4 0023     		movs	r3, #0
 247 00c6 4FF40072 		mov	r2, #512
 248 00ca 0E49     		ldr	r1, .L3+44
 249 00cc 0E48     		ldr	r0, .L3+48
 250 00ce FFF7FEFF 		bl	xTaskGenericCreate
 126:main.c        **** 
 127:main.c        ****     // Start RTOS Kernel
 128:main.c        ****     vTaskStartScheduler();
 251              		.loc 1 128 0
 252 00d2 FFF7FEFF 		bl	vTaskStartScheduler
 253              	.L2:
 129:main.c        **** 
 130:main.c        ****     for(;;)
 131:main.c        ****     {
 132:main.c        ****         
 133:main.c        ****         // Place your application code here.
 134:main.c        ****         
 135:main.c        ****     }
 254              		.loc 1 135 0 discriminator 1
 255 00d6 FEE7     		b	.L2
 256              	.L4:
 257              		.align	2
 258              	.L3:
 259 00d8 00000000 		.word	xQueue_ROT
 260 00dc 00000000 		.word	xQueue_TONE
 261 00e0 00000000 		.word	xQueue_CHAR
 262 00e4 00000000 		.word	xQueue_WPM
ARM GAS  C:\Users\koseki\AppData\Local\Temp\ccrnawwQ.s 			page 8


 263 00e8 00000000 		.word	xQueue_TH
 264 00ec 28000000 		.word	.LC0
 265 00f0 00000000 		.word	Task_LED
 266 00f4 2C000000 		.word	.LC1
 267 00f8 00000000 		.word	Task_USBUART
 268 00fc 34000000 		.word	.LC2
 269 0100 00000000 		.word	Task_ROT
 270 0104 38000000 		.word	.LC3
 271 0108 00000000 		.word	Task_TONE
 272              		.cfi_endproc
 273              	.LFE65:
 274              		.size	main, .-main
 275              		.section	.text.Initialize,"ax",%progbits
 276              		.align	2
 277              		.global	Initialize
 278              		.thumb
 279              		.thumb_func
 280              		.type	Initialize, %function
 281              	Initialize:
 282              	.LFB66:
 136:main.c        **** } // End of main
 137:main.c        **** 
 138:main.c        **** //----------------------------------------------------------------------------
 139:main.c        **** //
 140:main.c        **** //	Initialize and configure hardware, initialize variables
 141:main.c        **** //
 142:main.c        **** //----------------------------------------------------------------------------
 143:main.c        **** void Initialize (void)
 144:main.c        **** {
 283              		.loc 1 144 0
 284              		.cfi_startproc
 285              		@ args = 0, pretend = 0, frame = 8
 286              		@ frame_needed = 1, uses_anonymous_args = 0
 287 0000 80B5     		push	{r7, lr}
 288              		.cfi_def_cfa_offset 8
 289              		.cfi_offset 7, -8
 290              		.cfi_offset 14, -4
 291 0002 82B0     		sub	sp, sp, #8
 292              		.cfi_def_cfa_offset 16
 293 0004 00AF     		add	r7, sp, #0
 294              		.cfi_def_cfa_register 7
 145:main.c        **** 
 146:main.c        ****     // Watchdog Timer Enable.
 147:main.c        ****     timerISR_1_StartEx(timerISR_1_Routine);
 295              		.loc 1 147 0
 296 0006 2048     		ldr	r0, .L8
 297 0008 FFF7FEFF 		bl	timerISR_1_StartEx
 148:main.c        ****     Timer_1_Start();
 298              		.loc 1 148 0
 299 000c FFF7FEFF 		bl	Timer_1_Start
 149:main.c        ****     CyWdtStart(CYWDT_1024_TICKS,CYWDT_LPMODE_NOCHANGE);
 300              		.loc 1 149 0
 301 0010 0021     		movs	r1, #0
 302 0012 0320     		movs	r0, #3
 303 0014 FFF7FEFF 		bl	CyWdtStart
 150:main.c        ****     
 151:main.c        ****     // Initialize API
ARM GAS  C:\Users\koseki\AppData\Local\Temp\ccrnawwQ.s 			page 9


 152:main.c        ****     Init_ROT();
 304              		.loc 1 152 0
 305 0018 FFF7FEFF 		bl	Init_ROT
 153:main.c        **** 
 154:main.c        ****     // Start all components used on schematic
 155:main.c        ****     ADC_DelSig_IRQ_Start();
 306              		.loc 1 155 0
 307 001c FFF7FEFF 		bl	ADC_DelSig_IRQ_Start
 156:main.c        ****     PGA_1_Start(); 
 308              		.loc 1 156 0
 309 0020 FFF7FEFF 		bl	PGA_1_Start
 157:main.c        ****     ADC_DelSig_Start();
 310              		.loc 1 157 0
 311 0024 FFF7FEFF 		bl	ADC_DelSig_Start
 158:main.c        ****     ADC_DelSig_StartConvert();
 312              		.loc 1 158 0
 313 0028 FFF7FEFF 		bl	ADC_DelSig_StartConvert
 159:main.c        ****     VDAC8_Start();
 314              		.loc 1 159 0
 315 002c FFF7FEFF 		bl	VDAC8_Start
 160:main.c        ****     Opamp_1_Start();
 316              		.loc 1 160 0
 317 0030 FFF7FEFF 		bl	Opamp_1_Start
 161:main.c        ****     Opamp_2_Start();
 318              		.loc 1 161 0
 319 0034 FFF7FEFF 		bl	Opamp_2_Start
 162:main.c        ****     Filter_Start();
 320              		.loc 1 162 0
 321 0038 FFF7FEFF 		bl	Filter_Start
 163:main.c        ****     // set the Tone Threshold to max.   
 164:main.c        ****     Control_Reg_1_Write(0xFF);
 322              		.loc 1 164 0
 323 003c FF20     		movs	r0, #255
 324 003e FFF7FEFF 		bl	Control_Reg_1_Write
 165:main.c        ****     
 166:main.c        ****     // User-implemented function to set-up DMA
 167:main.c        ****     DMA_Config();
 325              		.loc 1 167 0
 326 0042 FFF7FEFF 		bl	DMA_Config
 327              	.LBB2:
 168:main.c        **** 
 169:main.c        ****     // Initiarize Filter Interrupt
 170:main.c        ****     for (uint8 i = 0; i < 8; i++)
 328              		.loc 1 170 0
 329 0046 0023     		movs	r3, #0
 330 0048 FB71     		strb	r3, [r7, #7]
 331 004a 07E0     		b	.L6
 332              	.L7:
 171:main.c        ****        IDelay[i] = 0;
 333              		.loc 1 171 0 discriminator 3
 334 004c FB79     		ldrb	r3, [r7, #7]	@ zero_extendqisi2
 335 004e 0F4A     		ldr	r2, .L8+4
 336 0050 0021     		movs	r1, #0
 337 0052 42F82310 		str	r1, [r2, r3, lsl #2]
 170:main.c        ****        IDelay[i] = 0;
 338              		.loc 1 170 0 discriminator 3
 339 0056 FB79     		ldrb	r3, [r7, #7]	@ zero_extendqisi2
ARM GAS  C:\Users\koseki\AppData\Local\Temp\ccrnawwQ.s 			page 10


 340 0058 0133     		adds	r3, r3, #1
 341 005a FB71     		strb	r3, [r7, #7]
 342              	.L6:
 170:main.c        ****        IDelay[i] = 0;
 343              		.loc 1 170 0 is_stmt 0 discriminator 1
 344 005c FB79     		ldrb	r3, [r7, #7]	@ zero_extendqisi2
 345 005e 072B     		cmp	r3, #7
 346 0060 F4D9     		bls	.L7
 347              	.LBE2:
 172:main.c        ****     IDelayPtr = 0;
 348              		.loc 1 172 0 is_stmt 1
 349 0062 0B4B     		ldr	r3, .L8+8
 350 0064 0022     		movs	r2, #0
 351 0066 1A70     		strb	r2, [r3]
 173:main.c        ****     debouunce_cntr = 0;
 352              		.loc 1 173 0
 353 0068 0A4B     		ldr	r3, .L8+12
 354 006a 0022     		movs	r2, #0
 355 006c 1A70     		strb	r2, [r3]
 174:main.c        ****     // Enable Filter Interrupt
 175:main.c        ****     isr_filter_StartEx(Filter_Handler);    
 356              		.loc 1 175 0
 357 006e 0A48     		ldr	r0, .L8+16
 358 0070 FFF7FEFF 		bl	isr_filter_StartEx
 176:main.c        **** 
 177:main.c        ****     // Enable Global Interrupts
 178:main.c        ****     CYGlobalIntEnable;
 359              		.loc 1 178 0
 360              		.syntax unified
 361              	@ 178 "main.c" 1
 362 0074 62B6     		CPSIE   i
 363              	@ 0 "" 2
 179:main.c        ****     
 180:main.c        ****     // Initialize the I2C CLCD
 181:main.c        ****     //I2C_1_Start();
 182:main.c        ****     //I2C_CLCD_Start();
 183:main.c        ****     //I2C_CLCD_Position(0u,0u);
 184:main.c        ****     //                   "0123456789012345"
 185:main.c        ****     //I2C_CLCD_PrintString("CW_Decoder      ");
 186:main.c        ****     //I2C_CLCD_Position(1u,0u);
 187:main.c        ****     //I2C_CLCD_PrintString("getting started" );
 188:main.c        ****     CyDelay(1000u);
 364              		.loc 1 188 0
 365              		.thumb
 366              		.syntax unified
 367 0076 4FF47A70 		mov	r0, #1000
 368 007a FFF7FEFF 		bl	CyDelay
 189:main.c        **** }
 369              		.loc 1 189 0
 370 007e 00BF     		nop
 371 0080 0837     		adds	r7, r7, #8
 372              		.cfi_def_cfa_offset 8
 373 0082 BD46     		mov	sp, r7
 374              		.cfi_def_cfa_register 13
 375              		@ sp needed
 376 0084 80BD     		pop	{r7, pc}
 377              	.L9:
ARM GAS  C:\Users\koseki\AppData\Local\Temp\ccrnawwQ.s 			page 11


 378 0086 00BF     		.align	2
 379              	.L8:
 380 0088 00000000 		.word	timerISR_1_Routine
 381 008c 00000000 		.word	IDelay
 382 0090 00000000 		.word	IDelayPtr
 383 0094 00000000 		.word	debouunce_cntr
 384 0098 00000000 		.word	Filter_Handler
 385              		.cfi_endproc
 386              	.LFE66:
 387              		.size	Initialize, .-Initialize
 388              		.section	.text.prvHardwareSetup,"ax",%progbits
 389              		.align	2
 390              		.global	prvHardwareSetup
 391              		.thumb
 392              		.thumb_func
 393              		.type	prvHardwareSetup, %function
 394              	prvHardwareSetup:
 395              	.LFB67:
 190:main.c        **** 
 191:main.c        **** //---------------------------------------------------------------------------
 192:main.c        **** void prvHardwareSetup( void )
 193:main.c        **** {
 396              		.loc 1 193 0
 397              		.cfi_startproc
 398              		@ args = 0, pretend = 0, frame = 0
 399              		@ frame_needed = 1, uses_anonymous_args = 0
 400              		@ link register save eliminated.
 401 0000 80B4     		push	{r7}
 402              		.cfi_def_cfa_offset 4
 403              		.cfi_offset 7, -4
 404 0002 00AF     		add	r7, sp, #0
 405              		.cfi_def_cfa_register 7
 194:main.c        ****     // Port layer functions that need to be copied into the vector table.
 195:main.c        ****     extern void xPortPendSVHandler( void );
 196:main.c        ****     extern void xPortSysTickHandler( void );
 197:main.c        ****     extern void vPortSVCHandler( void );
 198:main.c        ****     extern cyisraddress CyRamVectors[];
 199:main.c        **** 
 200:main.c        **** 	// Install the OS Interrupt Handlers.
 201:main.c        **** 	CyRamVectors[ 11 ] = ( cyisraddress ) vPortSVCHandler;
 406              		.loc 1 201 0
 407 0004 064B     		ldr	r3, .L11
 408 0006 074A     		ldr	r2, .L11+4
 409 0008 DA62     		str	r2, [r3, #44]
 202:main.c        **** 	CyRamVectors[ 14 ] = ( cyisraddress ) xPortPendSVHandler;
 410              		.loc 1 202 0
 411 000a 054B     		ldr	r3, .L11
 412 000c 064A     		ldr	r2, .L11+8
 413 000e 9A63     		str	r2, [r3, #56]
 203:main.c        **** 	CyRamVectors[ 15 ] = ( cyisraddress ) xPortSysTickHandler;
 414              		.loc 1 203 0
 415 0010 034B     		ldr	r3, .L11
 416 0012 064A     		ldr	r2, .L11+12
 417 0014 DA63     		str	r2, [r3, #60]
 204:main.c        ****     
 205:main.c        **** }
 418              		.loc 1 205 0
ARM GAS  C:\Users\koseki\AppData\Local\Temp\ccrnawwQ.s 			page 12


 419 0016 00BF     		nop
 420 0018 BD46     		mov	sp, r7
 421              		.cfi_def_cfa_register 13
 422              		@ sp needed
 423 001a 80BC     		pop	{r7}
 424              		.cfi_restore 7
 425              		.cfi_def_cfa_offset 0
 426 001c 7047     		bx	lr
 427              	.L12:
 428 001e 00BF     		.align	2
 429              	.L11:
 430 0020 00000000 		.word	CyRamVectors
 431 0024 00000000 		.word	vPortSVCHandler
 432 0028 00000000 		.word	xPortPendSVHandler
 433 002c 00000000 		.word	xPortSysTickHandler
 434              		.cfi_endproc
 435              	.LFE67:
 436              		.size	prvHardwareSetup, .-prvHardwareSetup
 437              		.section	.text.vApplicationStackOverflowHook,"ax",%progbits
 438              		.align	2
 439              		.global	vApplicationStackOverflowHook
 440              		.thumb
 441              		.thumb_func
 442              		.type	vApplicationStackOverflowHook, %function
 443              	vApplicationStackOverflowHook:
 444              	.LFB68:
 206:main.c        **** //---------------------------------------------------------------------------
 207:main.c        **** 
 208:main.c        **** void vApplicationStackOverflowHook( TaskHandle_t pxTask, char *pcTaskName )
 209:main.c        **** {
 445              		.loc 1 209 0
 446              		.cfi_startproc
 447              		@ args = 0, pretend = 0, frame = 8
 448              		@ frame_needed = 1, uses_anonymous_args = 0
 449 0000 80B5     		push	{r7, lr}
 450              		.cfi_def_cfa_offset 8
 451              		.cfi_offset 7, -8
 452              		.cfi_offset 14, -4
 453 0002 82B0     		sub	sp, sp, #8
 454              		.cfi_def_cfa_offset 16
 455 0004 00AF     		add	r7, sp, #0
 456              		.cfi_def_cfa_register 7
 457 0006 7860     		str	r0, [r7, #4]
 458 0008 3960     		str	r1, [r7]
 210:main.c        **** 	// The stack space has been execeeded for a task, considering allocating more.
 211:main.c        **** 	taskDISABLE_INTERRUPTS();
 459              		.loc 1 211 0
 460 000a FFF7FEFF 		bl	ulPortSetInterruptMask
 461              	.L14:
 212:main.c        **** 	for( ;; );
 462              		.loc 1 212 0 discriminator 1
 463 000e FEE7     		b	.L14
 464              		.cfi_endproc
 465              	.LFE68:
 466              		.size	vApplicationStackOverflowHook, .-vApplicationStackOverflowHook
 467              		.section	.text.vApplicationMallocFailedHook,"ax",%progbits
 468              		.align	2
ARM GAS  C:\Users\koseki\AppData\Local\Temp\ccrnawwQ.s 			page 13


 469              		.global	vApplicationMallocFailedHook
 470              		.thumb
 471              		.thumb_func
 472              		.type	vApplicationMallocFailedHook, %function
 473              	vApplicationMallocFailedHook:
 474              	.LFB69:
 213:main.c        **** }
 214:main.c        **** //---------------------------------------------------------------------------
 215:main.c        **** 
 216:main.c        **** void vApplicationMallocFailedHook( void )
 217:main.c        **** {
 475              		.loc 1 217 0
 476              		.cfi_startproc
 477              		@ args = 0, pretend = 0, frame = 0
 478              		@ frame_needed = 1, uses_anonymous_args = 0
 479 0000 80B5     		push	{r7, lr}
 480              		.cfi_def_cfa_offset 8
 481              		.cfi_offset 7, -8
 482              		.cfi_offset 14, -4
 483 0002 00AF     		add	r7, sp, #0
 484              		.cfi_def_cfa_register 7
 218:main.c        **** 	/* The heap space has been execeeded. */
 219:main.c        **** 	taskDISABLE_INTERRUPTS();
 485              		.loc 1 219 0
 486 0004 FFF7FEFF 		bl	ulPortSetInterruptMask
 487              	.L16:
 220:main.c        **** 	for( ;; );
 488              		.loc 1 220 0 discriminator 1
 489 0008 FEE7     		b	.L16
 490              		.cfi_endproc
 491              	.LFE69:
 492              		.size	vApplicationMallocFailedHook, .-vApplicationMallocFailedHook
 493              		.comm	tFlag,1,1
 494 000a 00BF     		.section	.text.timerISR_1_Routine,"ax",%progbits
 495              		.align	2
 496              		.global	timerISR_1_Routine
 497              		.thumb
 498              		.thumb_func
 499              		.type	timerISR_1_Routine, %function
 500              	timerISR_1_Routine:
 501              	.LFB70:
 221:main.c        **** }
 222:main.c        **** //---------------------------------------------------------------------------
 223:main.c        **** 
 224:main.c        **** //******************************************************************************
 225:main.c        **** //  Watchdog Timer ISR
 226:main.c        **** //******************************************************************************
 227:main.c        **** uint8 tFlag;
 228:main.c        **** 
 229:main.c        **** CY_ISR(timerISR_1_Routine)
 230:main.c        **** {
 502              		.loc 1 230 0
 503              		.cfi_startproc
 504              		@ args = 0, pretend = 0, frame = 0
 505              		@ frame_needed = 1, uses_anonymous_args = 0
 506 0000 80B5     		push	{r7, lr}
 507              		.cfi_def_cfa_offset 8
ARM GAS  C:\Users\koseki\AppData\Local\Temp\ccrnawwQ.s 			page 14


 508              		.cfi_offset 7, -8
 509              		.cfi_offset 14, -4
 510 0002 00AF     		add	r7, sp, #0
 511              		.cfi_def_cfa_register 7
 231:main.c        ****     tFlag = Timer_1_ReadStatusRegister();
 512              		.loc 1 231 0
 513 0004 FFF7FEFF 		bl	Timer_1_ReadStatusRegister
 514 0008 0346     		mov	r3, r0
 515 000a 1A46     		mov	r2, r3
 516 000c 024B     		ldr	r3, .L18
 517 000e 1A70     		strb	r2, [r3]
 232:main.c        ****     /* Clear WDT */
 233:main.c        ****     CyWdtClear();
 518              		.loc 1 233 0
 519 0010 FFF7FEFF 		bl	CyWdtClear
 234:main.c        **** }
 520              		.loc 1 234 0
 521 0014 00BF     		nop
 522 0016 80BD     		pop	{r7, pc}
 523              	.L19:
 524              		.align	2
 525              	.L18:
 526 0018 00000000 		.word	tFlag
 527              		.cfi_endproc
 528              	.LFE70:
 529              		.size	timerISR_1_Routine, .-timerISR_1_Routine
 530              		.section	.text.Task_LED,"ax",%progbits
 531              		.align	2
 532              		.global	Task_LED
 533              		.thumb
 534              		.thumb_func
 535              		.type	Task_LED, %function
 536              	Task_LED:
 537              	.LFB71:
 235:main.c        **** 
 236:main.c        **** 
 237:main.c        **** //***************************************************************************
 238:main.c        **** //	Task_LED
 239:main.c        **** //***************************************************************************
 240:main.c        **** void Task_LED(void *pvParameters)
 241:main.c        **** {
 538              		.loc 1 241 0
 539              		.cfi_startproc
 540              		@ args = 0, pretend = 0, frame = 16
 541              		@ frame_needed = 1, uses_anonymous_args = 0
 542 0000 80B5     		push	{r7, lr}
 543              		.cfi_def_cfa_offset 8
 544              		.cfi_offset 7, -8
 545              		.cfi_offset 14, -4
 546 0002 84B0     		sub	sp, sp, #16
 547              		.cfi_def_cfa_offset 24
 548 0004 00AF     		add	r7, sp, #0
 549              		.cfi_def_cfa_register 7
 550 0006 7860     		str	r0, [r7, #4]
 242:main.c        ****     // Block time in (ms)
 243:main.c        ****     const portTickType OnDelay = 1000 / portTICK_RATE_MS;
 551              		.loc 1 243 0
ARM GAS  C:\Users\koseki\AppData\Local\Temp\ccrnawwQ.s 			page 15


 552 0008 4FF47A73 		mov	r3, #1000
 553 000c FB60     		str	r3, [r7, #12]
 244:main.c        ****     const portTickType OffDelay = 1000 / portTICK_RATE_MS;
 554              		.loc 1 244 0
 555 000e 4FF47A73 		mov	r3, #1000
 556 0012 BB60     		str	r3, [r7, #8]
 557              	.L21:
 245:main.c        ****     
 246:main.c        ****     //Debug
 247:main.c        ****     char character;
 248:main.c        **** 
 249:main.c        ****     while(1)
 250:main.c        ****     {
 251:main.c        ****         LED_1_Write(1);
 558              		.loc 1 251 0 discriminator 1
 559 0014 0120     		movs	r0, #1
 560 0016 FFF7FEFF 		bl	LED_1_Write
 252:main.c        ****         vTaskDelay(OnDelay);
 561              		.loc 1 252 0 discriminator 1
 562 001a F868     		ldr	r0, [r7, #12]
 563 001c FFF7FEFF 		bl	vTaskDelay
 253:main.c        **** 
 254:main.c        ****         LED_1_Write(0);
 564              		.loc 1 254 0 discriminator 1
 565 0020 0020     		movs	r0, #0
 566 0022 FFF7FEFF 		bl	LED_1_Write
 255:main.c        ****         vTaskDelay(OffDelay);
 567              		.loc 1 255 0 discriminator 1
 568 0026 B868     		ldr	r0, [r7, #8]
 569 0028 FFF7FEFF 		bl	vTaskDelay
 256:main.c        ****         
 257:main.c        ****         //Debug
 258:main.c        ****         //character = '3';
 259:main.c        ****         //xQueueSend(xQueue_CHAR, &character, 0);
 260:main.c        **** 
 261:main.c        ****         
 262:main.c        ****     }
 570              		.loc 1 262 0 discriminator 1
 571 002c F2E7     		b	.L21
 572              		.cfi_endproc
 573              	.LFE71:
 574              		.size	Task_LED, .-Task_LED
 575 002e 00BF     		.section	.text.DMA_Config,"ax",%progbits
 576              		.align	2
 577              		.global	DMA_Config
 578              		.thumb
 579              		.thumb_func
 580              		.type	DMA_Config, %function
 581              	DMA_Config:
 582              	.LFB72:
 263:main.c        **** }
 264:main.c        **** 
 265:main.c        **** 
 266:main.c        **** 
 267:main.c        **** //***************************************************************************
 268:main.c        **** // Function Name: DMA_Config
 269:main.c        **** //***************************************************************************
ARM GAS  C:\Users\koseki\AppData\Local\Temp\ccrnawwQ.s 			page 16


 270:main.c        **** //
 271:main.c        **** // Summary:
 272:main.c        **** //  Initializes and sets up DMA for use (generated by DMA Wizard)
 273:main.c        **** //
 274:main.c        **** // Parameters:
 275:main.c        **** //  None.
 276:main.c        **** //
 277:main.c        **** // Return:
 278:main.c        **** //  None.
 279:main.c        **** //
 280:main.c        **** //***************************************************************************
 281:main.c        **** // DMA
 282:main.c        **** #define REQUEST_PER_BURST        (1u)
 283:main.c        **** #define BYTES_PER_BURST          (1u)
 284:main.c        **** #define UPPER_SRC_ADDRESS        CYDEV_PERIPH_BASE
 285:main.c        **** #define UPPER_DEST_ADDRESS       CYDEV_PERIPH_BASE
 286:main.c        **** 
 287:main.c        **** void DMA_Config(void)
 288:main.c        **** {
 583              		.loc 1 288 0
 584              		.cfi_startproc
 585              		@ args = 0, pretend = 0, frame = 8
 586              		@ frame_needed = 1, uses_anonymous_args = 0
 587 0000 80B5     		push	{r7, lr}
 588              		.cfi_def_cfa_offset 8
 589              		.cfi_offset 7, -8
 590              		.cfi_offset 14, -4
 591 0002 82B0     		sub	sp, sp, #8
 592              		.cfi_def_cfa_offset 16
 593 0004 00AF     		add	r7, sp, #0
 594              		.cfi_def_cfa_register 7
 289:main.c        ****     // Declare variable to hold the handle for DMA channel
 290:main.c        ****     uint8 channelHandle;
 291:main.c        **** 
 292:main.c        ****     // Declare DMA Transaction Descriptor for memory transfer into
 293:main.c        ****     // Filter Channel.
 294:main.c        ****     uint8 tdChanA;
 295:main.c        **** 
 296:main.c        ****     // Configure the DMA to Transfer the data in 1 burst with individual trigger
 297:main.c        ****     // for each burst.
 298:main.c        ****     channelHandle = DMA_DmaInitialize(BYTES_PER_BURST, REQUEST_PER_BURST,
 595              		.loc 1 298 0
 596 0006 4FF48043 		mov	r3, #16384
 597 000a 4FF48042 		mov	r2, #16384
 598 000e 0121     		movs	r1, #1
 599 0010 0120     		movs	r0, #1
 600 0012 FFF7FEFF 		bl	DMA_DmaInitialize
 601 0016 0346     		mov	r3, r0
 602 0018 FB71     		strb	r3, [r7, #7]
 299:main.c        ****                                         HI16(UPPER_SRC_ADDRESS), HI16(UPPER_DEST_ADDRESS));
 300:main.c        **** 
 301:main.c        ****     // This function allocates a TD for use with an initialized DMA channel
 302:main.c        ****     tdChanA = CyDmaTdAllocate();
 603              		.loc 1 302 0
 604 001a FFF7FEFF 		bl	CyDmaTdAllocate
 605 001e 0346     		mov	r3, r0
 606 0020 BB71     		strb	r3, [r7, #6]
ARM GAS  C:\Users\koseki\AppData\Local\Temp\ccrnawwQ.s 			page 17


 303:main.c        **** 
 304:main.c        ****     // Configure the tdChanA to transfer 1 byte with no next TD
 305:main.c        ****     CyDmaTdSetConfiguration(tdChanA, 1u, DMA_INVALID_TD, 0u);
 607              		.loc 1 305 0
 608 0022 B879     		ldrb	r0, [r7, #6]	@ zero_extendqisi2
 609 0024 0023     		movs	r3, #0
 610 0026 FF22     		movs	r2, #255
 611 0028 0121     		movs	r1, #1
 612 002a FFF7FEFF 		bl	CyDmaTdSetConfiguration
 306:main.c        **** 
 307:main.c        ****     // Set the source address as ADC_DelSig and the destination as
 308:main.c        ****     // Filter Channel A.
 309:main.c        ****     CyDmaTdSetAddress(tdChanA, LO16((uint32)ADC_DelSig_DEC_SAMP_PTR), LO16((uint32)Filter_STAGEAH_P
 613              		.loc 1 309 0
 614 002e BB79     		ldrb	r3, [r7, #6]	@ zero_extendqisi2
 615 0030 4CF2A272 		movw	r2, #51106
 616 0034 44F61061 		movw	r1, #19984
 617 0038 1846     		mov	r0, r3
 618 003a FFF7FEFF 		bl	CyDmaTdSetAddress
 310:main.c        **** 
 311:main.c        ****     // Set tdChanA to be the initial TD associated with channelHandle
 312:main.c        ****     CyDmaChSetInitialTd(channelHandle, tdChanA);
 619              		.loc 1 312 0
 620 003e BA79     		ldrb	r2, [r7, #6]	@ zero_extendqisi2
 621 0040 FB79     		ldrb	r3, [r7, #7]	@ zero_extendqisi2
 622 0042 1146     		mov	r1, r2
 623 0044 1846     		mov	r0, r3
 624 0046 FFF7FEFF 		bl	CyDmaChSetInitialTd
 313:main.c        **** 
 314:main.c        ****     // Enable the DMA channel represented by channelHandle and preserve the TD
 315:main.c        ****     CyDmaChEnable(channelHandle, 1u);
 625              		.loc 1 315 0
 626 004a FB79     		ldrb	r3, [r7, #7]	@ zero_extendqisi2
 627 004c 0121     		movs	r1, #1
 628 004e 1846     		mov	r0, r3
 629 0050 FFF7FEFF 		bl	CyDmaChEnable
 316:main.c        **** }
 630              		.loc 1 316 0
 631 0054 00BF     		nop
 632 0056 0837     		adds	r7, r7, #8
 633              		.cfi_def_cfa_offset 8
 634 0058 BD46     		mov	sp, r7
 635              		.cfi_def_cfa_register 13
 636              		@ sp needed
 637 005a 80BD     		pop	{r7, pc}
 638              		.cfi_endproc
 639              	.LFE72:
 640              		.size	DMA_Config, .-DMA_Config
 641              		.global	__aeabi_i2d
 642              		.global	__aeabi_dadd
 643              		.global	__aeabi_d2uiz
 644              		.section	.text.Filter_Handler,"ax",%progbits
 645              		.align	2
 646              		.global	Filter_Handler
 647              		.thumb
 648              		.thumb_func
 649              		.type	Filter_Handler, %function
ARM GAS  C:\Users\koseki\AppData\Local\Temp\ccrnawwQ.s 			page 18


 650              	Filter_Handler:
 651              	.LFB73:
 317:main.c        **** 
 318:main.c        **** 
 319:main.c        **** //*******************************************************************************
 320:main.c        **** // Filter Handler ISR
 321:main.c        **** //*******************************************************************************
 322:main.c        **** // Interrupt generated on Filter sample-ready. Interrupt handle:Filter_Handler
 323:main.c        **** //
 324:main.c        **** // Summary:
 325:main.c        **** //  The interrupt performs following functions:
 326:main.c        **** //   1: Reads the left-justified register for Filter Channel A
 327:main.c        **** //   2: Converts it into an unsigned RMS value
 328:main.c        **** //   3: Debouncing Tone signal every 5 msec
 329:main.c        **** //   4: Send debounced Tone signal to the TONE queue
 330:main.c        **** //
 331:main.c        **** //*******************************************************************************
 332:main.c        **** // Filter Handler
 333:main.c        **** #ifndef CORDIC
 334:main.c        ****     #define MLT_A  9           // V(mV) << 10 , V < 5000mV
 335:main.c        **** #else
 336:main.c        ****     #define MLT_A  10           // V(mV) << 10 , V < 5000mV
 337:main.c        **** #endif
 338:main.c        **** #define V_OFFSET    128u    // 2.048 V = 128 * 16 mV/bit
 339:main.c        **** #define SAMPLE_PER_SEC          16                // 16 ksps
 340:main.c        **** #define SAMPLES_TO_PROCESS_N    SAMPLE_PER_SEC * 5  // 1/(16ksps) * 80 = 5 ms
 341:main.c        **** //#define TONE_THRESHOLD          100     // threshold of accumulated signal RMS
 342:main.c        **** #define TONE_THRESHOLD          500     // threshold of accumulated signal RMS
 343:main.c        **** #define DEBOUNCE_THRESHOLD      2       // debounce time = 5 * (2 + 1) = 15 ms
 344:main.c        **** //#define DEBOUNCE_THRESHOLD      3       // debounce time = 5 * (3 + 1) = 20 ms
 345:main.c        **** 
 346:main.c        ****    
 347:main.c        **** CY_ISR(Filter_Handler)
 348:main.c        **** {
 652              		.loc 1 348 0
 653              		.cfi_startproc
 654              		@ args = 0, pretend = 0, frame = 8
 655              		@ frame_needed = 1, uses_anonymous_args = 0
 656 0000 B0B5     		push	{r4, r5, r7, lr}
 657              		.cfi_def_cfa_offset 16
 658              		.cfi_offset 4, -16
 659              		.cfi_offset 5, -12
 660              		.cfi_offset 7, -8
 661              		.cfi_offset 14, -4
 662 0002 82B0     		sub	sp, sp, #8
 663              		.cfi_def_cfa_offset 24
 664 0004 00AF     		add	r7, sp, #0
 665              		.cfi_def_cfa_register 7
 349:main.c        ****     int8    filter;
 350:main.c        ****     uint8   tone = 0;       // debounced tone signal
 666              		.loc 1 350 0
 667 0006 0023     		movs	r3, #0
 668 0008 BB71     		strb	r3, [r7, #6]
 351:main.c        ****     uint8   i;
 352:main.c        **** #ifndef CORDIC
 353:main.c        **** #else
 354:main.c        ****     int32   Ik0, Qk0;       // ampletude of filtered rx level << MltA
ARM GAS  C:\Users\koseki\AppData\Local\Temp\ccrnawwQ.s 			page 19


 355:main.c        ****     int32   Ikn, Qkn;       // used in CORDIC calculation
 356:main.c        **** #endif
 357:main.c        **** 
 358:main.c        ****     // Debug
 359:main.c        ****     MON_ISR_Write(1u);
 669              		.loc 1 359 0
 670 000a 0120     		movs	r0, #1
 671 000c FFF7FEFF 		bl	MON_ISR_Write
 360:main.c        **** 
 361:main.c        ****     filter = Filter_Read8(Filter_CHANNEL_A);
 672              		.loc 1 361 0
 673 0010 0020     		movs	r0, #0
 674 0012 FFF7FEFF 		bl	Filter_Read8
 675 0016 0346     		mov	r3, r0
 676 0018 FB71     		strb	r3, [r7, #7]
 362:main.c        ****     // clear flags except INTR_HOLDB
 363:main.c        ****     Filter_SR_REG = Filter_ALL_INTR & (~Filter_CHANNEL_B_INTR);
 677              		.loc 1 363 0
 678 001a 554B     		ldr	r3, .L31
 679 001c E822     		movs	r2, #232
 680 001e 1A70     		strb	r2, [r3]
 364:main.c        ****     // Send the Data to Queue
 365:main.c        ****     //xQueueSendFromISR(xQueue_FILTER, &filter, NULL);
 366:main.c        ****     
 367:main.c        **** #ifndef CORDIC
 368:main.c        ****     //******************************
 369:main.c        ****     //  CORRELATOR
 370:main.c        ****     //******************************
 371:main.c        **** 
 372:main.c        ****     int_cntr++;     // 5 ms counter
 681              		.loc 1 372 0
 682 0020 544B     		ldr	r3, .L31+4
 683 0022 1B78     		ldrb	r3, [r3]	@ zero_extendqisi2
 684 0024 0133     		adds	r3, r3, #1
 685 0026 DAB2     		uxtb	r2, r3
 686 0028 524B     		ldr	r3, .L31+4
 687 002a 1A70     		strb	r2, [r3]
 373:main.c        ****     sign_cntr++;    // 1.25ms (1 cycle of 800Hz) counter
 688              		.loc 1 373 0
 689 002c 524B     		ldr	r3, .L31+8
 690 002e 1B78     		ldrb	r3, [r3]	@ zero_extendqisi2
 691 0030 0133     		adds	r3, r3, #1
 692 0032 DAB2     		uxtb	r2, r3
 693 0034 504B     		ldr	r3, .L31+8
 694 0036 1A70     		strb	r2, [r3]
 374:main.c        ****     if (sign_cntr == SIGN_CNTR_CYCLE)
 695              		.loc 1 374 0
 696 0038 4F4B     		ldr	r3, .L31+8
 697 003a 1B78     		ldrb	r3, [r3]	@ zero_extendqisi2
 698 003c 142B     		cmp	r3, #20
 699 003e 02D1     		bne	.L24
 375:main.c        ****         sign_cntr = 0;
 700              		.loc 1 375 0
 701 0040 4D4B     		ldr	r3, .L31+8
 702 0042 0022     		movs	r2, #0
 703 0044 1A70     		strb	r2, [r3]
 704              	.L24:
ARM GAS  C:\Users\koseki\AppData\Local\Temp\ccrnawwQ.s 			page 20


 376:main.c        ****     
 377:main.c        ****     acc_v_sin += Sign_Sin[sign_cntr] * (int32)filter << MLT_A;
 705              		.loc 1 377 0
 706 0046 4C4B     		ldr	r3, .L31+8
 707 0048 1B78     		ldrb	r3, [r3]	@ zero_extendqisi2
 708 004a 1A46     		mov	r2, r3
 709 004c 4B4B     		ldr	r3, .L31+12
 710 004e 9B56     		ldrsb	r3, [r3, r2]
 711 0050 1A46     		mov	r2, r3
 712 0052 97F90730 		ldrsb	r3, [r7, #7]
 713 0056 03FB02F3 		mul	r3, r3, r2
 714 005a 5A02     		lsls	r2, r3, #9
 715 005c 484B     		ldr	r3, .L31+16
 716 005e 1B68     		ldr	r3, [r3]
 717 0060 1344     		add	r3, r3, r2
 718 0062 474A     		ldr	r2, .L31+16
 719 0064 1360     		str	r3, [r2]
 378:main.c        ****     acc_v_cos += Sign_Cos[sign_cntr] * (int32)filter << MLT_A;
 720              		.loc 1 378 0
 721 0066 444B     		ldr	r3, .L31+8
 722 0068 1B78     		ldrb	r3, [r3]	@ zero_extendqisi2
 723 006a 1A46     		mov	r2, r3
 724 006c 454B     		ldr	r3, .L31+20
 725 006e 9B56     		ldrsb	r3, [r3, r2]
 726 0070 1A46     		mov	r2, r3
 727 0072 97F90730 		ldrsb	r3, [r7, #7]
 728 0076 03FB02F3 		mul	r3, r3, r2
 729 007a 5A02     		lsls	r2, r3, #9
 730 007c 424B     		ldr	r3, .L31+24
 731 007e 1B68     		ldr	r3, [r3]
 732 0080 1344     		add	r3, r3, r2
 733 0082 414A     		ldr	r2, .L31+24
 734 0084 1360     		str	r3, [r2]
 379:main.c        **** 
 380:main.c        ****     //***************************
 381:main.c        ****     //  Tone debouncing (5 ms)
 382:main.c        ****     //***************************
 383:main.c        ****     if (int_cntr == SAMPLES_TO_PROCESS_N)     // 1/(16ksps) * 80 = 5 ms
 735              		.loc 1 383 0
 736 0086 3B4B     		ldr	r3, .L31+4
 737 0088 1B78     		ldrb	r3, [r3]	@ zero_extendqisi2
 738 008a 502B     		cmp	r3, #80
 739 008c 69D1     		bne	.L25
 384:main.c        ****     {
 385:main.c        ****         //acc_Vrms = sqrt(pow(acc_v_sin, 2) + pow(acc_v_cos, 2));
 386:main.c        ****         acc_Vrms = pow(acc_v_sin, 2) + pow(acc_v_cos, 2);
 740              		.loc 1 386 0
 741 008e 3C4B     		ldr	r3, .L31+16
 742 0090 1B68     		ldr	r3, [r3]
 743 0092 1846     		mov	r0, r3
 744 0094 FFF7FEFF 		bl	__aeabi_i2d
 745 0098 4FF00002 		mov	r2, #0
 746 009c 4FF08043 		mov	r3, #1073741824
 747 00a0 FFF7FEFF 		bl	pow
 748 00a4 0446     		mov	r4, r0
 749 00a6 0D46     		mov	r5, r1
 750 00a8 374B     		ldr	r3, .L31+24
ARM GAS  C:\Users\koseki\AppData\Local\Temp\ccrnawwQ.s 			page 21


 751 00aa 1B68     		ldr	r3, [r3]
 752 00ac 1846     		mov	r0, r3
 753 00ae FFF7FEFF 		bl	__aeabi_i2d
 754 00b2 4FF00002 		mov	r2, #0
 755 00b6 4FF08043 		mov	r3, #1073741824
 756 00ba FFF7FEFF 		bl	pow
 757 00be 0246     		mov	r2, r0
 758 00c0 0B46     		mov	r3, r1
 759 00c2 2046     		mov	r0, r4
 760 00c4 2946     		mov	r1, r5
 761 00c6 FFF7FEFF 		bl	__aeabi_dadd
 762 00ca 0346     		mov	r3, r0
 763 00cc 0C46     		mov	r4, r1
 764 00ce 1846     		mov	r0, r3
 765 00d0 2146     		mov	r1, r4
 766 00d2 FFF7FEFF 		bl	__aeabi_d2uiz
 767 00d6 0246     		mov	r2, r0
 768 00d8 2C4B     		ldr	r3, .L31+28
 769 00da 1A60     		str	r2, [r3]
 387:main.c        ****         // over the threshold ?
 388:main.c        ****         //if ((acc_Vrms >> MLT_A) > TONE_THRESHOLD)
 389:main.c        ****         if (acc_Vrms > 0x80000000)
 770              		.loc 1 389 0
 771 00dc 2B4B     		ldr	r3, .L31+28
 772 00de 1B68     		ldr	r3, [r3]
 773 00e0 B3F1004F 		cmp	r3, #-2147483648
 774 00e4 10D9     		bls	.L26
 390:main.c        ****         {
 391:main.c        ****             // signal detect
 392:main.c        ****             if (debouunce_cntr > DEBOUNCE_THRESHOLD)
 775              		.loc 1 392 0
 776 00e6 2A4B     		ldr	r3, .L31+32
 777 00e8 1B78     		ldrb	r3, [r3]	@ zero_extendqisi2
 778 00ea 022B     		cmp	r3, #2
 779 00ec 05D9     		bls	.L27
 393:main.c        ****             {
 394:main.c        ****                 tone = 1;
 780              		.loc 1 394 0
 781 00ee 0123     		movs	r3, #1
 782 00f0 BB71     		strb	r3, [r7, #6]
 395:main.c        ****                 LED_Write(1u);
 783              		.loc 1 395 0
 784 00f2 0120     		movs	r0, #1
 785 00f4 FFF7FEFF 		bl	LED_Write
 786 00f8 16E0     		b	.L29
 787              	.L27:
 396:main.c        ****             }
 397:main.c        ****             else
 398:main.c        ****                 debouunce_cntr++;
 788              		.loc 1 398 0
 789 00fa 254B     		ldr	r3, .L31+32
 790 00fc 1B78     		ldrb	r3, [r3]	@ zero_extendqisi2
 791 00fe 0133     		adds	r3, r3, #1
 792 0100 DAB2     		uxtb	r2, r3
 793 0102 234B     		ldr	r3, .L31+32
 794 0104 1A70     		strb	r2, [r3]
 795 0106 0FE0     		b	.L29
ARM GAS  C:\Users\koseki\AppData\Local\Temp\ccrnawwQ.s 			page 22


 796              	.L26:
 399:main.c        ****         }
 400:main.c        ****         else
 401:main.c        ****         {
 402:main.c        ****             // No signal
 403:main.c        ****             if (debouunce_cntr == 0)
 797              		.loc 1 403 0
 798 0108 214B     		ldr	r3, .L31+32
 799 010a 1B78     		ldrb	r3, [r3]	@ zero_extendqisi2
 800 010c 002B     		cmp	r3, #0
 801 010e 05D1     		bne	.L30
 404:main.c        ****             {
 405:main.c        ****                 tone = 0;
 802              		.loc 1 405 0
 803 0110 0023     		movs	r3, #0
 804 0112 BB71     		strb	r3, [r7, #6]
 406:main.c        ****                 LED_Write(0u);
 805              		.loc 1 406 0
 806 0114 0020     		movs	r0, #0
 807 0116 FFF7FEFF 		bl	LED_Write
 808 011a 05E0     		b	.L29
 809              	.L30:
 407:main.c        ****             }
 408:main.c        ****             else
 409:main.c        ****                 debouunce_cntr--;
 810              		.loc 1 409 0
 811 011c 1C4B     		ldr	r3, .L31+32
 812 011e 1B78     		ldrb	r3, [r3]	@ zero_extendqisi2
 813 0120 013B     		subs	r3, r3, #1
 814 0122 DAB2     		uxtb	r2, r3
 815 0124 1A4B     		ldr	r3, .L31+32
 816 0126 1A70     		strb	r2, [r3]
 817              	.L29:
 410:main.c        ****         }
 411:main.c        ****         // Send the Data to Queue
 412:main.c        ****         xQueueSendFromISR(xQueue_TONE, &tone, NULL);
 818              		.loc 1 412 0
 819 0128 1A4B     		ldr	r3, .L31+36
 820 012a 1868     		ldr	r0, [r3]
 821 012c B91D     		adds	r1, r7, #6
 822 012e 0023     		movs	r3, #0
 823 0130 0022     		movs	r2, #0
 824 0132 FFF7FEFF 		bl	xQueueGenericSendFromISR
 413:main.c        ****         
 414:main.c        ****         // Waveform Monitor
 415:main.c        ****         VDAC8_SetValue((int8)(acc_Vrms >> MLT_A));      // Morse Code
 825              		.loc 1 415 0
 826 0136 154B     		ldr	r3, .L31+28
 827 0138 1B68     		ldr	r3, [r3]
 828 013a 5B0A     		lsrs	r3, r3, #9
 829 013c DBB2     		uxtb	r3, r3
 830 013e 1846     		mov	r0, r3
 831 0140 FFF7FEFF 		bl	VDAC8_SetValue
 416:main.c        ****         // Init. variables
 417:main.c        ****         acc_Vrms = 0;
 832              		.loc 1 417 0
 833 0144 114B     		ldr	r3, .L31+28
ARM GAS  C:\Users\koseki\AppData\Local\Temp\ccrnawwQ.s 			page 23


 834 0146 0022     		movs	r2, #0
 835 0148 1A60     		str	r2, [r3]
 418:main.c        ****         acc_v_sin = 0;
 836              		.loc 1 418 0
 837 014a 0D4B     		ldr	r3, .L31+16
 838 014c 0022     		movs	r2, #0
 839 014e 1A60     		str	r2, [r3]
 419:main.c        ****         acc_v_cos = 0;
 840              		.loc 1 419 0
 841 0150 0D4B     		ldr	r3, .L31+24
 842 0152 0022     		movs	r2, #0
 843 0154 1A60     		str	r2, [r3]
 420:main.c        ****         int_cntr = 0;
 844              		.loc 1 420 0
 845 0156 074B     		ldr	r3, .L31+4
 846 0158 0022     		movs	r2, #0
 847 015a 1A70     		strb	r2, [r3]
 421:main.c        ****         sign_cntr = 0;
 848              		.loc 1 421 0
 849 015c 064B     		ldr	r3, .L31+8
 850 015e 0022     		movs	r2, #0
 851 0160 1A70     		strb	r2, [r3]
 852              	.L25:
 422:main.c        ****     }
 423:main.c        **** #else    
 424:main.c        ****     //******************************
 425:main.c        ****     //  CORDIC
 426:main.c        ****     //******************************
 427:main.c        ****     Ik0 = (int32)filter << MLT_A;             // I input
 428:main.c        ****     IDelay[IDelayPtr] = Ik0;                  // put shifter
 429:main.c        ****     // Q input = I + pi/2
 430:main.c        ****     // 2pi = 16ksps / 800Hz = 20 samples, pi/2 = 5 sample
 431:main.c        ****     Qk0 = IDelay[(IDelayPtr - 5) & 0x07];
 432:main.c        ****     // increment the pointer
 433:main.c        ****     IDelayPtr = (IDelayPtr + 1) & 0x07;
 434:main.c        ****     
 435:main.c        ****     if (Ik0 < 0)                     // I axsis > 0 for CORDIC
 436:main.c        ****         Ik0 = -Ik0;
 437:main.c        ****     Ikn = 0;     // (n)th of Real Value     * 2^MLT_A
 438:main.c        ****     Qkn = 0;     // (n)th of Imaginal Value * 2^MLT_A
 439:main.c        ****     // CORDIC(12bit)
 440:main.c        ****     for (i = 0; i < 12; i++)
 441:main.c        ****     {
 442:main.c        ****         if (Qk0 >= 0)
 443:main.c        ****         {
 444:main.c        ****             Ikn = Ik0 + (Qk0 >> i);
 445:main.c        ****             Qkn = Qk0 - (Ik0 >> i);
 446:main.c        ****         }
 447:main.c        ****         else
 448:main.c        ****         {
 449:main.c        ****             Ikn = Ik0 - (Qk0 >> i);
 450:main.c        ****             Qkn = Qk0 + (Ik0 >> i);
 451:main.c        ****         }
 452:main.c        ****         Ik0 = Ikn;
 453:main.c        ****         Qk0 = Qkn;
 454:main.c        ****     }
 455:main.c        ****     acc_Vrms += Ikn;   // rms
ARM GAS  C:\Users\koseki\AppData\Local\Temp\ccrnawwQ.s 			page 24


 456:main.c        ****     
 457:main.c        ****     int_cntr++; // 5 ms counter
 458:main.c        **** 
 459:main.c        ****     // Waveform Monitor
 460:main.c        ****     //VDAC8_SetValue((int8)(Ikn >> MLT_A));      // Morse Code
 461:main.c        **** 
 462:main.c        ****     //***************************
 463:main.c        ****     //  Tone debouncing (5 ms)
 464:main.c        ****     //***************************
 465:main.c        ****     if (int_cntr == SAMPLES_TO_PROCESS_N)     // 1/(16ksps) * 80 = 5 ms
 466:main.c        ****     {
 467:main.c        ****         // over the threshold ?
 468:main.c        ****         //if ((acc_Vrms >> MLT_A) > (uint32)(Status_Reg_1_Read() << 3))
 469:main.c        ****         if ((acc_Vrms >> MLT_A) > TONE_THRESHOLD)
 470:main.c        ****         {
 471:main.c        ****             // signal detect
 472:main.c        ****             if (debouunce_cntr > DEBOUNCE_THRESHOLD)
 473:main.c        ****             {
 474:main.c        ****                 tone = 1;
 475:main.c        ****                 LED_Write(1u);
 476:main.c        ****             }
 477:main.c        ****             else
 478:main.c        ****                 debouunce_cntr++;
 479:main.c        ****         }
 480:main.c        ****         else
 481:main.c        ****         {
 482:main.c        ****             // No signal
 483:main.c        ****             if (debouunce_cntr == 0)
 484:main.c        ****             {
 485:main.c        ****                 tone = 0;
 486:main.c        ****                 LED_Write(0u);
 487:main.c        ****             }
 488:main.c        ****             else
 489:main.c        ****                 debouunce_cntr--;
 490:main.c        ****         }
 491:main.c        ****         // Send the Data to Queue
 492:main.c        ****         xQueueSendFromISR(xQueue_TONE, &tone, NULL);
 493:main.c        ****         
 494:main.c        ****         // Waveform Monitor
 495:main.c        ****         VDAC8_SetValue((int8)(acc_Vrms >> (MLT_A + 3)));      // Morse Code
 496:main.c        ****         // Init. variables
 497:main.c        ****         acc_Vrms = 0;
 498:main.c        ****         int_cntr = 0;
 499:main.c        ****     }
 500:main.c        **** #endif
 501:main.c        ****     // Debug
 502:main.c        ****     MON_ISR_Write(0u);
 853              		.loc 1 502 0
 854 0162 0020     		movs	r0, #0
 855 0164 FFF7FEFF 		bl	MON_ISR_Write
 503:main.c        **** }
 856              		.loc 1 503 0
 857 0168 00BF     		nop
 858 016a 0837     		adds	r7, r7, #8
 859              		.cfi_def_cfa_offset 16
 860 016c BD46     		mov	sp, r7
 861              		.cfi_def_cfa_register 13
ARM GAS  C:\Users\koseki\AppData\Local\Temp\ccrnawwQ.s 			page 25


 862              		@ sp needed
 863 016e B0BD     		pop	{r4, r5, r7, pc}
 864              	.L32:
 865              		.align	2
 866              	.L31:
 867 0170 84C70040 		.word	1073792900
 868 0174 00000000 		.word	int_cntr
 869 0178 00000000 		.word	sign_cntr
 870 017c 00000000 		.word	Sign_Sin
 871 0180 00000000 		.word	acc_v_sin
 872 0184 00000000 		.word	Sign_Cos
 873 0188 00000000 		.word	acc_v_cos
 874 018c 00000000 		.word	acc_Vrms
 875 0190 00000000 		.word	debouunce_cntr
 876 0194 00000000 		.word	xQueue_TONE
 877              		.cfi_endproc
 878              	.LFE73:
 879              		.size	Filter_Handler, .-Filter_Handler
 880              		.section	.text.Task_TONE,"ax",%progbits
 881              		.align	2
 882              		.global	Task_TONE
 883              		.thumb
 884              		.thumb_func
 885              		.type	Task_TONE, %function
 886              	Task_TONE:
 887              	.LFB74:
 504:main.c        **** 
 505:main.c        **** 
 506:main.c        **** //***************************************************************************
 507:main.c        **** //	Task_TONE
 508:main.c        **** //***************************************************************************
 509:main.c        **** // Tone Detection
 510:main.c        **** #define DIT_DEFAULT             12			// Default values for 20WPM
 511:main.c        **** #define DAH_DEFAULT             36	
 512:main.c        **** #define THRESHOLD_DEFAULT       (DAH_DEFAULT + DIT_DEFAULT)/2
 513:main.c        **** #define NB_LEARN_PERIODS      5 * 255
 514:main.c        **** //#define NB_LEARN_PERIODS        3 * 255
 515:main.c        **** #define DAH_UPPER_LIMIT         18    // 18 * 5 msec (40WPM)
 516:main.c        **** #define DAH_LOWER_LIMIT         75    // 75 * 5 msec (10WPM)
 517:main.c        **** 
 518:main.c        **** void Task_TONE(void *pvParameters)
 519:main.c        **** {
 888              		.loc 1 519 0
 889              		.cfi_startproc
 890              		@ args = 0, pretend = 0, frame = 64
 891              		@ frame_needed = 1, uses_anonymous_args = 0
 892 0000 80B5     		push	{r7, lr}
 893              		.cfi_def_cfa_offset 8
 894              		.cfi_offset 7, -8
 895              		.cfi_offset 14, -4
 896 0002 90B0     		sub	sp, sp, #64
 897              		.cfi_def_cfa_offset 72
 898 0004 00AF     		add	r7, sp, #0
 899              		.cfi_def_cfa_register 7
 900 0006 7860     		str	r0, [r7, #4]
 520:main.c        ****     uint8   tone = 0;           // received from xQueue_TONE, 0: No-tone, 1: Tone detected
 901              		.loc 1 520 0
ARM GAS  C:\Users\koseki\AppData\Local\Temp\ccrnawwQ.s 			page 26


 902 0008 0023     		movs	r3, #0
 903 000a 87F82130 		strb	r3, [r7, #33]
 521:main.c        ****     uint8   last_tone = 0;      // last received tone
 904              		.loc 1 521 0
 905 000e 0023     		movs	r3, #0
 906 0010 87F83F30 		strb	r3, [r7, #63]
 522:main.c        ****     uint8   tone_flag = 0;      // Tone detected
 907              		.loc 1 522 0
 908 0014 0023     		movs	r3, #0
 909 0016 87F83E30 		strb	r3, [r7, #62]
 523:main.c        ****     uint8   pause_flag = 0;     // Processing symbol
 910              		.loc 1 523 0
 911 001a 0023     		movs	r3, #0
 912 001c 87F83D30 		strb	r3, [r7, #61]
 524:main.c        ****     uint8   reset_flag = 0;     // Idle counter expired
 913              		.loc 1 524 0
 914 0020 0023     		movs	r3, #0
 915 0022 87F83C30 		strb	r3, [r7, #60]
 525:main.c        ****     uint8   i;
 526:main.c        ****     const   portTickType xDelay = 2 / portTICK_RATE_MS;
 916              		.loc 1 526 0
 917 0026 0223     		movs	r3, #2
 918 0028 7B62     		str	r3, [r7, #36]
 527:main.c        **** 
 528:main.c        ****     uint16  _Counter5ms = 0;    // 5ms counter
 919              		.loc 1 528 0
 920 002a 0023     		movs	r3, #0
 921 002c 3B87     		strh	r3, [r7, #56]	@ movhi
 529:main.c        **** 
 530:main.c        ****     uint16  ditptr;     // BLK		1		; Pointer to DIT buffer
 531:main.c        ****     uint16  ditvals[4]; // BLK		4		; DIT buffer
 532:main.c        ****     uint16  ditave;     // BLK		1		; Average of DIT periods
 533:main.c        ****     uint16  dahptr;     // BLK		1		; Pointer to DASH buffer
 534:main.c        ****     uint16  dahvals[4]; // BLK		4		; DASH buffer
 535:main.c        ****     uint16  dahave;     // BLK		1		; Average of DASH periods
 536:main.c        ****     uint16  new_dahave; // BLK		1		; calculated Average of DASH periods
 537:main.c        **** 
 538:main.c        ****     uint16  threshold;  // BLK		1		; Symbol detection threshold	
 539:main.c        ****     uint16  new_threshold;  // BLK		1	; Symbol detection threshold	
 540:main.c        ****     uint16  period;     // BLK		1		; Gets last period measurement
 541:main.c        ****     uint16  code;       // BLK		1		; Variables for decoding: code mask
 542:main.c        ****     uint16  mask;       // BLK		1		; ""
 543:main.c        ****     uint16  character;  // BLK		1		; Last decoded character
 544:main.c        ****     
 545:main.c        ****     uint16  dit_cntr;   // watch doc for 16 continuous dit.
 546:main.c        ****     uint16  dah_cntr;   // watch doc for 16 continuous dah.
 547:main.c        ****     
 548:main.c        ****     //  code 0bxxxx xxxx
 549:main.c        ****     //      bit0    : 1st symbol    0: DASH, 1: DIT
 550:main.c        ****     //      bit1    : 2nd symbol    0: DASH, 1: DIT
 551:main.c        ****     //      bit2    : 3rd symbol    0: DASH, 1: DIT
 552:main.c        ****     //      bit3    : 4th symbol    0: DASH, 1: DIT
 553:main.c        ****     //      bit4    : 5th symbol    0: DASH, 1: DIT
 554:main.c        ****     //      bit5    : 6th symbol    0: DASH, 1: DIT
 555:main.c        ****     //      end of symbol (bit2 ~ bit6) = mask << 1
 556:main.c        ****     //
 557:main.c        ****     //      (e.g.)
ARM GAS  C:\Users\koseki\AppData\Local\Temp\ccrnawwQ.s 			page 27


 558:main.c        ****     //      'w' : .-- (+end of symbol)
 559:main.c        ****     //              2^0*1 + 2^1*0 + 2^2*0 + 2^3*1 = 0b0000 1001 = 9 
 560:main.c        ****     //      'f' : ..-. (+end of symbol)
 561:main.c        ****     //              2^0*1 + 2^1*1 + 2^2*0 + 2^3*1 + 2^4*1 = 0b0001 1011 = 27 
 562:main.c        ****     //
 563:main.c        ****     //  mask 0bxxxx xxxx
 564:main.c        ****     //      bit0    : 1st symbol    0b0000 0001 (initial value)
 565:main.c        ****     //      bit1    : 2nd symbol    0b0000 0010 (processing symbol)
 566:main.c        ****     //      bit2    : 3rd symbol    0b0000 0100 (processing symbol)
 567:main.c        ****     //      bit3    : 4th symbol    0b0000 1000 (processing symbol)
 568:main.c        ****     //      bit4    : 5th symbol    0b0001 0000 (processing symbol)
 569:main.c        ****     //      bit5    : 6th symbol    0b0010 0000 (processing symbol)
 570:main.c        ****     //
 571:main.c        ****     
 572:main.c        ****     reset_flag = 1;
 922              		.loc 1 572 0
 923 002e 0123     		movs	r3, #1
 924 0030 87F83C30 		strb	r3, [r7, #60]
 925              	.L59:
 573:main.c        ****     
 574:main.c        ****     // Main Loop
 575:main.c        ****     while(1)
 576:main.c        ****     {
 577:main.c        ****         TONE_Write(1);  // Debug
 926              		.loc 1 577 0
 927 0034 0120     		movs	r0, #1
 928 0036 FFF7FEFF 		bl	TONE_Write
 578:main.c        **** 
 579:main.c        ****         if (reset_flag == 1)
 929              		.loc 1 579 0
 930 003a 97F83C30 		ldrb	r3, [r7, #60]	@ zero_extendqisi2
 931 003e 012B     		cmp	r3, #1
 932 0040 5CD1     		bne	.L34
 580:main.c        ****         {
 581:main.c        ****             // reset learning (20WPM)
 582:main.c        ****             reset_flag = 0;
 933              		.loc 1 582 0
 934 0042 0023     		movs	r3, #0
 935 0044 87F83C30 		strb	r3, [r7, #60]
 583:main.c        **** 
 584:main.c        ****             for (i = 0; i < 4; i++)
 936              		.loc 1 584 0
 937 0048 0023     		movs	r3, #0
 938 004a 87F83B30 		strb	r3, [r7, #59]
 939 004e 0DE0     		b	.L35
 940              	.L36:
 585:main.c        ****                ditvals[i] = DIT_DEFAULT;
 941              		.loc 1 585 0 discriminator 3
 942 0050 97F83B30 		ldrb	r3, [r7, #59]	@ zero_extendqisi2
 943 0054 5B00     		lsls	r3, r3, #1
 944 0056 07F14002 		add	r2, r7, #64
 945 005a 1344     		add	r3, r3, r2
 946 005c 0C22     		movs	r2, #12
 947 005e 23F8282C 		strh	r2, [r3, #-40]	@ movhi
 584:main.c        ****                ditvals[i] = DIT_DEFAULT;
 948              		.loc 1 584 0 discriminator 3
 949 0062 97F83B30 		ldrb	r3, [r7, #59]	@ zero_extendqisi2
ARM GAS  C:\Users\koseki\AppData\Local\Temp\ccrnawwQ.s 			page 28


 950 0066 0133     		adds	r3, r3, #1
 951 0068 87F83B30 		strb	r3, [r7, #59]
 952              	.L35:
 584:main.c        ****                ditvals[i] = DIT_DEFAULT;
 953              		.loc 1 584 0 is_stmt 0 discriminator 1
 954 006c 97F83B30 		ldrb	r3, [r7, #59]	@ zero_extendqisi2
 955 0070 032B     		cmp	r3, #3
 956 0072 EDD9     		bls	.L36
 586:main.c        ****             ditptr = 0;
 957              		.loc 1 586 0 is_stmt 1
 958 0074 0023     		movs	r3, #0
 959 0076 FB86     		strh	r3, [r7, #54]	@ movhi
 587:main.c        ****             ditave = DIT_DEFAULT;
 960              		.loc 1 587 0
 961 0078 0C23     		movs	r3, #12
 962 007a BB86     		strh	r3, [r7, #52]	@ movhi
 588:main.c        ****             for (i = 0; i < 4; i++)
 963              		.loc 1 588 0
 964 007c 0023     		movs	r3, #0
 965 007e 87F83B30 		strb	r3, [r7, #59]
 966 0082 0DE0     		b	.L37
 967              	.L38:
 589:main.c        ****                dahvals[i] = DAH_DEFAULT;
 968              		.loc 1 589 0 discriminator 3
 969 0084 97F83B30 		ldrb	r3, [r7, #59]	@ zero_extendqisi2
 970 0088 5B00     		lsls	r3, r3, #1
 971 008a 07F14002 		add	r2, r7, #64
 972 008e 1344     		add	r3, r3, r2
 973 0090 2422     		movs	r2, #36
 974 0092 23F8302C 		strh	r2, [r3, #-48]	@ movhi
 588:main.c        ****             for (i = 0; i < 4; i++)
 975              		.loc 1 588 0 discriminator 3
 976 0096 97F83B30 		ldrb	r3, [r7, #59]	@ zero_extendqisi2
 977 009a 0133     		adds	r3, r3, #1
 978 009c 87F83B30 		strb	r3, [r7, #59]
 979              	.L37:
 588:main.c        ****             for (i = 0; i < 4; i++)
 980              		.loc 1 588 0 is_stmt 0 discriminator 1
 981 00a0 97F83B30 		ldrb	r3, [r7, #59]	@ zero_extendqisi2
 982 00a4 032B     		cmp	r3, #3
 983 00a6 EDD9     		bls	.L38
 590:main.c        ****             dahptr = 0;
 984              		.loc 1 590 0 is_stmt 1
 985 00a8 0023     		movs	r3, #0
 986 00aa 7B86     		strh	r3, [r7, #50]	@ movhi
 591:main.c        ****             dahave = DAH_DEFAULT;
 987              		.loc 1 591 0
 988 00ac 2423     		movs	r3, #36
 989 00ae FB81     		strh	r3, [r7, #14]	@ movhi
 592:main.c        ****             new_dahave = DAH_DEFAULT;
 990              		.loc 1 592 0
 991 00b0 2423     		movs	r3, #36
 992 00b2 3B86     		strh	r3, [r7, #48]	@ movhi
 593:main.c        ****             dit_cntr = 0;
 993              		.loc 1 593 0
 994 00b4 0023     		movs	r3, #0
 995 00b6 7B85     		strh	r3, [r7, #42]	@ movhi
ARM GAS  C:\Users\koseki\AppData\Local\Temp\ccrnawwQ.s 			page 29


 594:main.c        ****             dah_cntr = 0;
 996              		.loc 1 594 0
 997 00b8 0023     		movs	r3, #0
 998 00ba 3B85     		strh	r3, [r7, #40]	@ movhi
 595:main.c        **** 
 596:main.c        ****             code = 0x00;           // initial code
 999              		.loc 1 596 0
 1000 00bc 0023     		movs	r3, #0
 1001 00be 7B81     		strh	r3, [r7, #10]	@ movhi
 597:main.c        ****             mask = 0x01;           // initial position : 0b00000001
 1002              		.loc 1 597 0
 1003 00c0 0123     		movs	r3, #1
 1004 00c2 BB85     		strh	r3, [r7, #44]	@ movhi
 598:main.c        **** 
 599:main.c        ****             threshold = THRESHOLD_DEFAULT;
 1005              		.loc 1 599 0
 1006 00c4 1823     		movs	r3, #24
 1007 00c6 BB81     		strh	r3, [r7, #12]	@ movhi
 600:main.c        ****             
 601:main.c        ****             // display the reset state on CLCD
 602:main.c        ****             xQueueSend(xQueue_WPM, &code, 0);
 1008              		.loc 1 602 0
 1009 00c8 A24B     		ldr	r3, .L60
 1010 00ca 1868     		ldr	r0, [r3]
 1011 00cc 07F10A01 		add	r1, r7, #10
 1012 00d0 0023     		movs	r3, #0
 1013 00d2 0022     		movs	r2, #0
 1014 00d4 FFF7FEFF 		bl	xQueueGenericSend
 603:main.c        ****             xQueueSend(xQueue_TH, &threshold, 0);
 1015              		.loc 1 603 0
 1016 00d8 9F4B     		ldr	r3, .L60+4
 1017 00da 1868     		ldr	r0, [r3]
 1018 00dc 07F10C01 		add	r1, r7, #12
 1019 00e0 0023     		movs	r3, #0
 1020 00e2 0022     		movs	r2, #0
 1021 00e4 FFF7FEFF 		bl	xQueueGenericSend
 604:main.c        ****             // send ESC code to clear the line
 605:main.c        ****             character = 0x1b;
 1022              		.loc 1 605 0
 1023 00e8 1B23     		movs	r3, #27
 1024 00ea 3B81     		strh	r3, [r7, #8]	@ movhi
 606:main.c        ****             xQueueSend(xQueue_CHAR, &character, 0);
 1025              		.loc 1 606 0
 1026 00ec 9B4B     		ldr	r3, .L60+8
 1027 00ee 1868     		ldr	r0, [r3]
 1028 00f0 07F10801 		add	r1, r7, #8
 1029 00f4 0023     		movs	r3, #0
 1030 00f6 0022     		movs	r2, #0
 1031 00f8 FFF7FEFF 		bl	xQueueGenericSend
 1032              	.L34:
 607:main.c        ****         }
 608:main.c        ****         
 609:main.c        ****         if (uxQueueMessagesWaiting(xQueue_TONE) > 0)
 1033              		.loc 1 609 0
 1034 00fc 984B     		ldr	r3, .L60+12
 1035 00fe 1B68     		ldr	r3, [r3]
 1036 0100 1846     		mov	r0, r3
ARM GAS  C:\Users\koseki\AppData\Local\Temp\ccrnawwQ.s 			page 30


 1037 0102 FFF7FEFF 		bl	uxQueueMessagesWaiting
 1038 0106 0346     		mov	r3, r0
 1039 0108 002B     		cmp	r3, #0
 1040 010a 54D0     		beq	.L39
 610:main.c        ****         {
 611:main.c        ****             xQueueReceive(xQueue_TONE, &tone, 0);
 1041              		.loc 1 611 0
 1042 010c 944B     		ldr	r3, .L60+12
 1043 010e 1868     		ldr	r0, [r3]
 1044 0110 07F12101 		add	r1, r7, #33
 1045 0114 0023     		movs	r3, #0
 1046 0116 0022     		movs	r2, #0
 1047 0118 FFF7FEFF 		bl	xQueueGenericReceive
 612:main.c        ****             // TOne Monitor
 613:main.c        ****             //TONE_Write(tone);
 614:main.c        ****             period = (uint8)_Counter5ms;
 1048              		.loc 1 614 0
 1049 011c 3B8F     		ldrh	r3, [r7, #56]	@ movhi
 1050 011e DBB2     		uxtb	r3, r3
 1051 0120 FB85     		strh	r3, [r7, #46]	@ movhi
 615:main.c        ****             
 616:main.c        ****             if (tone == 0 && last_tone > 0)    // Tone detected
 1052              		.loc 1 616 0
 1053 0122 97F82130 		ldrb	r3, [r7, #33]	@ zero_extendqisi2
 1054 0126 002B     		cmp	r3, #0
 1055 0128 09D1     		bne	.L40
 1056              		.loc 1 616 0 is_stmt 0 discriminator 1
 1057 012a 97F83F30 		ldrb	r3, [r7, #63]	@ zero_extendqisi2
 1058 012e 002B     		cmp	r3, #0
 1059 0130 05D0     		beq	.L40
 617:main.c        ****             {
 618:main.c        ****                 tone_flag = 1;
 1060              		.loc 1 618 0 is_stmt 1
 1061 0132 0123     		movs	r3, #1
 1062 0134 87F83E30 		strb	r3, [r7, #62]
 619:main.c        ****                 _Counter5ms = 0;
 1063              		.loc 1 619 0
 1064 0138 0023     		movs	r3, #0
 1065 013a 3B87     		strh	r3, [r7, #56]	@ movhi
 1066 013c 37E0     		b	.L41
 1067              	.L40:
 620:main.c        ****             }
 621:main.c        ****             else if (tone > 0 && last_tone == 0)    // Pause detected
 1068              		.loc 1 621 0
 1069 013e 97F82130 		ldrb	r3, [r7, #33]	@ zero_extendqisi2
 1070 0142 002B     		cmp	r3, #0
 1071 0144 09D0     		beq	.L42
 1072              		.loc 1 621 0 is_stmt 0 discriminator 1
 1073 0146 97F83F30 		ldrb	r3, [r7, #63]	@ zero_extendqisi2
 1074 014a 002B     		cmp	r3, #0
 1075 014c 05D1     		bne	.L42
 622:main.c        ****             {
 623:main.c        ****                 pause_flag = 1;
 1076              		.loc 1 623 0 is_stmt 1
 1077 014e 0123     		movs	r3, #1
 1078 0150 87F83D30 		strb	r3, [r7, #61]
 624:main.c        ****                 _Counter5ms = 0;
ARM GAS  C:\Users\koseki\AppData\Local\Temp\ccrnawwQ.s 			page 31


 1079              		.loc 1 624 0
 1080 0154 0023     		movs	r3, #0
 1081 0156 3B87     		strh	r3, [r7, #56]	@ movhi
 1082 0158 29E0     		b	.L41
 1083              	.L42:
 625:main.c        ****             }
 626:main.c        ****             // if there is a processing symbol, then set pause flag to complete cnvert.
 627:main.c        ****             else if (mask > 1 && _Counter5ms > threshold * 4)
 1084              		.loc 1 627 0
 1085 015a BB8D     		ldrh	r3, [r7, #44]
 1086 015c 012B     		cmp	r3, #1
 1087 015e 0AD9     		bls	.L43
 1088              		.loc 1 627 0 is_stmt 0 discriminator 1
 1089 0160 3A8F     		ldrh	r2, [r7, #56]
 1090 0162 BB89     		ldrh	r3, [r7, #12]
 1091 0164 9B00     		lsls	r3, r3, #2
 1092 0166 9A42     		cmp	r2, r3
 1093 0168 05DD     		ble	.L43
 628:main.c        ****             {
 629:main.c        ****                 pause_flag = 1;
 1094              		.loc 1 629 0 is_stmt 1
 1095 016a 0123     		movs	r3, #1
 1096 016c 87F83D30 		strb	r3, [r7, #61]
 630:main.c        ****                 _Counter5ms = 0;
 1097              		.loc 1 630 0
 1098 0170 0023     		movs	r3, #0
 1099 0172 3B87     		strh	r3, [r7, #56]	@ movhi
 1100 0174 1BE0     		b	.L41
 1101              	.L43:
 631:main.c        ****             }
 632:main.c        ****             else
 633:main.c        ****             {
 634:main.c        ****                 // increment 5ms counter
 635:main.c        ****                 _Counter5ms++;
 1102              		.loc 1 635 0
 1103 0176 3B8F     		ldrh	r3, [r7, #56]
 1104 0178 0133     		adds	r3, r3, #1
 1105 017a 3B87     		strh	r3, [r7, #56]	@ movhi
 636:main.c        ****                 
 637:main.c        ****                 //if ((_Counter5ms % 0x80) == 0)
 638:main.c        ****                 if ((_Counter5ms % 0x100) == 0)     // koseki(2021.8.10)
 1106              		.loc 1 638 0
 1107 017c 3B8F     		ldrh	r3, [r7, #56]	@ movhi
 1108 017e DBB2     		uxtb	r3, r3
 1109 0180 9BB2     		uxth	r3, r3
 1110 0182 002B     		cmp	r3, #0
 1111 0184 09D1     		bne	.L44
 639:main.c        ****                 {
 640:main.c        ****                     character = ' ';
 1112              		.loc 1 640 0
 1113 0186 2023     		movs	r3, #32
 1114 0188 3B81     		strh	r3, [r7, #8]	@ movhi
 641:main.c        ****                     xQueueSend(xQueue_CHAR, &character, 0);
 1115              		.loc 1 641 0
 1116 018a 744B     		ldr	r3, .L60+8
 1117 018c 1868     		ldr	r0, [r3]
 1118 018e 07F10801 		add	r1, r7, #8
ARM GAS  C:\Users\koseki\AppData\Local\Temp\ccrnawwQ.s 			page 32


 1119 0192 0023     		movs	r3, #0
 1120 0194 0022     		movs	r2, #0
 1121 0196 FFF7FEFF 		bl	xQueueGenericSend
 1122              	.L44:
 642:main.c        ****                 }
 643:main.c        ****                 if (_Counter5ms > NB_LEARN_PERIODS)
 1123              		.loc 1 643 0
 1124 019a 3B8F     		ldrh	r3, [r7, #56]
 1125 019c 40F2FB42 		movw	r2, #1275
 1126 01a0 9342     		cmp	r3, r2
 1127 01a2 04D9     		bls	.L41
 644:main.c        ****                 {
 645:main.c        ****                     reset_flag = 1;
 1128              		.loc 1 645 0
 1129 01a4 0123     		movs	r3, #1
 1130 01a6 87F83C30 		strb	r3, [r7, #60]
 646:main.c        ****                     _Counter5ms = 0;
 1131              		.loc 1 646 0
 1132 01aa 0023     		movs	r3, #0
 1133 01ac 3B87     		strh	r3, [r7, #56]	@ movhi
 1134              	.L41:
 647:main.c        ****                 }
 648:main.c        ****             }
 649:main.c        ****             // save the last tone
 650:main.c        ****             last_tone = tone;
 1135              		.loc 1 650 0
 1136 01ae 97F82130 		ldrb	r3, [r7, #33]
 1137 01b2 87F83F30 		strb	r3, [r7, #63]
 1138              	.L39:
 651:main.c        ****         }
 652:main.c        ****            
 653:main.c        ****         if (tone_flag == 1)
 1139              		.loc 1 653 0
 1140 01b6 97F83E30 		ldrb	r3, [r7, #62]	@ zero_extendqisi2
 1141 01ba 012B     		cmp	r3, #1
 1142 01bc 40F08680 		bne	.L45
 654:main.c        ****         {
 655:main.c        ****             tone_flag = 0;
 1143              		.loc 1 655 0
 1144 01c0 0023     		movs	r3, #0
 1145 01c2 87F83E30 		strb	r3, [r7, #62]
 656:main.c        ****             if (period > threshold)
 1146              		.loc 1 656 0
 1147 01c6 BB89     		ldrh	r3, [r7, #12]
 1148 01c8 FA8D     		ldrh	r2, [r7, #46]
 1149 01ca 9A42     		cmp	r2, r3
 1150 01cc 34D9     		bls	.L46
 657:main.c        ****             {   // DASH
 658:main.c        ****                 // if period is valid, then calc. dah average.
 659:main.c        ****                 if (period < DAH_LOWER_LIMIT && period > DAH_UPPER_LIMIT)
 1151              		.loc 1 659 0
 1152 01ce FB8D     		ldrh	r3, [r7, #46]
 1153 01d0 4A2B     		cmp	r3, #74
 1154 01d2 1DD8     		bhi	.L47
 1155              		.loc 1 659 0 is_stmt 0 discriminator 1
 1156 01d4 FB8D     		ldrh	r3, [r7, #46]
 1157 01d6 122B     		cmp	r3, #18
ARM GAS  C:\Users\koseki\AppData\Local\Temp\ccrnawwQ.s 			page 33


 1158 01d8 1AD9     		bls	.L47
 660:main.c        ****                 {
 661:main.c        ****                     dahvals[dahptr] = period;
 1159              		.loc 1 661 0 is_stmt 1
 1160 01da 7B8E     		ldrh	r3, [r7, #50]
 1161 01dc 5B00     		lsls	r3, r3, #1
 1162 01de 07F14002 		add	r2, r7, #64
 1163 01e2 1344     		add	r3, r3, r2
 1164 01e4 FA8D     		ldrh	r2, [r7, #46]	@ movhi
 1165 01e6 23F8302C 		strh	r2, [r3, #-48]	@ movhi
 662:main.c        ****                     dahptr = (dahptr + 1) & 0x03;
 1166              		.loc 1 662 0
 1167 01ea 7B8E     		ldrh	r3, [r7, #50]	@ movhi
 1168 01ec 0133     		adds	r3, r3, #1
 1169 01ee 9BB2     		uxth	r3, r3
 1170 01f0 03F00303 		and	r3, r3, #3
 1171 01f4 7B86     		strh	r3, [r7, #50]	@ movhi
 663:main.c        ****                     new_dahave = (dahvals[0] + dahvals[1] + dahvals[2] + dahvals[3]) / 4;
 1172              		.loc 1 663 0
 1173 01f6 3B8A     		ldrh	r3, [r7, #16]
 1174 01f8 1A46     		mov	r2, r3
 1175 01fa 7B8A     		ldrh	r3, [r7, #18]
 1176 01fc 1344     		add	r3, r3, r2
 1177 01fe BA8A     		ldrh	r2, [r7, #20]
 1178 0200 1344     		add	r3, r3, r2
 1179 0202 FA8A     		ldrh	r2, [r7, #22]
 1180 0204 1344     		add	r3, r3, r2
 1181 0206 002B     		cmp	r3, #0
 1182 0208 00DA     		bge	.L48
 1183 020a 0333     		adds	r3, r3, #3
 1184              	.L48:
 1185 020c 9B10     		asrs	r3, r3, #2
 1186 020e 3B86     		strh	r3, [r7, #48]	@ movhi
 1187              	.L47:
 664:main.c        ****                 }
 665:main.c        ****                 if (new_dahave != dahave)
 1188              		.loc 1 665 0
 1189 0210 FB89     		ldrh	r3, [r7, #14]
 1190 0212 3A8E     		ldrh	r2, [r7, #48]
 1191 0214 9A42     		cmp	r2, r3
 1192 0216 09D0     		beq	.L49
 666:main.c        ****                 {   // dahave is changed
 667:main.c        ****                     dahave = new_dahave;
 1193              		.loc 1 667 0
 1194 0218 3B8E     		ldrh	r3, [r7, #48]	@ movhi
 1195 021a FB81     		strh	r3, [r7, #14]	@ movhi
 668:main.c        ****                     xQueueSend(xQueue_WPM, &dahave, 0);
 1196              		.loc 1 668 0
 1197 021c 4D4B     		ldr	r3, .L60
 1198 021e 1868     		ldr	r0, [r3]
 1199 0220 07F10E01 		add	r1, r7, #14
 1200 0224 0023     		movs	r3, #0
 1201 0226 0022     		movs	r2, #0
 1202 0228 FFF7FEFF 		bl	xQueueGenericSend
 1203              	.L49:
 669:main.c        ****                 }
 670:main.c        ****                 dah_cntr++;
ARM GAS  C:\Users\koseki\AppData\Local\Temp\ccrnawwQ.s 			page 34


 1204              		.loc 1 670 0
 1205 022c 3B8D     		ldrh	r3, [r7, #40]
 1206 022e 0133     		adds	r3, r3, #1
 1207 0230 3B85     		strh	r3, [r7, #40]	@ movhi
 671:main.c        ****                 dit_cntr = 0;
 1208              		.loc 1 671 0
 1209 0232 0023     		movs	r3, #0
 1210 0234 7B85     		strh	r3, [r7, #42]	@ movhi
 1211 0236 24E0     		b	.L50
 1212              	.L46:
 672:main.c        ****             }
 673:main.c        ****             else
 674:main.c        ****             {   // DIT
 675:main.c        ****                 code += mask;
 1213              		.loc 1 675 0
 1214 0238 7A89     		ldrh	r2, [r7, #10]
 1215 023a BB8D     		ldrh	r3, [r7, #44]	@ movhi
 1216 023c 1344     		add	r3, r3, r2
 1217 023e 9BB2     		uxth	r3, r3
 1218 0240 7B81     		strh	r3, [r7, #10]	@ movhi
 676:main.c        ****                 // CalcAveDit
 677:main.c        ****                 ditvals[ditptr] = period;
 1219              		.loc 1 677 0
 1220 0242 FB8E     		ldrh	r3, [r7, #54]
 1221 0244 5B00     		lsls	r3, r3, #1
 1222 0246 07F14002 		add	r2, r7, #64
 1223 024a 1344     		add	r3, r3, r2
 1224 024c FA8D     		ldrh	r2, [r7, #46]	@ movhi
 1225 024e 23F8282C 		strh	r2, [r3, #-40]	@ movhi
 678:main.c        ****                 ditptr = (ditptr + 1) & 0x03;
 1226              		.loc 1 678 0
 1227 0252 FB8E     		ldrh	r3, [r7, #54]	@ movhi
 1228 0254 0133     		adds	r3, r3, #1
 1229 0256 9BB2     		uxth	r3, r3
 1230 0258 03F00303 		and	r3, r3, #3
 1231 025c FB86     		strh	r3, [r7, #54]	@ movhi
 679:main.c        ****                 ditave = (ditvals[0] + ditvals[1] + ditvals[2] + ditvals[3]) / 4;
 1232              		.loc 1 679 0
 1233 025e 3B8B     		ldrh	r3, [r7, #24]
 1234 0260 1A46     		mov	r2, r3
 1235 0262 7B8B     		ldrh	r3, [r7, #26]
 1236 0264 1344     		add	r3, r3, r2
 1237 0266 BA8B     		ldrh	r2, [r7, #28]
 1238 0268 1344     		add	r3, r3, r2
 1239 026a FA8B     		ldrh	r2, [r7, #30]
 1240 026c 1344     		add	r3, r3, r2
 1241 026e 002B     		cmp	r3, #0
 1242 0270 00DA     		bge	.L51
 1243 0272 0333     		adds	r3, r3, #3
 1244              	.L51:
 1245 0274 9B10     		asrs	r3, r3, #2
 1246 0276 BB86     		strh	r3, [r7, #52]	@ movhi
 680:main.c        ****                 dah_cntr = 0;
 1247              		.loc 1 680 0
 1248 0278 0023     		movs	r3, #0
 1249 027a 3B85     		strh	r3, [r7, #40]	@ movhi
 681:main.c        ****                 dit_cntr++;
ARM GAS  C:\Users\koseki\AppData\Local\Temp\ccrnawwQ.s 			page 35


 1250              		.loc 1 681 0
 1251 027c 7B8D     		ldrh	r3, [r7, #42]
 1252 027e 0133     		adds	r3, r3, #1
 1253 0280 7B85     		strh	r3, [r7, #42]	@ movhi
 1254              	.L50:
 682:main.c        ****             }
 683:main.c        ****             // Update threshold
 684:main.c        ****             new_threshold = (dahave + ditave) / 2;
 1255              		.loc 1 684 0
 1256 0282 FB89     		ldrh	r3, [r7, #14]
 1257 0284 1A46     		mov	r2, r3
 1258 0286 BB8E     		ldrh	r3, [r7, #52]
 1259 0288 1344     		add	r3, r3, r2
 1260 028a DA0F     		lsrs	r2, r3, #31
 1261 028c 1344     		add	r3, r3, r2
 1262 028e 5B10     		asrs	r3, r3, #1
 1263 0290 7B84     		strh	r3, [r7, #34]	@ movhi
 685:main.c        ****             if (new_threshold != threshold)
 1264              		.loc 1 685 0
 1265 0292 BB89     		ldrh	r3, [r7, #12]
 1266 0294 7A8C     		ldrh	r2, [r7, #34]
 1267 0296 9A42     		cmp	r2, r3
 1268 0298 09D0     		beq	.L52
 686:main.c        ****             {
 687:main.c        ****                 threshold = new_threshold;
 1269              		.loc 1 687 0
 1270 029a 7B8C     		ldrh	r3, [r7, #34]	@ movhi
 1271 029c BB81     		strh	r3, [r7, #12]	@ movhi
 688:main.c        ****                 xQueueSend(xQueue_TH, &threshold, 0);
 1272              		.loc 1 688 0
 1273 029e 2E4B     		ldr	r3, .L60+4
 1274 02a0 1868     		ldr	r0, [r3]
 1275 02a2 07F10C01 		add	r1, r7, #12
 1276 02a6 0023     		movs	r3, #0
 1277 02a8 0022     		movs	r2, #0
 1278 02aa FFF7FEFF 		bl	xQueueGenericSend
 1279              	.L52:
 689:main.c        ****             }
 690:main.c        ****             // Shift mask
 691:main.c        ****             if (mask < 0b10000000)
 1280              		.loc 1 691 0
 1281 02ae BB8D     		ldrh	r3, [r7, #44]
 1282 02b0 7F2B     		cmp	r3, #127
 1283 02b2 02D8     		bhi	.L53
 692:main.c        ****                 mask = mask << 1;
 1284              		.loc 1 692 0
 1285 02b4 BB8D     		ldrh	r3, [r7, #44]	@ movhi
 1286 02b6 5B00     		lsls	r3, r3, #1
 1287 02b8 BB85     		strh	r3, [r7, #44]	@ movhi
 1288              	.L53:
 693:main.c        ****             
 694:main.c        ****             //continuous dit or dah check
 695:main.c        ****             if (dah_cntr > 15 || dit_cntr > 15)
 1289              		.loc 1 695 0
 1290 02ba 3B8D     		ldrh	r3, [r7, #40]
 1291 02bc 0F2B     		cmp	r3, #15
 1292 02be 02D8     		bhi	.L54
ARM GAS  C:\Users\koseki\AppData\Local\Temp\ccrnawwQ.s 			page 36


 1293              		.loc 1 695 0 is_stmt 0 discriminator 1
 1294 02c0 7B8D     		ldrh	r3, [r7, #42]
 1295 02c2 0F2B     		cmp	r3, #15
 1296 02c4 02D9     		bls	.L45
 1297              	.L54:
 696:main.c        ****                 reset_flag = 1;
 1298              		.loc 1 696 0 is_stmt 1
 1299 02c6 0123     		movs	r3, #1
 1300 02c8 87F83C30 		strb	r3, [r7, #60]
 1301              	.L45:
 697:main.c        ****         }
 698:main.c        ****         
 699:main.c        ****         if (pause_flag == 1)
 1302              		.loc 1 699 0
 1303 02cc 97F83D30 		ldrb	r3, [r7, #61]	@ zero_extendqisi2
 1304 02d0 012B     		cmp	r3, #1
 1305 02d2 38D1     		bne	.L55
 700:main.c        ****         {
 701:main.c        ****             pause_flag = 0;
 1306              		.loc 1 701 0
 1307 02d4 0023     		movs	r3, #0
 1308 02d6 87F83D30 		strb	r3, [r7, #61]
 702:main.c        ****             if (mask > 1 && period > threshold)
 1309              		.loc 1 702 0
 1310 02da BB8D     		ldrh	r3, [r7, #44]
 1311 02dc 012B     		cmp	r3, #1
 1312 02de 20D9     		bls	.L56
 1313              		.loc 1 702 0 is_stmt 0 discriminator 1
 1314 02e0 BB89     		ldrh	r3, [r7, #12]
 1315 02e2 FA8D     		ldrh	r2, [r7, #46]
 1316 02e4 9A42     		cmp	r2, r3
 1317 02e6 1CD9     		bls	.L56
 703:main.c        ****             {
 704:main.c        ****                 // Pause between characters is detected.
 705:main.c        ****                 code += mask;
 1318              		.loc 1 705 0 is_stmt 1
 1319 02e8 7A89     		ldrh	r2, [r7, #10]
 1320 02ea BB8D     		ldrh	r3, [r7, #44]	@ movhi
 1321 02ec 1344     		add	r3, r3, r2
 1322 02ee 9BB2     		uxth	r3, r3
 1323 02f0 7B81     		strh	r3, [r7, #10]	@ movhi
 706:main.c        ****                 // convert code to ASCII code
 707:main.c        ****                 if (code > 121)
 1324              		.loc 1 707 0
 1325 02f2 7B89     		ldrh	r3, [r7, #10]
 1326 02f4 792B     		cmp	r3, #121
 1327 02f6 02D9     		bls	.L57
 708:main.c        ****                     character = '*';
 1328              		.loc 1 708 0
 1329 02f8 2A23     		movs	r3, #42
 1330 02fa 3B81     		strh	r3, [r7, #8]	@ movhi
 1331 02fc 05E0     		b	.L58
 1332              	.L57:
 709:main.c        ****                 else
 710:main.c        ****                     character = MorseCharTraslateTable[code];
 1333              		.loc 1 710 0
 1334 02fe 7B89     		ldrh	r3, [r7, #10]
ARM GAS  C:\Users\koseki\AppData\Local\Temp\ccrnawwQ.s 			page 37


 1335 0300 1A46     		mov	r2, r3
 1336 0302 184B     		ldr	r3, .L60+16
 1337 0304 9B5C     		ldrb	r3, [r3, r2]	@ zero_extendqisi2
 1338 0306 9BB2     		uxth	r3, r3
 1339 0308 3B81     		strh	r3, [r7, #8]	@ movhi
 1340              	.L58:
 711:main.c        ****                 xQueueSend(xQueue_CHAR, &character, 0);
 1341              		.loc 1 711 0
 1342 030a 144B     		ldr	r3, .L60+8
 1343 030c 1868     		ldr	r0, [r3]
 1344 030e 07F10801 		add	r1, r7, #8
 1345 0312 0023     		movs	r3, #0
 1346 0314 0022     		movs	r2, #0
 1347 0316 FFF7FEFF 		bl	xQueueGenericSend
 712:main.c        **** 
 713:main.c        ****                 code = 0;    // initial code
 1348              		.loc 1 713 0
 1349 031a 0023     		movs	r3, #0
 1350 031c 7B81     		strh	r3, [r7, #10]	@ movhi
 714:main.c        ****                 mask = 1;    // initial position : 0b00000001
 1351              		.loc 1 714 0
 1352 031e 0123     		movs	r3, #1
 1353 0320 BB85     		strh	r3, [r7, #44]	@ movhi
 1354              	.L56:
 715:main.c        ****             }
 716:main.c        ****             if (period > threshold * 3)
 1355              		.loc 1 716 0
 1356 0322 FA8D     		ldrh	r2, [r7, #46]
 1357 0324 BB89     		ldrh	r3, [r7, #12]
 1358 0326 1946     		mov	r1, r3
 1359 0328 0B46     		mov	r3, r1
 1360 032a 5B00     		lsls	r3, r3, #1
 1361 032c 0B44     		add	r3, r3, r1
 1362 032e 9A42     		cmp	r2, r3
 1363 0330 09DD     		ble	.L55
 717:main.c        ****             {
 718:main.c        ****                 // Pause between words is detected.
 719:main.c        ****                 character = ' ';
 1364              		.loc 1 719 0
 1365 0332 2023     		movs	r3, #32
 1366 0334 3B81     		strh	r3, [r7, #8]	@ movhi
 720:main.c        ****                 xQueueSend(xQueue_CHAR, &character, 0);
 1367              		.loc 1 720 0
 1368 0336 094B     		ldr	r3, .L60+8
 1369 0338 1868     		ldr	r0, [r3]
 1370 033a 07F10801 		add	r1, r7, #8
 1371 033e 0023     		movs	r3, #0
 1372 0340 0022     		movs	r2, #0
 1373 0342 FFF7FEFF 		bl	xQueueGenericSend
 1374              	.L55:
 721:main.c        ****             }
 722:main.c        ****         }
 723:main.c        ****         TONE_Write(0);  // Debug
 1375              		.loc 1 723 0
 1376 0346 0020     		movs	r0, #0
 1377 0348 FFF7FEFF 		bl	TONE_Write
 724:main.c        ****         
ARM GAS  C:\Users\koseki\AppData\Local\Temp\ccrnawwQ.s 			page 38


 725:main.c        ****         // sleep for 2ms
 726:main.c        ****         vTaskDelay(xDelay);
 1378              		.loc 1 726 0
 1379 034c 786A     		ldr	r0, [r7, #36]
 1380 034e FFF7FEFF 		bl	vTaskDelay
 727:main.c        ****     }
 1381              		.loc 1 727 0
 1382 0352 6FE6     		b	.L59
 1383              	.L61:
 1384              		.align	2
 1385              	.L60:
 1386 0354 00000000 		.word	xQueue_WPM
 1387 0358 00000000 		.word	xQueue_TH
 1388 035c 00000000 		.word	xQueue_CHAR
 1389 0360 00000000 		.word	xQueue_TONE
 1390 0364 00000000 		.word	MorseCharTraslateTable
 1391              		.cfi_endproc
 1392              	.LFE74:
 1393              		.size	Task_TONE, .-Task_TONE
 1394              		.section	.text.int_uartQueue_isr,"ax",%progbits
 1395              		.align	2
 1396              		.global	int_uartQueue_isr
 1397              		.thumb
 1398              		.thumb_func
 1399              		.type	int_uartQueue_isr, %function
 1400              	int_uartQueue_isr:
 1401              	.LFB75:
 728:main.c        **** 
 729:main.c        **** }
 730:main.c        **** 
 731:main.c        **** 
 732:main.c        **** //============================================================================
 733:main.c        **** //
 734:main.c        **** //	Task_USBUART
 735:main.c        **** //
 736:main.c        **** //============================================================================
 737:main.c        **** //
 738:main.c        **** // ISR of int_uartQueue(2kHz clock) interrupt.
 739:main.c        **** //
 740:main.c        **** CY_ISR(int_uartQueue_isr)
 741:main.c        **** {
 1402              		.loc 1 741 0
 1403              		.cfi_startproc
 1404              		@ args = 0, pretend = 0, frame = 0
 1405              		@ frame_needed = 1, uses_anonymous_args = 0
 1406 0000 80B5     		push	{r7, lr}
 1407              		.cfi_def_cfa_offset 8
 1408              		.cfi_offset 7, -8
 1409              		.cfi_offset 14, -4
 1410 0002 00AF     		add	r7, sp, #0
 1411              		.cfi_def_cfa_register 7
 742:main.c        ****     uartTxIsr();
 1412              		.loc 1 742 0
 1413 0004 FFF7FEFF 		bl	uartTxIsr
 743:main.c        ****     uartRxIsr();
 1414              		.loc 1 743 0
 1415 0008 FFF7FEFF 		bl	uartRxIsr
ARM GAS  C:\Users\koseki\AppData\Local\Temp\ccrnawwQ.s 			page 39


 744:main.c        **** }
 1416              		.loc 1 744 0
 1417 000c 00BF     		nop
 1418 000e 80BD     		pop	{r7, pc}
 1419              		.cfi_endproc
 1420              	.LFE75:
 1421              		.size	int_uartQueue_isr, .-int_uartQueue_isr
 1422              		.section	.rodata
 1423 003d 000000   		.align	2
 1424              		.type	pow10_32, %object
 1425              		.size	pow10_32, 44
 1426              	pow10_32:
 1427 0040 00000000 		.word	0
 1428 0044 01000000 		.word	1
 1429 0048 0A000000 		.word	10
 1430 004c 64000000 		.word	100
 1431 0050 E8030000 		.word	1000
 1432 0054 10270000 		.word	10000
 1433 0058 A0860100 		.word	100000
 1434 005c 40420F00 		.word	1000000
 1435 0060 80969800 		.word	10000000
 1436 0064 00E1F505 		.word	100000000
 1437 0068 00CA9A3B 		.word	1000000000
 1438              		.section	.text.putdec32,"ax",%progbits
 1439              		.align	2
 1440              		.global	putdec32
 1441              		.thumb
 1442              		.thumb_func
 1443              		.type	putdec32, %function
 1444              	putdec32:
 1445              	.LFB76:
 745:main.c        **** 
 746:main.c        **** // for DEBUG
 747:main.c        **** // 32-bit Decimal table
 748:main.c        **** static const uint32 CYCODE pow10_32[] = {
 749:main.c        ****     0L,
 750:main.c        ****     1L,
 751:main.c        ****     10L,
 752:main.c        ****     100L,
 753:main.c        ****     1000L,
 754:main.c        ****     10000L,
 755:main.c        ****     100000L,
 756:main.c        ****     1000000L,
 757:main.c        ****     10000000L,
 758:main.c        ****     100000000L,
 759:main.c        ****     1000000000L,
 760:main.c        **** };
 761:main.c        **** 
 762:main.c        **** // for DEBUG
 763:main.c        **** // 32-bit Decimal expression w/o ZERO SUPPRESS
 764:main.c        **** void putdec32(uint32 num, const uint8 nDigits)
 765:main.c        **** {
 1446              		.loc 1 765 0
 1447              		.cfi_startproc
 1448              		@ args = 0, pretend = 0, frame = 16
 1449              		@ frame_needed = 1, uses_anonymous_args = 0
 1450 0000 80B5     		push	{r7, lr}
ARM GAS  C:\Users\koseki\AppData\Local\Temp\ccrnawwQ.s 			page 40


 1451              		.cfi_def_cfa_offset 8
 1452              		.cfi_offset 7, -8
 1453              		.cfi_offset 14, -4
 1454 0002 84B0     		sub	sp, sp, #16
 1455              		.cfi_def_cfa_offset 24
 1456 0004 00AF     		add	r7, sp, #0
 1457              		.cfi_def_cfa_register 7
 1458 0006 7860     		str	r0, [r7, #4]
 1459 0008 0B46     		mov	r3, r1
 1460 000a FB70     		strb	r3, [r7, #3]
 766:main.c        ****     uint8       i;
 767:main.c        ****     uint8       k;
 768:main.c        ****     CYBIT       show = 0;
 1461              		.loc 1 768 0
 1462 000c 0023     		movs	r3, #0
 1463 000e 7B73     		strb	r3, [r7, #13]
 769:main.c        **** 
 770:main.c        ****     // The figure length to be expression
 771:main.c        ****     i = sizeof pow10_32 / sizeof pow10_32[0];
 1464              		.loc 1 771 0
 1465 0010 0B23     		movs	r3, #11
 1466 0012 FB73     		strb	r3, [r7, #15]
 772:main.c        ****     while (--i > 0)
 1467              		.loc 1 772 0
 1468 0014 2AE0     		b	.L64
 1469              	.L70:
 773:main.c        ****     {             // until unit's place
 774:main.c        ****         // Get the value of i-th degit
 775:main.c        ****         for (k = 0; num >= pow10_32[i]; k++)
 1470              		.loc 1 775 0
 1471 0016 0023     		movs	r3, #0
 1472 0018 BB73     		strb	r3, [r7, #14]
 1473 001a 09E0     		b	.L65
 1474              	.L66:
 776:main.c        ****         {
 777:main.c        ****             num -= pow10_32[i];
 1475              		.loc 1 777 0 discriminator 3
 1476 001c FB7B     		ldrb	r3, [r7, #15]	@ zero_extendqisi2
 1477 001e 184A     		ldr	r2, .L71
 1478 0020 52F82330 		ldr	r3, [r2, r3, lsl #2]
 1479 0024 7A68     		ldr	r2, [r7, #4]
 1480 0026 D31A     		subs	r3, r2, r3
 1481 0028 7B60     		str	r3, [r7, #4]
 775:main.c        ****         {
 1482              		.loc 1 775 0 discriminator 3
 1483 002a BB7B     		ldrb	r3, [r7, #14]	@ zero_extendqisi2
 1484 002c 0133     		adds	r3, r3, #1
 1485 002e BB73     		strb	r3, [r7, #14]
 1486              	.L65:
 775:main.c        ****         {
 1487              		.loc 1 775 0 is_stmt 0 discriminator 1
 1488 0030 FB7B     		ldrb	r3, [r7, #15]	@ zero_extendqisi2
 1489 0032 134A     		ldr	r2, .L71
 1490 0034 52F82320 		ldr	r2, [r2, r3, lsl #2]
 1491 0038 7B68     		ldr	r3, [r7, #4]
 1492 003a 9A42     		cmp	r2, r3
 1493 003c EED9     		bls	.L66
ARM GAS  C:\Users\koseki\AppData\Local\Temp\ccrnawwQ.s 			page 41


 778:main.c        ****         }
 779:main.c        ****         // i-th degit is vald?
 780:main.c        ****         show = show || (i <= nDigits) || (k != 0);
 1494              		.loc 1 780 0 is_stmt 1
 1495 003e 7B7B     		ldrb	r3, [r7, #13]	@ zero_extendqisi2
 1496 0040 002B     		cmp	r3, #0
 1497 0042 06D1     		bne	.L67
 1498              		.loc 1 780 0 is_stmt 0 discriminator 2
 1499 0044 FA7B     		ldrb	r2, [r7, #15]	@ zero_extendqisi2
 1500 0046 FB78     		ldrb	r3, [r7, #3]	@ zero_extendqisi2
 1501 0048 9A42     		cmp	r2, r3
 1502 004a 02D9     		bls	.L67
 1503              		.loc 1 780 0 discriminator 4
 1504 004c BB7B     		ldrb	r3, [r7, #14]	@ zero_extendqisi2
 1505 004e 002B     		cmp	r3, #0
 1506 0050 01D0     		beq	.L68
 1507              	.L67:
 1508              		.loc 1 780 0 discriminator 5
 1509 0052 0123     		movs	r3, #1
 1510 0054 00E0     		b	.L69
 1511              	.L68:
 1512              		.loc 1 780 0 discriminator 6
 1513 0056 0023     		movs	r3, #0
 1514              	.L69:
 1515              		.loc 1 780 0 discriminator 8
 1516 0058 7B73     		strb	r3, [r7, #13]
 781:main.c        ****         if (show)
 1517              		.loc 1 781 0 is_stmt 1 discriminator 8
 1518 005a 7B7B     		ldrb	r3, [r7, #13]	@ zero_extendqisi2
 1519 005c 002B     		cmp	r3, #0
 1520 005e 05D0     		beq	.L64
 782:main.c        ****             putch(k + '0');     // Send i-th degit
 1521              		.loc 1 782 0
 1522 0060 BB7B     		ldrb	r3, [r7, #14]
 1523 0062 3033     		adds	r3, r3, #48
 1524 0064 DBB2     		uxtb	r3, r3
 1525 0066 1846     		mov	r0, r3
 1526 0068 FFF7FEFF 		bl	putch
 1527              	.L64:
 772:main.c        ****     {             // until unit's place
 1528              		.loc 1 772 0
 1529 006c FB7B     		ldrb	r3, [r7, #15]
 1530 006e 013B     		subs	r3, r3, #1
 1531 0070 FB73     		strb	r3, [r7, #15]
 1532 0072 FB7B     		ldrb	r3, [r7, #15]	@ zero_extendqisi2
 1533 0074 002B     		cmp	r3, #0
 1534 0076 CED1     		bne	.L70
 783:main.c        ****     }
 784:main.c        **** }
 1535              		.loc 1 784 0
 1536 0078 00BF     		nop
 1537 007a 1037     		adds	r7, r7, #16
 1538              		.cfi_def_cfa_offset 8
 1539 007c BD46     		mov	sp, r7
 1540              		.cfi_def_cfa_register 13
 1541              		@ sp needed
 1542 007e 80BD     		pop	{r7, pc}
ARM GAS  C:\Users\koseki\AppData\Local\Temp\ccrnawwQ.s 			page 42


 1543              	.L72:
 1544              		.align	2
 1545              	.L71:
 1546 0080 40000000 		.word	pow10_32
 1547              		.cfi_endproc
 1548              	.LFE76:
 1549              		.size	putdec32, .-putdec32
 1550              		.section	.text.Task_USBUART,"ax",%progbits
 1551              		.align	2
 1552              		.global	Task_USBUART
 1553              		.thumb
 1554              		.thumb_func
 1555              		.type	Task_USBUART, %function
 1556              	Task_USBUART:
 1557              	.LFB77:
 785:main.c        **** 
 786:main.c        **** void Task_USBUART(void *pvParameters)
 787:main.c        **** {
 1558              		.loc 1 787 0
 1559              		.cfi_startproc
 1560              		@ args = 0, pretend = 0, frame = 56
 1561              		@ frame_needed = 1, uses_anonymous_args = 0
 1562 0000 80B5     		push	{r7, lr}
 1563              		.cfi_def_cfa_offset 8
 1564              		.cfi_offset 7, -8
 1565              		.cfi_offset 14, -4
 1566 0002 8EB0     		sub	sp, sp, #56
 1567              		.cfi_def_cfa_offset 64
 1568 0004 00AF     		add	r7, sp, #0
 1569              		.cfi_def_cfa_register 7
 1570 0006 7860     		str	r0, [r7, #4]
 788:main.c        ****     char    character = '0';
 1571              		.loc 1 788 0
 1572 0008 3023     		movs	r3, #48
 1573 000a 87F82F30 		strb	r3, [r7, #47]
 789:main.c        ****     char    c_buf[16];          // 16byte FIFO buffer
 790:main.c        ****     uint8   c_ptr = 0;          // position of c_buf[]
 1574              		.loc 1 790 0
 1575 000e 0023     		movs	r3, #0
 1576 0010 87F83730 		strb	r3, [r7, #55]
 791:main.c        ****     char    str[20];
 792:main.c        ****     uint8   i;
 793:main.c        ****     const   portTickType xDelay = 50 / portTICK_RATE_MS;
 1577              		.loc 1 793 0
 1578 0014 3223     		movs	r3, #50
 1579 0016 3B63     		str	r3, [r7, #48]
 794:main.c        **** 
 795:main.c        ****     USBUART_Start(0, USBUART_DWR_VDDD_OPERATION);
 1580              		.loc 1 795 0
 1581 0018 0221     		movs	r1, #2
 1582 001a 0020     		movs	r0, #0
 1583 001c FFF7FEFF 		bl	USBUART_Start
 796:main.c        ****     // start 2kHz timer interrupt
 797:main.c        ****     int_uartQueue_StartEx(int_uartQueue_isr);
 1584              		.loc 1 797 0
 1585 0020 1848     		ldr	r0, .L82
 1586 0022 FFF7FEFF 		bl	int_uartQueue_StartEx
ARM GAS  C:\Users\koseki\AppData\Local\Temp\ccrnawwQ.s 			page 43


 1587              	.L79:
 798:main.c        **** 
 799:main.c        ****     // Main Loop
 800:main.c        ****  	while (1)
 801:main.c        **** 	{
 802:main.c        **** #if 1
 803:main.c        ****         // Wait until the intialization is done.
 804:main.c        ****         while (USBUART_GetConfiguration() == 0);
 1588              		.loc 1 804 0
 1589 0026 00BF     		nop
 1590              	.L74:
 1591              		.loc 1 804 0 is_stmt 0 discriminator 1
 1592 0028 FFF7FEFF 		bl	USBUART_GetConfiguration
 1593 002c 0346     		mov	r3, r0
 1594 002e 002B     		cmp	r3, #0
 1595 0030 FAD0     		beq	.L74
 805:main.c        **** 
 806:main.c        ****         USBUART_IsConfigurationChanged();       // Clear CHANGE flag
 1596              		.loc 1 806 0 is_stmt 1
 1597 0032 FFF7FEFF 		bl	USBUART_IsConfigurationChanged
 807:main.c        ****         USBUART_CDC_Init();                     // Start CDC function
 1598              		.loc 1 807 0
 1599 0036 FFF7FEFF 		bl	USBUART_CDC_Init
 1600              	.L78:
 808:main.c        ****         for (;;)
 809:main.c        ****         {
 810:main.c        ****             // If the confoguration is changed, then initialize USB again.
 811:main.c        ****             if (USBUART_IsConfigurationChanged())
 1601              		.loc 1 811 0
 1602 003a FFF7FEFF 		bl	USBUART_IsConfigurationChanged
 1603 003e 0346     		mov	r3, r0
 1604 0040 002B     		cmp	r3, #0
 1605 0042 19D1     		bne	.L81
 812:main.c        ****                 break;
 813:main.c        **** 
 814:main.c        ****             // Read USB port for COM data
 815:main.c        ****     		//ReadUSB();
 816:main.c        ****             
 817:main.c        ****             // Ignore the control comands
 818:main.c        ****             //(void)USBUART_IsLineChanged();
 819:main.c        ****             if (uxQueueMessagesWaiting(xQueue_CHAR) > 0)
 1606              		.loc 1 819 0
 1607 0044 104B     		ldr	r3, .L82+4
 1608 0046 1B68     		ldr	r3, [r3]
 1609 0048 1846     		mov	r0, r3
 1610 004a FFF7FEFF 		bl	uxQueueMessagesWaiting
 1611 004e 0346     		mov	r3, r0
 1612 0050 002B     		cmp	r3, #0
 1613 0052 F2D0     		beq	.L78
 820:main.c        ****             {
 821:main.c        ****                 xQueueReceive(xQueue_CHAR, &character, 0);
 1614              		.loc 1 821 0
 1615 0054 0C4B     		ldr	r3, .L82+4
 1616 0056 1868     		ldr	r0, [r3]
 1617 0058 07F12F01 		add	r1, r7, #47
 1618 005c 0023     		movs	r3, #0
 1619 005e 0022     		movs	r2, #0
ARM GAS  C:\Users\koseki\AppData\Local\Temp\ccrnawwQ.s 			page 44


 1620 0060 FFF7FEFF 		bl	xQueueGenericReceive
 822:main.c        ****                 if (character != 0x1b)
 1621              		.loc 1 822 0
 1622 0064 97F82F30 		ldrb	r3, [r7, #47]	@ zero_extendqisi2
 1623 0068 1B2B     		cmp	r3, #27
 1624 006a E6D0     		beq	.L78
 823:main.c        ****                 {
 824:main.c        ****                     //c_buf[c_ptr] = character;
 825:main.c        ****                     //c_ptr = (c_ptr + 1) & 0x0f;
 826:main.c        ****                     putch(character);
 1625              		.loc 1 826 0
 1626 006c 97F82F30 		ldrb	r3, [r7, #47]	@ zero_extendqisi2
 1627 0070 1846     		mov	r0, r3
 1628 0072 FFF7FEFF 		bl	putch
 827:main.c        ****                 }
 828:main.c        ****                 //else    // ESC
 829:main.c        ****                 //{
 830:main.c        ****                 //    // clear the line
 831:main.c        ****                 //    for(i = 0; i < 16; i++)
 832:main.c        ****                 //       c_buf[i] = ' ';
 833:main.c        ****                 //}
 834:main.c        ****                 // copy 16 characters to sprintf buffer
 835:main.c        ****                 //for(i = 0; i < 16; i++)
 836:main.c        ****                 //    str[i] = c_buf[(c_ptr + i) & 0x0f];
 837:main.c        ****                 //str[16] = '\n';
 838:main.c        ****                 //putstr(str);
 839:main.c        ****             }
 840:main.c        **** 
 841:main.c        ****             
 842:main.c        ****             
 843:main.c        ****             
 844:main.c        ****         }
 1629              		.loc 1 844 0
 1630 0076 E0E7     		b	.L78
 1631              	.L81:
 812:main.c        **** 
 1632              		.loc 1 812 0
 1633 0078 00BF     		nop
 845:main.c        **** #else
 846:main.c        ****         uint32 nLine = 0;           // Line number
 847:main.c        ****         uint32 nChars = 0;          // Number of characters
 848:main.c        **** 
 849:main.c        ****         // Wait until the intialization is done.
 850:main.c        ****         while (USBUART_GetConfiguration() == 0);
 851:main.c        **** 
 852:main.c        ****         USBUART_IsConfigurationChanged();       // Clear CHANGE flag
 853:main.c        ****         USBUART_CDC_Init();                     // Start CDC function
 854:main.c        ****         
 855:main.c        ****         for (;;)
 856:main.c        ****         {
 857:main.c        ****             // If the confoguration is changed, then initialize USB again.
 858:main.c        ****             if (USBUART_IsConfigurationChanged())
 859:main.c        ****                 break;
 860:main.c        **** 
 861:main.c        ****             // Send the number of Rx character.
 862:main.c        ****             int16 ch = getch();
 863:main.c        ****             putstr(" - ");
ARM GAS  C:\Users\koseki\AppData\Local\Temp\ccrnawwQ.s 			page 45


 864:main.c        ****             if (ch >= 0)
 865:main.c        ****             {
 866:main.c        ****                 nChars++;
 867:main.c        ****                 if (ch == '\n') 
 868:main.c        ****                 {
 869:main.c        ****                     putdec32(nLine, 7);
 870:main.c        ****                     putstr(" - ");
 871:main.c        ****                     putdec32(nChars, 7);
 872:main.c        ****                     putstr("\n");
 873:main.c        ****                     nLine++;
 874:main.c        ****                     nChars = 0;
 875:main.c        ****                 }
 876:main.c        ****             }
 877:main.c        ****             
 878:main.c        ****             // Ignore the control comands
 879:main.c        ****             (void)USBUART_IsLineChanged();
 880:main.c        ****         }
 881:main.c        ****     
 882:main.c        ****     
 883:main.c        **** #endif
 884:main.c        ****         // sleep for 10ms
 885:main.c        ****         vTaskDelay(xDelay);
 1634              		.loc 1 885 0
 1635 007a 386B     		ldr	r0, [r7, #48]
 1636 007c FFF7FEFF 		bl	vTaskDelay
 886:main.c        **** 
 887:main.c        ****     }
 1637              		.loc 1 887 0
 1638 0080 D1E7     		b	.L79
 1639              	.L83:
 1640 0082 00BF     		.align	2
 1641              	.L82:
 1642 0084 00000000 		.word	int_uartQueue_isr
 1643 0088 00000000 		.word	xQueue_CHAR
 1644              		.cfi_endproc
 1645              	.LFE77:
 1646              		.size	Task_USBUART, .-Task_USBUART
 1647              		.section	.text.ReadUSB,"ax",%progbits
 1648              		.align	2
 1649              		.global	ReadUSB
 1650              		.thumb
 1651              		.thumb_func
 1652              		.type	ReadUSB, %function
 1653              	ReadUSB:
 1654              	.LFB78:
 888:main.c        **** }
 889:main.c        **** 
 890:main.c        **** //
 891:main.c        **** //	Read USB port for COM data
 892:main.c        **** //
 893:main.c        **** void ReadUSB (void)
 894:main.c        **** {
 1655              		.loc 1 894 0
 1656              		.cfi_startproc
 1657              		@ args = 0, pretend = 0, frame = 8
 1658              		@ frame_needed = 1, uses_anonymous_args = 0
 1659 0000 80B5     		push	{r7, lr}
ARM GAS  C:\Users\koseki\AppData\Local\Temp\ccrnawwQ.s 			page 46


 1660              		.cfi_def_cfa_offset 8
 1661              		.cfi_offset 7, -8
 1662              		.cfi_offset 14, -4
 1663 0002 82B0     		sub	sp, sp, #8
 1664              		.cfi_def_cfa_offset 16
 1665 0004 00AF     		add	r7, sp, #0
 1666              		.cfi_def_cfa_register 7
 895:main.c        **** 	uint8 rx;
 896:main.c        **** 
 897:main.c        ****     rx = getch();
 1667              		.loc 1 897 0
 1668 0006 FFF7FEFF 		bl	getch
 1669 000a 0346     		mov	r3, r0
 1670 000c FB71     		strb	r3, [r7, #7]
 898:main.c        ****     //if (rx >= 0)      // always true!!
 899:main.c        ****     if (rx < 0x80)
 1671              		.loc 1 899 0
 1672 000e 97F90730 		ldrsb	r3, [r7, #7]
 1673 0012 002B     		cmp	r3, #0
 1674 0014 28DB     		blt	.L88
 900:main.c        ****     {
 901:main.c        ****         ComRxCmd[ComRxPtr++] = rx;	// save in command buffer
 1675              		.loc 1 901 0
 1676 0016 164B     		ldr	r3, .L89
 1677 0018 1B78     		ldrb	r3, [r3]	@ zero_extendqisi2
 1678 001a 5A1C     		adds	r2, r3, #1
 1679 001c D1B2     		uxtb	r1, r2
 1680 001e 144A     		ldr	r2, .L89
 1681 0020 1170     		strb	r1, [r2]
 1682 0022 1946     		mov	r1, r3
 1683 0024 134A     		ldr	r2, .L89+4
 1684 0026 FB79     		ldrb	r3, [r7, #7]
 1685 0028 5354     		strb	r3, [r2, r1]
 902:main.c        **** 		if (rx == ';')				// command string terminator
 1686              		.loc 1 902 0
 1687 002a FB79     		ldrb	r3, [r7, #7]	@ zero_extendqisi2
 1688 002c 3B2B     		cmp	r3, #59
 1689 002e 03D1     		bne	.L86
 903:main.c        **** 		{
 904:main.c        **** 			//ProcessComRx();
 905:main.c        **** 			ComRxPtr = 0;
 1690              		.loc 1 905 0
 1691 0030 0F4B     		ldr	r3, .L89
 1692 0032 0022     		movs	r2, #0
 1693 0034 1A70     		strb	r2, [r3]
 906:main.c        ****         }
 907:main.c        ****         else if (rx == '\n' && (ComRxCmd[0] == '$') && (ComRxCmd[1] == '*'))
 908:main.c        ****         {
 909:main.c        **** 			FactorySetup();
 910:main.c        **** 			ComRxPtr = 0;
 911:main.c        ****         }
 912:main.c        **** 		else
 913:main.c        **** 			ComRxPtr &= sizeof(ComRxCmd) - 1;
 914:main.c        **** 	}
 915:main.c        **** }
 1694              		.loc 1 915 0
 1695 0036 17E0     		b	.L88
ARM GAS  C:\Users\koseki\AppData\Local\Temp\ccrnawwQ.s 			page 47


 1696              	.L86:
 907:main.c        ****         {
 1697              		.loc 1 907 0
 1698 0038 FB79     		ldrb	r3, [r7, #7]	@ zero_extendqisi2
 1699 003a 0A2B     		cmp	r3, #10
 1700 003c 0DD1     		bne	.L87
 907:main.c        ****         {
 1701              		.loc 1 907 0 is_stmt 0 discriminator 1
 1702 003e 0D4B     		ldr	r3, .L89+4
 1703 0040 1B78     		ldrb	r3, [r3]	@ zero_extendqisi2
 1704 0042 242B     		cmp	r3, #36
 1705 0044 09D1     		bne	.L87
 907:main.c        ****         {
 1706              		.loc 1 907 0 discriminator 2
 1707 0046 0B4B     		ldr	r3, .L89+4
 1708 0048 5B78     		ldrb	r3, [r3, #1]	@ zero_extendqisi2
 1709 004a 2A2B     		cmp	r3, #42
 1710 004c 05D1     		bne	.L87
 909:main.c        **** 			ComRxPtr = 0;
 1711              		.loc 1 909 0 is_stmt 1
 1712 004e FFF7FEFF 		bl	FactorySetup
 910:main.c        ****         }
 1713              		.loc 1 910 0
 1714 0052 074B     		ldr	r3, .L89
 1715 0054 0022     		movs	r2, #0
 1716 0056 1A70     		strb	r2, [r3]
 1717              		.loc 1 915 0
 1718 0058 06E0     		b	.L88
 1719              	.L87:
 913:main.c        **** 	}
 1720              		.loc 1 913 0
 1721 005a 054B     		ldr	r3, .L89
 1722 005c 1B78     		ldrb	r3, [r3]	@ zero_extendqisi2
 1723 005e 03F01F03 		and	r3, r3, #31
 1724 0062 DAB2     		uxtb	r2, r3
 1725 0064 024B     		ldr	r3, .L89
 1726 0066 1A70     		strb	r2, [r3]
 1727              	.L88:
 1728              		.loc 1 915 0
 1729 0068 00BF     		nop
 1730 006a 0837     		adds	r7, r7, #8
 1731              		.cfi_def_cfa_offset 8
 1732 006c BD46     		mov	sp, r7
 1733              		.cfi_def_cfa_register 13
 1734              		@ sp needed
 1735 006e 80BD     		pop	{r7, pc}
 1736              	.L90:
 1737              		.align	2
 1738              	.L89:
 1739 0070 00000000 		.word	ComRxPtr
 1740 0074 00000000 		.word	ComRxCmd
 1741              		.cfi_endproc
 1742              	.LFE78:
 1743              		.size	ReadUSB, .-ReadUSB
 1744              		.section	.rodata
 1745              		.align	2
 1746              	.LC4:
ARM GAS  C:\Users\koseki\AppData\Local\Temp\ccrnawwQ.s 			page 48


 1747 006c 44656275 		.ascii	"Debug Mode\000"
 1747      67204D6F 
 1747      646500
 1748              		.section	.text.FactorySetup,"ax",%progbits
 1749              		.align	2
 1750              		.global	FactorySetup
 1751              		.thumb
 1752              		.thumb_func
 1753              		.type	FactorySetup, %function
 1754              	FactorySetup:
 1755              	.LFB79:
 916:main.c        **** 
 917:main.c        **** //
 918:main.c        **** //	Factory setup commands
 919:main.c        **** //
 920:main.c        **** void FactorySetup (void)
 921:main.c        **** {
 1756              		.loc 1 921 0
 1757              		.cfi_startproc
 1758              		@ args = 0, pretend = 0, frame = 8
 1759              		@ frame_needed = 1, uses_anonymous_args = 0
 1760 0000 80B5     		push	{r7, lr}
 1761              		.cfi_def_cfa_offset 8
 1762              		.cfi_offset 7, -8
 1763              		.cfi_offset 14, -4
 1764 0002 82B0     		sub	sp, sp, #8
 1765              		.cfi_def_cfa_offset 16
 1766 0004 00AF     		add	r7, sp, #0
 1767              		.cfi_def_cfa_register 7
 922:main.c        **** 	uint8 sendUsb = FALSE;
 1768              		.loc 1 922 0
 1769 0006 0023     		movs	r3, #0
 1770 0008 FB71     		strb	r3, [r7, #7]
 923:main.c        ****     uint8 i;
 924:main.c        **** 	
 925:main.c        **** 	switch (ComRxCmd [2])
 1771              		.loc 1 925 0
 1772 000a 124B     		ldr	r3, .L99
 1773 000c 9B78     		ldrb	r3, [r3, #2]	@ zero_extendqisi2
 1774 000e 642B     		cmp	r3, #100
 1775 0010 03D0     		beq	.L93
 1776 0012 662B     		cmp	r3, #102
 1777 0014 09D0     		beq	.L94
 1778 0016 3F2B     		cmp	r3, #63
 926:main.c        **** 	{
 927:main.c        **** 		//case 'b':						// bootloader mode
 928:main.c        **** 		//	CyBtldr_Load();				// enter USB boot loader mode
 929:main.c        **** 		//	break;
 930:main.c        **** 			
 931:main.c        **** 		case 'd':						// debug mode
 932:main.c        **** 			memcpy (UsbTxBuffer, "Debug Mode", 10);
 933:main.c        **** 			sendUsb = 10;
 934:main.c        **** 			break;
 935:main.c        **** 			
 936:main.c        **** 		case 'f':						// store frequency offset in eeprom
 937:main.c        **** 			CySetTemp ();				// acquire die temperature before writing eeprom
 938:main.c        **** //			break;
ARM GAS  C:\Users\koseki\AppData\Local\Temp\ccrnawwQ.s 			page 49


 939:main.c        **** 
 940:main.c        **** 		case '?':						// status command, reply with eeprom data
 941:main.c        ****             // PSoC3 => PSoC5LP
 942:main.c        **** 			//memcpy (UsbTxBuffer, SERIAL_NUM, 8);		// serial number
 943:main.c        **** 			break;
 1779              		.loc 1 943 0
 1780 0018 09E0     		b	.L97
 1781              	.L93:
 932:main.c        **** 			sendUsb = 10;
 1782              		.loc 1 932 0
 1783 001a 0A22     		movs	r2, #10
 1784 001c 0E49     		ldr	r1, .L99+4
 1785 001e 0F48     		ldr	r0, .L99+8
 1786 0020 FFF7FEFF 		bl	memcpy
 933:main.c        **** 			break;
 1787              		.loc 1 933 0
 1788 0024 0A23     		movs	r3, #10
 1789 0026 FB71     		strb	r3, [r7, #7]
 934:main.c        **** 			
 1790              		.loc 1 934 0
 1791 0028 02E0     		b	.L92
 1792              	.L94:
 937:main.c        **** //			break;
 1793              		.loc 1 937 0
 1794 002a FFF7FEFF 		bl	CySetTemp
 1795              	.L97:
 1796              		.loc 1 943 0
 1797 002e 00BF     		nop
 1798              	.L92:
 944:main.c        **** 	}
 945:main.c        **** 
 946:main.c        **** 	if (sendUsb)
 1799              		.loc 1 946 0
 1800 0030 FB79     		ldrb	r3, [r7, #7]	@ zero_extendqisi2
 1801 0032 002B     		cmp	r3, #0
 1802 0034 09D0     		beq	.L98
 947:main.c        **** 	{
 948:main.c        ****         UsbTxBuffer [sendUsb] = '\0';   // 2017.11.4(koseki)
 1803              		.loc 1 948 0
 1804 0036 FB79     		ldrb	r3, [r7, #7]	@ zero_extendqisi2
 1805 0038 084A     		ldr	r2, .L99+8
 1806 003a 0021     		movs	r1, #0
 1807 003c D154     		strb	r1, [r2, r3]
 949:main.c        ****         putstr((char*)UsbTxBuffer);
 1808              		.loc 1 949 0
 1809 003e 0748     		ldr	r0, .L99+8
 1810 0040 FFF7FEFF 		bl	putstr
 950:main.c        ****         putch('\n');
 1811              		.loc 1 950 0
 1812 0044 0A20     		movs	r0, #10
 1813 0046 FFF7FEFF 		bl	putch
 1814              	.L98:
 951:main.c        **** 	}
 952:main.c        **** }
 1815              		.loc 1 952 0
 1816 004a 00BF     		nop
 1817 004c 0837     		adds	r7, r7, #8
ARM GAS  C:\Users\koseki\AppData\Local\Temp\ccrnawwQ.s 			page 50


 1818              		.cfi_def_cfa_offset 8
 1819 004e BD46     		mov	sp, r7
 1820              		.cfi_def_cfa_register 13
 1821              		@ sp needed
 1822 0050 80BD     		pop	{r7, pc}
 1823              	.L100:
 1824 0052 00BF     		.align	2
 1825              	.L99:
 1826 0054 00000000 		.word	ComRxCmd
 1827 0058 6C000000 		.word	.LC4
 1828 005c 00000000 		.word	UsbTxBuffer
 1829              		.cfi_endproc
 1830              	.LFE79:
 1831              		.size	FactorySetup, .-FactorySetup
 1832              		.text
 1833              	.Letext0:
 1834              		.file 2 "c:\\program files (x86)\\cypress\\psoc creator\\4.4\\psoc creator\\import\\gnu\\arm\\5.4.
 1835              		.file 3 "c:\\program files (x86)\\cypress\\psoc creator\\4.4\\psoc creator\\import\\gnu\\arm\\5.4.
 1836              		.file 4 "Generated_Source\\PSoC5/cytypes.h"
 1837              		.file 5 ".\\FreeRTOS/portmacro.h"
 1838              		.file 6 ".\\FreeRTOS/task.h"
 1839              		.file 7 ".\\FreeRTOS/queue.h"
 1840              		.file 8 "Generated_Source\\PSoC5/core_cm3.h"