ARM GAS  C:\Users\koseki\AppData\Local\Temp\ccfjycEK.s 			page 1


   1              		.syntax unified
   2              		.cpu cortex-m3
   3              		.fpu softvfp
   4              		.eabi_attribute 20, 1
   5              		.eabi_attribute 21, 1
   6              		.eabi_attribute 23, 3
   7              		.eabi_attribute 24, 1
   8              		.eabi_attribute 25, 1
   9              		.eabi_attribute 26, 1
  10              		.eabi_attribute 30, 6
  11              		.eabi_attribute 34, 1
  12              		.eabi_attribute 18, 4
  13              		.thumb
  14              		.syntax unified
  15              		.file	"PGA_1.c"
  16              		.text
  17              	.Ltext0:
  18              		.cfi_sections	.debug_frame
  19              		.global	PGA_1_initVar
  20              		.bss
  21              		.type	PGA_1_initVar, %object
  22              		.size	PGA_1_initVar, 1
  23              	PGA_1_initVar:
  24 0000 00       		.space	1
  25              		.section	.text.PGA_1_Init,"ax",%progbits
  26              		.align	2
  27              		.global	PGA_1_Init
  28              		.thumb
  29              		.thumb_func
  30              		.type	PGA_1_Init, %function
  31              	PGA_1_Init:
  32              	.LFB0:
  33              		.file 1 "Generated_Source\\PSoC5\\PGA_1.c"
   1:Generated_Source\PSoC5/PGA_1.c **** /*******************************************************************************
   2:Generated_Source\PSoC5/PGA_1.c **** * File Name: PGA_1.c  
   3:Generated_Source\PSoC5/PGA_1.c **** * Version 2.0
   4:Generated_Source\PSoC5/PGA_1.c **** *
   5:Generated_Source\PSoC5/PGA_1.c **** * Description:
   6:Generated_Source\PSoC5/PGA_1.c **** *  This file provides the source code to the API for the PGA 
   7:Generated_Source\PSoC5/PGA_1.c **** *  User Module.
   8:Generated_Source\PSoC5/PGA_1.c **** *
   9:Generated_Source\PSoC5/PGA_1.c **** * Note:
  10:Generated_Source\PSoC5/PGA_1.c **** *
  11:Generated_Source\PSoC5/PGA_1.c **** ********************************************************************************
  12:Generated_Source\PSoC5/PGA_1.c **** * Copyright 2008-2012, Cypress Semiconductor Corporation.  All rights reserved.
  13:Generated_Source\PSoC5/PGA_1.c **** * You may use this file only in accordance with the license, terms, conditions, 
  14:Generated_Source\PSoC5/PGA_1.c **** * disclaimers, and limitations in the end user license agreement accompanying 
  15:Generated_Source\PSoC5/PGA_1.c **** * the software package with which this file was provided.
  16:Generated_Source\PSoC5/PGA_1.c **** *******************************************************************************/
  17:Generated_Source\PSoC5/PGA_1.c **** 
  18:Generated_Source\PSoC5/PGA_1.c **** #include "PGA_1.h"
  19:Generated_Source\PSoC5/PGA_1.c **** 
  20:Generated_Source\PSoC5/PGA_1.c **** #if (!CY_PSOC5A)
  21:Generated_Source\PSoC5/PGA_1.c ****     #if (CYDEV_VARIABLE_VDDA == 1u)
  22:Generated_Source\PSoC5/PGA_1.c ****         #include "CyScBoostClk.h"
  23:Generated_Source\PSoC5/PGA_1.c ****     #endif /* (CYDEV_VARIABLE_VDDA == 1u) */
  24:Generated_Source\PSoC5/PGA_1.c **** #endif /* (!CY_PSOC5A) */
ARM GAS  C:\Users\koseki\AppData\Local\Temp\ccfjycEK.s 			page 2


  25:Generated_Source\PSoC5/PGA_1.c **** 
  26:Generated_Source\PSoC5/PGA_1.c **** #if (CY_PSOC5A)
  27:Generated_Source\PSoC5/PGA_1.c ****     static PGA_1_BACKUP_STRUCT  PGA_1_P5backup;
  28:Generated_Source\PSoC5/PGA_1.c **** #endif /* (CY_ PSOC5A) */
  29:Generated_Source\PSoC5/PGA_1.c **** 
  30:Generated_Source\PSoC5/PGA_1.c **** uint8 PGA_1_initVar = 0u;
  31:Generated_Source\PSoC5/PGA_1.c **** 
  32:Generated_Source\PSoC5/PGA_1.c **** 
  33:Generated_Source\PSoC5/PGA_1.c **** /*******************************************************************************   
  34:Generated_Source\PSoC5/PGA_1.c **** * Function Name: PGA_1_Init
  35:Generated_Source\PSoC5/PGA_1.c **** ********************************************************************************
  36:Generated_Source\PSoC5/PGA_1.c **** *
  37:Generated_Source\PSoC5/PGA_1.c **** * Summary:
  38:Generated_Source\PSoC5/PGA_1.c **** *  Initialize component's parameters to the parameters set by user in the 
  39:Generated_Source\PSoC5/PGA_1.c **** *  customizer of the component placed onto schematic. Usually called in 
  40:Generated_Source\PSoC5/PGA_1.c **** *  PGA_1_Start().
  41:Generated_Source\PSoC5/PGA_1.c **** *
  42:Generated_Source\PSoC5/PGA_1.c **** * Parameters:
  43:Generated_Source\PSoC5/PGA_1.c **** *  void
  44:Generated_Source\PSoC5/PGA_1.c **** *
  45:Generated_Source\PSoC5/PGA_1.c **** * Return:
  46:Generated_Source\PSoC5/PGA_1.c **** *  void
  47:Generated_Source\PSoC5/PGA_1.c **** *
  48:Generated_Source\PSoC5/PGA_1.c **** *******************************************************************************/
  49:Generated_Source\PSoC5/PGA_1.c **** void PGA_1_Init(void) 
  50:Generated_Source\PSoC5/PGA_1.c **** {
  34              		.loc 1 50 0
  35              		.cfi_startproc
  36              		@ args = 0, pretend = 0, frame = 0
  37              		@ frame_needed = 1, uses_anonymous_args = 0
  38 0000 80B5     		push	{r7, lr}
  39              		.cfi_def_cfa_offset 8
  40              		.cfi_offset 7, -8
  41              		.cfi_offset 14, -4
  42 0002 00AF     		add	r7, sp, #0
  43              		.cfi_def_cfa_register 7
  51:Generated_Source\PSoC5/PGA_1.c ****     /* Set PGA mode */
  52:Generated_Source\PSoC5/PGA_1.c ****     PGA_1_CR0_REG = PGA_1_MODE_PGA;      
  44              		.loc 1 52 0
  45 0004 0A4B     		ldr	r3, .L2
  46 0006 0C22     		movs	r2, #12
  47 0008 1A70     		strb	r2, [r3]
  53:Generated_Source\PSoC5/PGA_1.c ****     /* Set non-inverting PGA mode and reference mode */
  54:Generated_Source\PSoC5/PGA_1.c ****     PGA_1_CR1_REG |= PGA_1_PGA_NINV;  
  48              		.loc 1 54 0
  49 000a 0A4A     		ldr	r2, .L2+4
  50 000c 094B     		ldr	r3, .L2+4
  51 000e 1B78     		ldrb	r3, [r3]
  52 0010 DBB2     		uxtb	r3, r3
  53 0012 43F02003 		orr	r3, r3, #32
  54 0016 DBB2     		uxtb	r3, r3
  55 0018 1370     		strb	r3, [r2]
  55:Generated_Source\PSoC5/PGA_1.c ****     /* Set default gain and ref mode */
  56:Generated_Source\PSoC5/PGA_1.c ****     PGA_1_CR2_REG = PGA_1_VREF_MODE;
  56              		.loc 1 56 0
  57 001a 074B     		ldr	r3, .L2+8
  58 001c 0022     		movs	r2, #0
ARM GAS  C:\Users\koseki\AppData\Local\Temp\ccfjycEK.s 			page 3


  59 001e 1A70     		strb	r2, [r3]
  57:Generated_Source\PSoC5/PGA_1.c ****     /* Set gain and compensation */
  58:Generated_Source\PSoC5/PGA_1.c ****     PGA_1_SetGain(PGA_1_DEFAULT_GAIN);
  60              		.loc 1 58 0
  61 0020 0320     		movs	r0, #3
  62 0022 FFF7FEFF 		bl	PGA_1_SetGain
  59:Generated_Source\PSoC5/PGA_1.c ****     /* Set power */
  60:Generated_Source\PSoC5/PGA_1.c ****     PGA_1_SetPower(PGA_1_DEFAULT_POWER);
  63              		.loc 1 60 0
  64 0026 0120     		movs	r0, #1
  65 0028 FFF7FEFF 		bl	PGA_1_SetPower
  61:Generated_Source\PSoC5/PGA_1.c **** }
  66              		.loc 1 61 0
  67 002c 00BF     		nop
  68 002e 80BD     		pop	{r7, pc}
  69              	.L3:
  70              		.align	2
  71              	.L2:
  72 0030 08580040 		.word	1073764360
  73 0034 09580040 		.word	1073764361
  74 0038 0A580040 		.word	1073764362
  75              		.cfi_endproc
  76              	.LFE0:
  77              		.size	PGA_1_Init, .-PGA_1_Init
  78              		.section	.text.PGA_1_Enable,"ax",%progbits
  79              		.align	2
  80              		.global	PGA_1_Enable
  81              		.thumb
  82              		.thumb_func
  83              		.type	PGA_1_Enable, %function
  84              	PGA_1_Enable:
  85              	.LFB1:
  62:Generated_Source\PSoC5/PGA_1.c **** 
  63:Generated_Source\PSoC5/PGA_1.c **** 
  64:Generated_Source\PSoC5/PGA_1.c **** /*******************************************************************************   
  65:Generated_Source\PSoC5/PGA_1.c **** * Function Name: PGA_1_Enable
  66:Generated_Source\PSoC5/PGA_1.c **** ********************************************************************************
  67:Generated_Source\PSoC5/PGA_1.c **** *
  68:Generated_Source\PSoC5/PGA_1.c **** * Summary:
  69:Generated_Source\PSoC5/PGA_1.c **** *  Enables the PGA block operation.
  70:Generated_Source\PSoC5/PGA_1.c **** *
  71:Generated_Source\PSoC5/PGA_1.c **** * Parameters:
  72:Generated_Source\PSoC5/PGA_1.c **** *  void
  73:Generated_Source\PSoC5/PGA_1.c **** *
  74:Generated_Source\PSoC5/PGA_1.c **** * Return:
  75:Generated_Source\PSoC5/PGA_1.c **** *  void
  76:Generated_Source\PSoC5/PGA_1.c **** *
  77:Generated_Source\PSoC5/PGA_1.c **** *******************************************************************************/
  78:Generated_Source\PSoC5/PGA_1.c **** void PGA_1_Enable(void) 
  79:Generated_Source\PSoC5/PGA_1.c **** {
  86              		.loc 1 79 0
  87              		.cfi_startproc
  88              		@ args = 0, pretend = 0, frame = 0
  89              		@ frame_needed = 1, uses_anonymous_args = 0
  90              		@ link register save eliminated.
  91 0000 80B4     		push	{r7}
  92              		.cfi_def_cfa_offset 4
ARM GAS  C:\Users\koseki\AppData\Local\Temp\ccfjycEK.s 			page 4


  93              		.cfi_offset 7, -4
  94 0002 00AF     		add	r7, sp, #0
  95              		.cfi_def_cfa_register 7
  80:Generated_Source\PSoC5/PGA_1.c ****     /* This is to restore the value of register CR1 and CR2 which is saved 
  81:Generated_Source\PSoC5/PGA_1.c ****       in prior to the modifications in stop() API */
  82:Generated_Source\PSoC5/PGA_1.c ****     #if (CY_PSOC5A)
  83:Generated_Source\PSoC5/PGA_1.c ****         if(PGA_1_P5backup.enableState == 1u)
  84:Generated_Source\PSoC5/PGA_1.c ****         {
  85:Generated_Source\PSoC5/PGA_1.c ****             PGA_1_CR1_REG = PGA_1_P5backup.scCR1Reg;
  86:Generated_Source\PSoC5/PGA_1.c ****             PGA_1_CR2_REG = PGA_1_P5backup.scCR2Reg;
  87:Generated_Source\PSoC5/PGA_1.c ****             PGA_1_P5backup.enableState = 0u;
  88:Generated_Source\PSoC5/PGA_1.c ****         }
  89:Generated_Source\PSoC5/PGA_1.c ****     #endif /* CY_PSOC5A */   
  90:Generated_Source\PSoC5/PGA_1.c **** 
  91:Generated_Source\PSoC5/PGA_1.c ****     /* Enable power to the Amp in Active mode*/
  92:Generated_Source\PSoC5/PGA_1.c ****     PGA_1_PM_ACT_CFG_REG |= PGA_1_ACT_PWR_EN;
  96              		.loc 1 92 0
  97 0004 0D4A     		ldr	r2, .L5
  98 0006 0D4B     		ldr	r3, .L5
  99 0008 1B78     		ldrb	r3, [r3]
 100 000a DBB2     		uxtb	r3, r3
 101 000c 43F00403 		orr	r3, r3, #4
 102 0010 DBB2     		uxtb	r3, r3
 103 0012 1370     		strb	r3, [r2]
  93:Generated_Source\PSoC5/PGA_1.c **** 
  94:Generated_Source\PSoC5/PGA_1.c ****     /* Enable power to the Amp in Alternative Active mode*/
  95:Generated_Source\PSoC5/PGA_1.c ****     PGA_1_PM_STBY_CFG_REG |= PGA_1_STBY_PWR_EN;
 104              		.loc 1 95 0
 105 0014 0A4A     		ldr	r2, .L5+4
 106 0016 0A4B     		ldr	r3, .L5+4
 107 0018 1B78     		ldrb	r3, [r3]
 108 001a DBB2     		uxtb	r3, r3
 109 001c 43F00403 		orr	r3, r3, #4
 110 0020 DBB2     		uxtb	r3, r3
 111 0022 1370     		strb	r3, [r2]
  96:Generated_Source\PSoC5/PGA_1.c ****     
  97:Generated_Source\PSoC5/PGA_1.c ****     PGA_1_PUMP_CR1_REG |= PGA_1_PUMP_CR1_SC_CLKSEL;
 112              		.loc 1 97 0
 113 0024 074A     		ldr	r2, .L5+8
 114 0026 074B     		ldr	r3, .L5+8
 115 0028 1B78     		ldrb	r3, [r3]
 116 002a DBB2     		uxtb	r3, r3
 117 002c 63F07F03 		orn	r3, r3, #127
 118 0030 DBB2     		uxtb	r3, r3
 119 0032 1370     		strb	r3, [r2]
  98:Generated_Source\PSoC5/PGA_1.c ****     
  99:Generated_Source\PSoC5/PGA_1.c ****     #if (!CY_PSOC5A)
 100:Generated_Source\PSoC5/PGA_1.c ****         #if (CYDEV_VARIABLE_VDDA == 1u)
 101:Generated_Source\PSoC5/PGA_1.c ****             if(CyScPumpEnabled == 1u)
 102:Generated_Source\PSoC5/PGA_1.c ****             {
 103:Generated_Source\PSoC5/PGA_1.c ****                 PGA_1_BSTCLK_REG &= (uint8)(~PGA_1_BST_CLK_INDEX_MASK);
 104:Generated_Source\PSoC5/PGA_1.c ****                 PGA_1_BSTCLK_REG |= PGA_1_BST_CLK_EN | CyScBoostClk__INDEX;
 105:Generated_Source\PSoC5/PGA_1.c ****                 PGA_1_SC_MISC_REG |= PGA_1_PUMP_FORCE;
 106:Generated_Source\PSoC5/PGA_1.c ****                 CyScBoostClk_Start();
 107:Generated_Source\PSoC5/PGA_1.c ****             }
 108:Generated_Source\PSoC5/PGA_1.c ****             else
 109:Generated_Source\PSoC5/PGA_1.c ****             {
ARM GAS  C:\Users\koseki\AppData\Local\Temp\ccfjycEK.s 			page 5


 110:Generated_Source\PSoC5/PGA_1.c ****                 PGA_1_BSTCLK_REG &= (uint8)(~PGA_1_BST_CLK_EN);
 111:Generated_Source\PSoC5/PGA_1.c ****                 PGA_1_SC_MISC_REG &= (uint8)(~PGA_1_PUMP_FORCE);
 112:Generated_Source\PSoC5/PGA_1.c ****             }
 113:Generated_Source\PSoC5/PGA_1.c ****         #endif /* (CYDEV_VARIABLE_VDDA == 1u) */
 114:Generated_Source\PSoC5/PGA_1.c ****     #endif /* (!CY_PSOC5A) */
 115:Generated_Source\PSoC5/PGA_1.c **** }
 120              		.loc 1 115 0
 121 0034 00BF     		nop
 122 0036 BD46     		mov	sp, r7
 123              		.cfi_def_cfa_register 13
 124              		@ sp needed
 125 0038 80BC     		pop	{r7}
 126              		.cfi_restore 7
 127              		.cfi_def_cfa_offset 0
 128 003a 7047     		bx	lr
 129              	.L6:
 130              		.align	2
 131              	.L5:
 132 003c A9430040 		.word	1073759145
 133 0040 B9430040 		.word	1073759161
 134 0044 77580040 		.word	1073764471
 135              		.cfi_endproc
 136              	.LFE1:
 137              		.size	PGA_1_Enable, .-PGA_1_Enable
 138              		.section	.text.PGA_1_Start,"ax",%progbits
 139              		.align	2
 140              		.global	PGA_1_Start
 141              		.thumb
 142              		.thumb_func
 143              		.type	PGA_1_Start, %function
 144              	PGA_1_Start:
 145              	.LFB2:
 116:Generated_Source\PSoC5/PGA_1.c **** 
 117:Generated_Source\PSoC5/PGA_1.c **** 
 118:Generated_Source\PSoC5/PGA_1.c **** /*******************************************************************************
 119:Generated_Source\PSoC5/PGA_1.c **** * Function Name: PGA_1_Start
 120:Generated_Source\PSoC5/PGA_1.c **** ********************************************************************************
 121:Generated_Source\PSoC5/PGA_1.c **** *
 122:Generated_Source\PSoC5/PGA_1.c **** * Summary:
 123:Generated_Source\PSoC5/PGA_1.c **** *  The start function initializes the PGA with the default values and sets
 124:Generated_Source\PSoC5/PGA_1.c **** *  the power to the given level. A power level of 0, is same as executing
 125:Generated_Source\PSoC5/PGA_1.c **** *  the stop function.
 126:Generated_Source\PSoC5/PGA_1.c **** *
 127:Generated_Source\PSoC5/PGA_1.c **** * Parameters:
 128:Generated_Source\PSoC5/PGA_1.c **** *  void
 129:Generated_Source\PSoC5/PGA_1.c **** *
 130:Generated_Source\PSoC5/PGA_1.c **** * Return:
 131:Generated_Source\PSoC5/PGA_1.c **** *  void
 132:Generated_Source\PSoC5/PGA_1.c **** *
 133:Generated_Source\PSoC5/PGA_1.c **** *******************************************************************************/
 134:Generated_Source\PSoC5/PGA_1.c **** void PGA_1_Start(void) 
 135:Generated_Source\PSoC5/PGA_1.c **** {
 146              		.loc 1 135 0
 147              		.cfi_startproc
 148              		@ args = 0, pretend = 0, frame = 0
 149              		@ frame_needed = 1, uses_anonymous_args = 0
 150 0000 80B5     		push	{r7, lr}
ARM GAS  C:\Users\koseki\AppData\Local\Temp\ccfjycEK.s 			page 6


 151              		.cfi_def_cfa_offset 8
 152              		.cfi_offset 7, -8
 153              		.cfi_offset 14, -4
 154 0002 00AF     		add	r7, sp, #0
 155              		.cfi_def_cfa_register 7
 136:Generated_Source\PSoC5/PGA_1.c **** 
 137:Generated_Source\PSoC5/PGA_1.c ****     /* This is to restore the value of register CR1 and CR2 which is saved 
 138:Generated_Source\PSoC5/PGA_1.c ****       in prior to the modification in stop() API */
 139:Generated_Source\PSoC5/PGA_1.c **** 
 140:Generated_Source\PSoC5/PGA_1.c ****     if(PGA_1_initVar == 0u)
 156              		.loc 1 140 0
 157 0004 064B     		ldr	r3, .L9
 158 0006 1B78     		ldrb	r3, [r3]	@ zero_extendqisi2
 159 0008 002B     		cmp	r3, #0
 160 000a 04D1     		bne	.L8
 141:Generated_Source\PSoC5/PGA_1.c ****     {
 142:Generated_Source\PSoC5/PGA_1.c ****         PGA_1_Init();
 161              		.loc 1 142 0
 162 000c FFF7FEFF 		bl	PGA_1_Init
 143:Generated_Source\PSoC5/PGA_1.c ****         PGA_1_initVar = 1u;
 163              		.loc 1 143 0
 164 0010 034B     		ldr	r3, .L9
 165 0012 0122     		movs	r2, #1
 166 0014 1A70     		strb	r2, [r3]
 167              	.L8:
 144:Generated_Source\PSoC5/PGA_1.c ****     }
 145:Generated_Source\PSoC5/PGA_1.c **** 
 146:Generated_Source\PSoC5/PGA_1.c ****     PGA_1_Enable();
 168              		.loc 1 146 0
 169 0016 FFF7FEFF 		bl	PGA_1_Enable
 147:Generated_Source\PSoC5/PGA_1.c **** }
 170              		.loc 1 147 0
 171 001a 00BF     		nop
 172 001c 80BD     		pop	{r7, pc}
 173              	.L10:
 174 001e 00BF     		.align	2
 175              	.L9:
 176 0020 00000000 		.word	PGA_1_initVar
 177              		.cfi_endproc
 178              	.LFE2:
 179              		.size	PGA_1_Start, .-PGA_1_Start
 180              		.section	.text.PGA_1_Stop,"ax",%progbits
 181              		.align	2
 182              		.global	PGA_1_Stop
 183              		.thumb
 184              		.thumb_func
 185              		.type	PGA_1_Stop, %function
 186              	PGA_1_Stop:
 187              	.LFB3:
 148:Generated_Source\PSoC5/PGA_1.c **** 
 149:Generated_Source\PSoC5/PGA_1.c **** 
 150:Generated_Source\PSoC5/PGA_1.c **** /*******************************************************************************
 151:Generated_Source\PSoC5/PGA_1.c **** * Function Name: PGA_1_Stop
 152:Generated_Source\PSoC5/PGA_1.c **** ********************************************************************************
 153:Generated_Source\PSoC5/PGA_1.c **** *
 154:Generated_Source\PSoC5/PGA_1.c **** * Summary:
 155:Generated_Source\PSoC5/PGA_1.c **** *  Powers down amplifier to lowest power state.
ARM GAS  C:\Users\koseki\AppData\Local\Temp\ccfjycEK.s 			page 7


 156:Generated_Source\PSoC5/PGA_1.c **** *
 157:Generated_Source\PSoC5/PGA_1.c **** * Parameters:
 158:Generated_Source\PSoC5/PGA_1.c **** *  void
 159:Generated_Source\PSoC5/PGA_1.c **** *
 160:Generated_Source\PSoC5/PGA_1.c **** * Return:
 161:Generated_Source\PSoC5/PGA_1.c **** *  void
 162:Generated_Source\PSoC5/PGA_1.c **** *
 163:Generated_Source\PSoC5/PGA_1.c **** *******************************************************************************/
 164:Generated_Source\PSoC5/PGA_1.c **** void PGA_1_Stop(void) 
 165:Generated_Source\PSoC5/PGA_1.c **** { 
 188              		.loc 1 165 0
 189              		.cfi_startproc
 190              		@ args = 0, pretend = 0, frame = 0
 191              		@ frame_needed = 1, uses_anonymous_args = 0
 192              		@ link register save eliminated.
 193 0000 80B4     		push	{r7}
 194              		.cfi_def_cfa_offset 4
 195              		.cfi_offset 7, -4
 196 0002 00AF     		add	r7, sp, #0
 197              		.cfi_def_cfa_register 7
 166:Generated_Source\PSoC5/PGA_1.c ****     /* Disble power to the Amp in Active mode template */
 167:Generated_Source\PSoC5/PGA_1.c ****     PGA_1_PM_ACT_CFG_REG &= (uint8)(~PGA_1_ACT_PWR_EN);
 198              		.loc 1 167 0
 199 0004 094A     		ldr	r2, .L12
 200 0006 094B     		ldr	r3, .L12
 201 0008 1B78     		ldrb	r3, [r3]
 202 000a DBB2     		uxtb	r3, r3
 203 000c 23F00403 		bic	r3, r3, #4
 204 0010 DBB2     		uxtb	r3, r3
 205 0012 1370     		strb	r3, [r2]
 168:Generated_Source\PSoC5/PGA_1.c **** 
 169:Generated_Source\PSoC5/PGA_1.c ****     /* Disble power to the Amp in Alternative Active mode template */
 170:Generated_Source\PSoC5/PGA_1.c ****     PGA_1_PM_STBY_CFG_REG &= (uint8)(~PGA_1_STBY_PWR_EN);
 206              		.loc 1 170 0
 207 0014 064A     		ldr	r2, .L12+4
 208 0016 064B     		ldr	r3, .L12+4
 209 0018 1B78     		ldrb	r3, [r3]
 210 001a DBB2     		uxtb	r3, r3
 211 001c 23F00403 		bic	r3, r3, #4
 212 0020 DBB2     		uxtb	r3, r3
 213 0022 1370     		strb	r3, [r2]
 171:Generated_Source\PSoC5/PGA_1.c **** 
 172:Generated_Source\PSoC5/PGA_1.c ****     #if (!CY_PSOC5A)
 173:Generated_Source\PSoC5/PGA_1.c ****         #if (CYDEV_VARIABLE_VDDA == 1u)
 174:Generated_Source\PSoC5/PGA_1.c ****             PGA_1_BSTCLK_REG &= (uint8)(~PGA_1_BST_CLK_EN);
 175:Generated_Source\PSoC5/PGA_1.c ****             /* Disable pumps only if there aren't any SC block in use */
 176:Generated_Source\PSoC5/PGA_1.c ****             if ((PGA_1_PM_ACT_CFG_REG & PGA_1_PM_ACT_CFG_MASK) == 0u)
 177:Generated_Source\PSoC5/PGA_1.c ****             {
 178:Generated_Source\PSoC5/PGA_1.c ****                 PGA_1_SC_MISC_REG &= (uint8)(~PGA_1_PUMP_FORCE);
 179:Generated_Source\PSoC5/PGA_1.c ****                 PGA_1_PUMP_CR1_REG &= (uint8)(~PGA_1_PUMP_CR1_SC_CLKSEL);
 180:Generated_Source\PSoC5/PGA_1.c ****                 CyScBoostClk_Stop();
 181:Generated_Source\PSoC5/PGA_1.c ****             }
 182:Generated_Source\PSoC5/PGA_1.c ****         #endif /* CYDEV_VARIABLE_VDDA == 1u */
 183:Generated_Source\PSoC5/PGA_1.c ****     #endif /* (CY_PSOC3 || CY_PSOC5LP) */
 184:Generated_Source\PSoC5/PGA_1.c **** 
 185:Generated_Source\PSoC5/PGA_1.c ****     /* This sets PGA in zero current mode and output routes are valid */
 186:Generated_Source\PSoC5/PGA_1.c ****     #if (CY_PSOC5A)
ARM GAS  C:\Users\koseki\AppData\Local\Temp\ccfjycEK.s 			page 8


 187:Generated_Source\PSoC5/PGA_1.c ****         PGA_1_P5backup.scCR1Reg = PGA_1_CR1_REG;
 188:Generated_Source\PSoC5/PGA_1.c ****         PGA_1_P5backup.scCR2Reg = PGA_1_CR2_REG;
 189:Generated_Source\PSoC5/PGA_1.c ****         PGA_1_CR1_REG = 0x00u;
 190:Generated_Source\PSoC5/PGA_1.c ****         PGA_1_CR2_REG = 0x00u;
 191:Generated_Source\PSoC5/PGA_1.c ****         PGA_1_P5backup.enableState = 1u;
 192:Generated_Source\PSoC5/PGA_1.c ****     #endif /* CY_PSOC5A */
 193:Generated_Source\PSoC5/PGA_1.c **** }
 214              		.loc 1 193 0
 215 0024 00BF     		nop
 216 0026 BD46     		mov	sp, r7
 217              		.cfi_def_cfa_register 13
 218              		@ sp needed
 219 0028 80BC     		pop	{r7}
 220              		.cfi_restore 7
 221              		.cfi_def_cfa_offset 0
 222 002a 7047     		bx	lr
 223              	.L13:
 224              		.align	2
 225              	.L12:
 226 002c A9430040 		.word	1073759145
 227 0030 B9430040 		.word	1073759161
 228              		.cfi_endproc
 229              	.LFE3:
 230              		.size	PGA_1_Stop, .-PGA_1_Stop
 231              		.section	.text.PGA_1_SetPower,"ax",%progbits
 232              		.align	2
 233              		.global	PGA_1_SetPower
 234              		.thumb
 235              		.thumb_func
 236              		.type	PGA_1_SetPower, %function
 237              	PGA_1_SetPower:
 238              	.LFB4:
 194:Generated_Source\PSoC5/PGA_1.c **** 
 195:Generated_Source\PSoC5/PGA_1.c **** 
 196:Generated_Source\PSoC5/PGA_1.c **** /*******************************************************************************
 197:Generated_Source\PSoC5/PGA_1.c **** * Function Name: PGA_1_SetPower
 198:Generated_Source\PSoC5/PGA_1.c **** ********************************************************************************
 199:Generated_Source\PSoC5/PGA_1.c **** *
 200:Generated_Source\PSoC5/PGA_1.c **** * Summary:
 201:Generated_Source\PSoC5/PGA_1.c **** *  Set the power of the PGA.
 202:Generated_Source\PSoC5/PGA_1.c **** *
 203:Generated_Source\PSoC5/PGA_1.c **** * Parameters:
 204:Generated_Source\PSoC5/PGA_1.c **** *  power: Sets power level between (0) and (3) high power
 205:Generated_Source\PSoC5/PGA_1.c **** *
 206:Generated_Source\PSoC5/PGA_1.c **** * Return:
 207:Generated_Source\PSoC5/PGA_1.c **** *  void
 208:Generated_Source\PSoC5/PGA_1.c **** *
 209:Generated_Source\PSoC5/PGA_1.c **** *******************************************************************************/
 210:Generated_Source\PSoC5/PGA_1.c **** void PGA_1_SetPower(uint8 power) 
 211:Generated_Source\PSoC5/PGA_1.c **** {
 239              		.loc 1 211 0
 240              		.cfi_startproc
 241              		@ args = 0, pretend = 0, frame = 16
 242              		@ frame_needed = 1, uses_anonymous_args = 0
 243              		@ link register save eliminated.
 244 0000 80B4     		push	{r7}
 245              		.cfi_def_cfa_offset 4
ARM GAS  C:\Users\koseki\AppData\Local\Temp\ccfjycEK.s 			page 9


 246              		.cfi_offset 7, -4
 247 0002 85B0     		sub	sp, sp, #20
 248              		.cfi_def_cfa_offset 24
 249 0004 00AF     		add	r7, sp, #0
 250              		.cfi_def_cfa_register 7
 251 0006 0346     		mov	r3, r0
 252 0008 FB71     		strb	r3, [r7, #7]
 212:Generated_Source\PSoC5/PGA_1.c ****     uint8 tmpCR;
 213:Generated_Source\PSoC5/PGA_1.c **** 
 214:Generated_Source\PSoC5/PGA_1.c ****     tmpCR = PGA_1_CR1_REG & (uint8)(~PGA_1_DRIVE_MASK);
 253              		.loc 1 214 0
 254 000a 0A4B     		ldr	r3, .L15
 255 000c 1B78     		ldrb	r3, [r3]
 256 000e DBB2     		uxtb	r3, r3
 257 0010 23F00303 		bic	r3, r3, #3
 258 0014 FB73     		strb	r3, [r7, #15]
 215:Generated_Source\PSoC5/PGA_1.c ****     tmpCR |= (power & PGA_1_DRIVE_MASK);
 259              		.loc 1 215 0
 260 0016 FB79     		ldrb	r3, [r7, #7]
 261 0018 03F00303 		and	r3, r3, #3
 262 001c DAB2     		uxtb	r2, r3
 263 001e FB7B     		ldrb	r3, [r7, #15]
 264 0020 1343     		orrs	r3, r3, r2
 265 0022 FB73     		strb	r3, [r7, #15]
 216:Generated_Source\PSoC5/PGA_1.c ****     PGA_1_CR1_REG = tmpCR;  
 266              		.loc 1 216 0
 267 0024 034A     		ldr	r2, .L15
 268 0026 FB7B     		ldrb	r3, [r7, #15]
 269 0028 1370     		strb	r3, [r2]
 217:Generated_Source\PSoC5/PGA_1.c **** }
 270              		.loc 1 217 0
 271 002a 00BF     		nop
 272 002c 1437     		adds	r7, r7, #20
 273              		.cfi_def_cfa_offset 4
 274 002e BD46     		mov	sp, r7
 275              		.cfi_def_cfa_register 13
 276              		@ sp needed
 277 0030 80BC     		pop	{r7}
 278              		.cfi_restore 7
 279              		.cfi_def_cfa_offset 0
 280 0032 7047     		bx	lr
 281              	.L16:
 282              		.align	2
 283              	.L15:
 284 0034 09580040 		.word	1073764361
 285              		.cfi_endproc
 286              	.LFE4:
 287              		.size	PGA_1_SetPower, .-PGA_1_SetPower
 288              		.section	.rodata
 289              		.align	2
 290              	.LC0:
 291 0000 01       		.byte	1
 292 0001 11       		.byte	17
 293 0002 21       		.byte	33
 294 0003 31       		.byte	49
 295 0004 41       		.byte	65
 296 0005 61       		.byte	97
ARM GAS  C:\Users\koseki\AppData\Local\Temp\ccfjycEK.s 			page 10


 297 0006 53       		.byte	83
 298 0007 63       		.byte	99
 299 0008 73       		.byte	115
 300 0009 000000   		.align	2
 301              	.LC1:
 302 000c 08       		.byte	8
 303 000d 09       		.byte	9
 304 000e 01       		.byte	1
 305 000f 01       		.byte	1
 306 0010 05       		.byte	5
 307 0011 07       		.byte	7
 308 0012 07       		.byte	7
 309 0013 04       		.byte	4
 310 0014 04       		.byte	4
 311              		.section	.text.PGA_1_SetGain,"ax",%progbits
 312              		.align	2
 313              		.global	PGA_1_SetGain
 314              		.thumb
 315              		.thumb_func
 316              		.type	PGA_1_SetGain, %function
 317              	PGA_1_SetGain:
 318              	.LFB5:
 218:Generated_Source\PSoC5/PGA_1.c **** 
 219:Generated_Source\PSoC5/PGA_1.c **** 
 220:Generated_Source\PSoC5/PGA_1.c **** /*******************************************************************************
 221:Generated_Source\PSoC5/PGA_1.c **** * Function Name: PGA_1_SetGain
 222:Generated_Source\PSoC5/PGA_1.c **** ********************************************************************************
 223:Generated_Source\PSoC5/PGA_1.c **** *
 224:Generated_Source\PSoC5/PGA_1.c **** * Summary:
 225:Generated_Source\PSoC5/PGA_1.c **** *  This function sets values of the input and feedback resistors to set a 
 226:Generated_Source\PSoC5/PGA_1.c **** *  specific gain of the amplifier.
 227:Generated_Source\PSoC5/PGA_1.c **** *
 228:Generated_Source\PSoC5/PGA_1.c **** * Parameters:
 229:Generated_Source\PSoC5/PGA_1.c **** *  gain: Gain value of PGA (See header file for gain values.)
 230:Generated_Source\PSoC5/PGA_1.c **** *
 231:Generated_Source\PSoC5/PGA_1.c **** * Return:
 232:Generated_Source\PSoC5/PGA_1.c **** *  void 
 233:Generated_Source\PSoC5/PGA_1.c **** *
 234:Generated_Source\PSoC5/PGA_1.c **** *******************************************************************************/
 235:Generated_Source\PSoC5/PGA_1.c **** void PGA_1_SetGain(uint8 gain) 
 236:Generated_Source\PSoC5/PGA_1.c **** {
 319              		.loc 1 236 0
 320              		.cfi_startproc
 321              		@ args = 0, pretend = 0, frame = 32
 322              		@ frame_needed = 1, uses_anonymous_args = 0
 323 0000 80B5     		push	{r7, lr}
 324              		.cfi_def_cfa_offset 8
 325              		.cfi_offset 7, -8
 326              		.cfi_offset 14, -4
 327 0002 88B0     		sub	sp, sp, #32
 328              		.cfi_def_cfa_offset 40
 329 0004 00AF     		add	r7, sp, #0
 330              		.cfi_def_cfa_register 7
 331 0006 0346     		mov	r3, r0
 332 0008 FB71     		strb	r3, [r7, #7]
 237:Generated_Source\PSoC5/PGA_1.c ****     /* Constant array for gain settings */
 238:Generated_Source\PSoC5/PGA_1.c ****     const uint8 PGA_1_GainArray[9] = { 
ARM GAS  C:\Users\koseki\AppData\Local\Temp\ccfjycEK.s 			page 11


 333              		.loc 1 238 0
 334 000a 284A     		ldr	r2, .L20
 335 000c 07F11403 		add	r3, r7, #20
 336 0010 1068     		ldr	r0, [r2]	@ unaligned
 337 0012 5168     		ldr	r1, [r2, #4]	@ unaligned
 338 0014 03C3     		stmia	r3!, {r0, r1}
 339 0016 127A     		ldrb	r2, [r2, #8]
 340 0018 1A70     		strb	r2, [r3]
 239:Generated_Source\PSoC5/PGA_1.c ****         (PGA_1_RVAL_0K   | PGA_1_R20_40B_40K | PGA_1_BIAS_LOW), /* G=1  */
 240:Generated_Source\PSoC5/PGA_1.c ****         (PGA_1_RVAL_40K  | PGA_1_R20_40B_40K | PGA_1_BIAS_LOW), /* G=2  */
 241:Generated_Source\PSoC5/PGA_1.c ****         (PGA_1_RVAL_120K | PGA_1_R20_40B_40K | PGA_1_BIAS_LOW), /* G=4  */
 242:Generated_Source\PSoC5/PGA_1.c ****         (PGA_1_RVAL_280K | PGA_1_R20_40B_40K | PGA_1_BIAS_LOW), /* G=8  */
 243:Generated_Source\PSoC5/PGA_1.c ****         (PGA_1_RVAL_600K | PGA_1_R20_40B_40K | PGA_1_BIAS_LOW), /* G=16 */
 244:Generated_Source\PSoC5/PGA_1.c ****         (PGA_1_RVAL_460K | PGA_1_R20_40B_40K | PGA_1_BIAS_LOW), /* G=24, Sets Rin as 20k */
 245:Generated_Source\PSoC5/PGA_1.c ****         (PGA_1_RVAL_620K | PGA_1_R20_40B_20K | PGA_1_BIAS_LOW), /* G=32 */
 246:Generated_Source\PSoC5/PGA_1.c ****         (PGA_1_RVAL_470K | PGA_1_R20_40B_20K | PGA_1_BIAS_LOW), /* G=48, Sets Rin as 10k */
 247:Generated_Source\PSoC5/PGA_1.c ****         (PGA_1_RVAL_490K | PGA_1_R20_40B_20K | PGA_1_BIAS_LOW)  /* G=50, Sets Rin as 10k */
 248:Generated_Source\PSoC5/PGA_1.c ****     };
 249:Generated_Source\PSoC5/PGA_1.c ****     
 250:Generated_Source\PSoC5/PGA_1.c ****     /* Constant array for gain compenstion settings */
 251:Generated_Source\PSoC5/PGA_1.c ****     const uint8 PGA_1_GainComp[9] = { 
 341              		.loc 1 251 0
 342 001a 254A     		ldr	r2, .L20+4
 343 001c 07F10803 		add	r3, r7, #8
 344 0020 1068     		ldr	r0, [r2]	@ unaligned
 345 0022 5168     		ldr	r1, [r2, #4]	@ unaligned
 346 0024 03C3     		stmia	r3!, {r0, r1}
 347 0026 127A     		ldrb	r2, [r2, #8]
 348 0028 1A70     		strb	r2, [r3]
 252:Generated_Source\PSoC5/PGA_1.c ****         ( PGA_1_COMP_4P35PF  | (uint8)( PGA_1_REDC_00 >> 2 )), /* G=1  */
 253:Generated_Source\PSoC5/PGA_1.c ****         ( PGA_1_COMP_4P35PF  | (uint8)( PGA_1_REDC_01 >> 2 )), /* G=2  */
 254:Generated_Source\PSoC5/PGA_1.c ****         ( PGA_1_COMP_3P0PF   | (uint8)( PGA_1_REDC_01 >> 2 )), /* G=4  */
 255:Generated_Source\PSoC5/PGA_1.c ****         ( PGA_1_COMP_3P0PF   | (uint8)( PGA_1_REDC_01 >> 2 )), /* G=8  */
 256:Generated_Source\PSoC5/PGA_1.c ****         ( PGA_1_COMP_3P6PF   | (uint8)( PGA_1_REDC_01 >> 2 )), /* G=16 */
 257:Generated_Source\PSoC5/PGA_1.c ****         ( PGA_1_COMP_3P6PF   | (uint8)( PGA_1_REDC_11 >> 2 )), /* G=24 */
 258:Generated_Source\PSoC5/PGA_1.c ****         ( PGA_1_COMP_3P6PF   | (uint8)( PGA_1_REDC_11 >> 2 )), /* G=32 */
 259:Generated_Source\PSoC5/PGA_1.c ****         ( PGA_1_COMP_3P6PF   | (uint8)( PGA_1_REDC_00 >> 2 )), /* G=48 */
 260:Generated_Source\PSoC5/PGA_1.c ****         ( PGA_1_COMP_3P6PF   | (uint8)( PGA_1_REDC_00 >> 2 ))  /* G=50 */
 261:Generated_Source\PSoC5/PGA_1.c ****     };
 262:Generated_Source\PSoC5/PGA_1.c ****     
 263:Generated_Source\PSoC5/PGA_1.c ****     /* Only set new gain if it is a valid gain */
 264:Generated_Source\PSoC5/PGA_1.c ****     if( gain <= PGA_1_GAIN_MAX)
 349              		.loc 1 264 0
 350 002a FB79     		ldrb	r3, [r7, #7]	@ zero_extendqisi2
 351 002c 082B     		cmp	r3, #8
 352 002e 39D8     		bhi	.L19
 265:Generated_Source\PSoC5/PGA_1.c ****     {
 266:Generated_Source\PSoC5/PGA_1.c ****         /* Clear resistors, redc, and bias */
 267:Generated_Source\PSoC5/PGA_1.c ****         PGA_1_CR2_REG &= (uint8)(~(PGA_1_RVAL_MASK | PGA_1_R20_40B_MASK | 
 353              		.loc 1 267 0
 354 0030 204A     		ldr	r2, .L20+8
 355 0032 204B     		ldr	r3, .L20+8
 356 0034 1B78     		ldrb	r3, [r3]
 357 0036 DBB2     		uxtb	r3, r3
 358 0038 23F07F03 		bic	r3, r3, #127
 359 003c DBB2     		uxtb	r3, r3
 360 003e 1370     		strb	r3, [r2]
ARM GAS  C:\Users\koseki\AppData\Local\Temp\ccfjycEK.s 			page 12


 268:Generated_Source\PSoC5/PGA_1.c ****                                 PGA_1_REDC_MASK | PGA_1_BIAS_MASK ));
 269:Generated_Source\PSoC5/PGA_1.c **** 
 270:Generated_Source\PSoC5/PGA_1.c ****         /* Set gain value resistors, redc comp, and bias */
 271:Generated_Source\PSoC5/PGA_1.c ****         PGA_1_CR2_REG |= (PGA_1_GainArray[gain] |
 361              		.loc 1 271 0
 362 0040 1C48     		ldr	r0, .L20+8
 363 0042 1C4B     		ldr	r3, .L20+8
 364 0044 1B78     		ldrb	r3, [r3]
 365 0046 DAB2     		uxtb	r2, r3
 366 0048 FB79     		ldrb	r3, [r7, #7]	@ zero_extendqisi2
 367 004a 07F12001 		add	r1, r7, #32
 368 004e 0B44     		add	r3, r3, r1
 369 0050 13F80C1C 		ldrb	r1, [r3, #-12]	@ zero_extendqisi2
 272:Generated_Source\PSoC5/PGA_1.c ****                                 ((uint8)(PGA_1_GainComp[gain] << 2 ) & PGA_1_REDC_MASK));
 370              		.loc 1 272 0
 371 0054 FB79     		ldrb	r3, [r7, #7]	@ zero_extendqisi2
 372 0056 07F1200E 		add	lr, r7, #32
 373 005a 7344     		add	r3, r3, lr
 374 005c 13F8183C 		ldrb	r3, [r3, #-24]	@ zero_extendqisi2
 375 0060 9B00     		lsls	r3, r3, #2
 376 0062 DBB2     		uxtb	r3, r3
 271:Generated_Source\PSoC5/PGA_1.c ****                                 ((uint8)(PGA_1_GainComp[gain] << 2 ) & PGA_1_REDC_MASK));
 377              		.loc 1 271 0
 378 0064 03F00C03 		and	r3, r3, #12
 379 0068 DBB2     		uxtb	r3, r3
 380 006a 0B43     		orrs	r3, r3, r1
 381 006c DBB2     		uxtb	r3, r3
 382 006e 1343     		orrs	r3, r3, r2
 383 0070 DBB2     		uxtb	r3, r3
 384 0072 0370     		strb	r3, [r0]
 273:Generated_Source\PSoC5/PGA_1.c **** 
 274:Generated_Source\PSoC5/PGA_1.c ****         /* Clear sc_comp  */
 275:Generated_Source\PSoC5/PGA_1.c ****         PGA_1_CR1_REG &= (uint8)(~PGA_1_COMP_MASK);
 385              		.loc 1 275 0
 386 0074 104A     		ldr	r2, .L20+12
 387 0076 104B     		ldr	r3, .L20+12
 388 0078 1B78     		ldrb	r3, [r3]
 389 007a DBB2     		uxtb	r3, r3
 390 007c 23F00C03 		bic	r3, r3, #12
 391 0080 DBB2     		uxtb	r3, r3
 392 0082 1370     		strb	r3, [r2]
 276:Generated_Source\PSoC5/PGA_1.c ****         /* Set sc_comp  */
 277:Generated_Source\PSoC5/PGA_1.c ****         PGA_1_CR1_REG |= ( PGA_1_GainComp[gain] | PGA_1_COMP_MASK );
 393              		.loc 1 277 0
 394 0084 0C49     		ldr	r1, .L20+12
 395 0086 0C4B     		ldr	r3, .L20+12
 396 0088 1B78     		ldrb	r3, [r3]
 397 008a DAB2     		uxtb	r2, r3
 398 008c FB79     		ldrb	r3, [r7, #7]	@ zero_extendqisi2
 399 008e 07F12000 		add	r0, r7, #32
 400 0092 0344     		add	r3, r3, r0
 401 0094 13F8183C 		ldrb	r3, [r3, #-24]	@ zero_extendqisi2
 402 0098 1343     		orrs	r3, r3, r2
 403 009a DBB2     		uxtb	r3, r3
 404 009c 43F00C03 		orr	r3, r3, #12
 405 00a0 DBB2     		uxtb	r3, r3
 406 00a2 0B70     		strb	r3, [r1]
ARM GAS  C:\Users\koseki\AppData\Local\Temp\ccfjycEK.s 			page 13


 407              	.L19:
 278:Generated_Source\PSoC5/PGA_1.c ****     }
 279:Generated_Source\PSoC5/PGA_1.c **** }
 408              		.loc 1 279 0
 409 00a4 00BF     		nop
 410 00a6 2037     		adds	r7, r7, #32
 411              		.cfi_def_cfa_offset 8
 412 00a8 BD46     		mov	sp, r7
 413              		.cfi_def_cfa_register 13
 414              		@ sp needed
 415 00aa 80BD     		pop	{r7, pc}
 416              	.L21:
 417              		.align	2
 418              	.L20:
 419 00ac 00000000 		.word	.LC0
 420 00b0 0C000000 		.word	.LC1
 421 00b4 0A580040 		.word	1073764362
 422 00b8 09580040 		.word	1073764361
 423              		.cfi_endproc
 424              	.LFE5:
 425              		.size	PGA_1_SetGain, .-PGA_1_SetGain
 426              		.text
 427              	.Letext0:
 428              		.file 2 "Generated_Source\\PSoC5\\cytypes.h"