ARM GAS  C:\Users\koseki\AppData\Local\Temp\ccNAGwGx.s 			page 1


   1              		.syntax unified
   2              		.cpu cortex-m3
   3              		.fpu softvfp
   4              		.eabi_attribute 20, 1
   5              		.eabi_attribute 21, 1
   6              		.eabi_attribute 23, 3
   7              		.eabi_attribute 24, 1
   8              		.eabi_attribute 25, 1
   9              		.eabi_attribute 26, 1
  10              		.eabi_attribute 30, 6
  11              		.eabi_attribute 34, 1
  12              		.eabi_attribute 18, 4
  13              		.thumb
  14              		.syntax unified
  15              		.file	"rot.c"
  16              		.text
  17              	.Ltext0:
  18              		.cfi_sections	.debug_frame
  19              		.section	.text.Init_ROT,"ax",%progbits
  20              		.align	2
  21              		.global	Init_ROT
  22              		.thumb
  23              		.thumb_func
  24              		.type	Init_ROT, %function
  25              	Init_ROT:
  26              	.LFB64:
  27              		.file 1 "API\\rot.c"
   1:API/rot.c     **** /* ========================================
   2:API/rot.c     ****  *
   3:API/rot.c     ****  * Copyright YOUR COMPANY, THE YEAR
   4:API/rot.c     ****  * All Rights Reserved
   5:API/rot.c     ****  * UNPUBLISHED, LICENSED SOFTWARE.
   6:API/rot.c     ****  *
   7:API/rot.c     ****  * CONFIDENTIAL AND PROPRIETARY INFORMATION
   8:API/rot.c     ****  * WHICH IS THE PROPERTY OF your company.
   9:API/rot.c     ****  *
  10:API/rot.c     ****  * ========================================
  11:API/rot.c     ****  */
  12:API/rot.c     **** 
  13:API/rot.c     **** /* API */
  14:API/rot.c     **** #include "rot.h"
  15:API/rot.c     **** 
  16:API/rot.c     **** /* Definitions of FreeRTOS related Resource */
  17:API/rot.c     **** extern xQueueHandle xQueue_ROT;
  18:API/rot.c     **** 
  19:API/rot.c     **** /***********************
  20:API/rot.c     ****  *  Initialize ROT     *
  21:API/rot.c     ****  ***********************/
  22:API/rot.c     **** void Init_ROT(void)
  23:API/rot.c     **** {
  28              		.loc 1 23 0
  29              		.cfi_startproc
  30              		@ args = 0, pretend = 0, frame = 0
  31              		@ frame_needed = 1, uses_anonymous_args = 0
  32              		@ link register save eliminated.
  33 0000 80B4     		push	{r7}
  34              		.cfi_def_cfa_offset 4
ARM GAS  C:\Users\koseki\AppData\Local\Temp\ccNAGwGx.s 			page 2


  35              		.cfi_offset 7, -4
  36 0002 00AF     		add	r7, sp, #0
  37              		.cfi_def_cfa_register 7
  24:API/rot.c     ****     /* initialize the rotary encoder */    
  25:API/rot.c     **** }
  38              		.loc 1 25 0
  39 0004 00BF     		nop
  40 0006 BD46     		mov	sp, r7
  41              		.cfi_def_cfa_register 13
  42              		@ sp needed
  43 0008 80BC     		pop	{r7}
  44              		.cfi_restore 7
  45              		.cfi_def_cfa_offset 0
  46 000a 7047     		bx	lr
  47              		.cfi_endproc
  48              	.LFE64:
  49              		.size	Init_ROT, .-Init_ROT
  50              		.section	.text.Task_ROT,"ax",%progbits
  51              		.align	2
  52              		.global	Task_ROT
  53              		.thumb
  54              		.thumb_func
  55              		.type	Task_ROT, %function
  56              	Task_ROT:
  57              	.LFB65:
  26:API/rot.c     **** 
  27:API/rot.c     **** 
  28:API/rot.c     **** #define QUEUE_INTERVAL 50
  29:API/rot.c     **** 
  30:API/rot.c     **** /***********************
  31:API/rot.c     ****  *  Task ROT           *
  32:API/rot.c     ****  ***********************/
  33:API/rot.c     **** void Task_ROT(void *pvParameters)
  34:API/rot.c     **** {
  58              		.loc 1 34 0
  59              		.cfi_startproc
  60              		@ args = 0, pretend = 0, frame = 24
  61              		@ frame_needed = 1, uses_anonymous_args = 0
  62 0000 90B5     		push	{r4, r7, lr}
  63              		.cfi_def_cfa_offset 12
  64              		.cfi_offset 4, -12
  65              		.cfi_offset 7, -8
  66              		.cfi_offset 14, -4
  67 0002 87B0     		sub	sp, sp, #28
  68              		.cfi_def_cfa_offset 40
  69 0004 00AF     		add	r7, sp, #0
  70              		.cfi_def_cfa_register 7
  71 0006 7860     		str	r0, [r7, #4]
  35:API/rot.c     ****     /* Block for 3ms */
  36:API/rot.c     ****     const portTickType xDelay = 3 / portTICK_RATE_MS;
  72              		.loc 1 36 0
  73 0008 0323     		movs	r3, #3
  74 000a 3B61     		str	r3, [r7, #16]
  37:API/rot.c     **** 
  38:API/rot.c     ****     uint8 new = 0;  /* current state of ROT */
  75              		.loc 1 38 0
  76 000c 0023     		movs	r3, #0
ARM GAS  C:\Users\koseki\AppData\Local\Temp\ccNAGwGx.s 			page 3


  77 000e FB73     		strb	r3, [r7, #15]
  39:API/rot.c     ****     uint8 prev = 0; /* previous state of ROT */
  78              		.loc 1 39 0
  79 0010 0023     		movs	r3, #0
  80 0012 FB75     		strb	r3, [r7, #23]
  40:API/rot.c     ****     int8 count = 0; /* click count */
  81              		.loc 1 40 0
  82 0014 0023     		movs	r3, #0
  83 0016 BB73     		strb	r3, [r7, #14]
  41:API/rot.c     ****     uint16 cntTask = 0;   /* task count */
  84              		.loc 1 41 0
  85 0018 0023     		movs	r3, #0
  86 001a BB82     		strh	r3, [r7, #20]	@ movhi
  87              	.L8:
  42:API/rot.c     **** 
  43:API/rot.c     ****     /* Task Loop */
  44:API/rot.c     ****     while(1)
  45:API/rot.c     ****     {
  46:API/rot.c     ****         /*****************************************
  47:API/rot.c     **** 		*	Rotary Encoder
  48:API/rot.c     **** 		******************************************/
  49:API/rot.c     **** 
  50:API/rot.c     ****         /* click detect */
  51:API/rot.c     ****         new = (ROT_A_Read() << 1) + ROT_B_Read();
  88              		.loc 1 51 0
  89 001c FFF7FEFF 		bl	ROT_A_Read
  90 0020 0346     		mov	r3, r0
  91 0022 5B00     		lsls	r3, r3, #1
  92 0024 DCB2     		uxtb	r4, r3
  93 0026 FFF7FEFF 		bl	ROT_B_Read
  94 002a 0346     		mov	r3, r0
  95 002c 2344     		add	r3, r3, r4
  96 002e FB73     		strb	r3, [r7, #15]
  52:API/rot.c     ****         if (new != prev)
  97              		.loc 1 52 0
  98 0030 FA7B     		ldrb	r2, [r7, #15]	@ zero_extendqisi2
  99 0032 FB7D     		ldrb	r3, [r7, #23]	@ zero_extendqisi2
 100 0034 9A42     		cmp	r2, r3
 101 0036 1BD0     		beq	.L3
  53:API/rot.c     ****         {
  54:API/rot.c     ****             /* click CW ? */
  55:API/rot.c     ****             if ((new == 0x03u) && (prev == 0x02u))
 102              		.loc 1 55 0
 103 0038 FB7B     		ldrb	r3, [r7, #15]	@ zero_extendqisi2
 104 003a 032B     		cmp	r3, #3
 105 003c 09D1     		bne	.L4
 106              		.loc 1 55 0 is_stmt 0 discriminator 1
 107 003e FB7D     		ldrb	r3, [r7, #23]	@ zero_extendqisi2
 108 0040 022B     		cmp	r3, #2
 109 0042 06D1     		bne	.L4
  56:API/rot.c     ****                 count++;
 110              		.loc 1 56 0 is_stmt 1
 111 0044 97F90E30 		ldrsb	r3, [r7, #14]
 112 0048 DBB2     		uxtb	r3, r3
 113 004a 0133     		adds	r3, r3, #1
 114 004c DBB2     		uxtb	r3, r3
 115 004e 5BB2     		sxtb	r3, r3
ARM GAS  C:\Users\koseki\AppData\Local\Temp\ccNAGwGx.s 			page 4


 116 0050 BB73     		strb	r3, [r7, #14]
 117              	.L4:
  57:API/rot.c     ****             /* click CCW ? */
  58:API/rot.c     ****             if ((new == 0x03u) && (prev == 0x01u))
 118              		.loc 1 58 0
 119 0052 FB7B     		ldrb	r3, [r7, #15]	@ zero_extendqisi2
 120 0054 032B     		cmp	r3, #3
 121 0056 09D1     		bne	.L5
 122              		.loc 1 58 0 is_stmt 0 discriminator 1
 123 0058 FB7D     		ldrb	r3, [r7, #23]	@ zero_extendqisi2
 124 005a 012B     		cmp	r3, #1
 125 005c 06D1     		bne	.L5
  59:API/rot.c     ****                 count--;
 126              		.loc 1 59 0 is_stmt 1
 127 005e 97F90E30 		ldrsb	r3, [r7, #14]
 128 0062 DBB2     		uxtb	r3, r3
 129 0064 013B     		subs	r3, r3, #1
 130 0066 DBB2     		uxtb	r3, r3
 131 0068 5BB2     		sxtb	r3, r3
 132 006a BB73     		strb	r3, [r7, #14]
 133              	.L5:
  60:API/rot.c     ****             /* update the ROT state */
  61:API/rot.c     ****             prev = new;
 134              		.loc 1 61 0
 135 006c FB7B     		ldrb	r3, [r7, #15]
 136 006e FB75     		strb	r3, [r7, #23]
 137              	.L3:
  62:API/rot.c     ****         }
  63:API/rot.c     **** 
  64:API/rot.c     ****         cntTask++;
 138              		.loc 1 64 0
 139 0070 BB8A     		ldrh	r3, [r7, #20]
 140 0072 0133     		adds	r3, r3, #1
 141 0074 BB82     		strh	r3, [r7, #20]	@ movhi
  65:API/rot.c     ****         if (cntTask >= QUEUE_INTERVAL)
 142              		.loc 1 65 0
 143 0076 BB8A     		ldrh	r3, [r7, #20]
 144 0078 312B     		cmp	r3, #49
 145 007a 0FD9     		bls	.L6
  66:API/rot.c     ****         {
  67:API/rot.c     ****             if (count != 0)
 146              		.loc 1 67 0
 147 007c 97F90E30 		ldrsb	r3, [r7, #14]
 148 0080 002B     		cmp	r3, #0
 149 0082 09D0     		beq	.L7
  68:API/rot.c     ****             {
  69:API/rot.c     ****                 xQueueSend(xQueue_ROT, &count, 0);
 150              		.loc 1 69 0
 151 0084 074B     		ldr	r3, .L9
 152 0086 1868     		ldr	r0, [r3]
 153 0088 07F10E01 		add	r1, r7, #14
 154 008c 0023     		movs	r3, #0
 155 008e 0022     		movs	r2, #0
 156 0090 FFF7FEFF 		bl	xQueueGenericSend
  70:API/rot.c     ****                 count = 0;
 157              		.loc 1 70 0
 158 0094 0023     		movs	r3, #0
ARM GAS  C:\Users\koseki\AppData\Local\Temp\ccNAGwGx.s 			page 5


 159 0096 BB73     		strb	r3, [r7, #14]
 160              	.L7:
  71:API/rot.c     ****             }
  72:API/rot.c     ****             cntTask = 0;
 161              		.loc 1 72 0
 162 0098 0023     		movs	r3, #0
 163 009a BB82     		strh	r3, [r7, #20]	@ movhi
 164              	.L6:
  73:API/rot.c     ****         }
  74:API/rot.c     **** 
  75:API/rot.c     ****         /* Blocking Task */
  76:API/rot.c     ****         vTaskDelay(xDelay);
 165              		.loc 1 76 0
 166 009c 3869     		ldr	r0, [r7, #16]
 167 009e FFF7FEFF 		bl	vTaskDelay
  77:API/rot.c     ****     }
 168              		.loc 1 77 0
 169 00a2 BBE7     		b	.L8
 170              	.L10:
 171              		.align	2
 172              	.L9:
 173 00a4 00000000 		.word	xQueue_ROT
 174              		.cfi_endproc
 175              	.LFE65:
 176              		.size	Task_ROT, .-Task_ROT
 177              		.text
 178              	.Letext0:
 179              		.file 2 "c:\\program files (x86)\\cypress\\psoc creator\\4.4\\psoc creator\\import\\gnu\\arm\\5.4.
 180              		.file 3 "c:\\program files (x86)\\cypress\\psoc creator\\4.4\\psoc creator\\import\\gnu\\arm\\5.4.
 181              		.file 4 "Generated_Source\\PSoC5/cytypes.h"
 182              		.file 5 ".\\FreeRTOS/portmacro.h"
 183              		.file 6 ".\\FreeRTOS/queue.h"
 184              		.file 7 "Generated_Source\\PSoC5/core_cm3.h"