ARM GAS  C:\Users\koseki\AppData\Local\Temp\cc9v6A3a.s 			page 1


   1              		.syntax unified
   2              		.cpu cortex-m3
   3              		.fpu softvfp
   4              		.eabi_attribute 20, 1
   5              		.eabi_attribute 21, 1
   6              		.eabi_attribute 23, 3
   7              		.eabi_attribute 24, 1
   8              		.eabi_attribute 25, 1
   9              		.eabi_attribute 26, 1
  10              		.eabi_attribute 30, 1
  11              		.eabi_attribute 34, 1
  12              		.eabi_attribute 18, 4
  13              		.thumb
  14              		.file	"CLCD_16x2_control.c"
  15              		.text
  16              	.Ltext0:
  17              		.cfi_sections	.debug_frame
  18              		.section	.text.CLCD_clear,"ax",%progbits
  19              		.align	2
  20              		.global	CLCD_clear
  21              		.thumb
  22              		.thumb_func
  23              		.type	CLCD_clear, %function
  24              	CLCD_clear:
  25              	.LFB64:
  26              		.file 1 "CLCD_16x2_control.c"
   1:CLCD_16x2_control.c **** /* ========================================
   2:CLCD_16x2_control.c ****  *
   3:CLCD_16x2_control.c ****  * Copyright YOUR COMPANY, THE YEAR
   4:CLCD_16x2_control.c ****  * All Rights Reserved
   5:CLCD_16x2_control.c ****  * UNPUBLISHED, LICENSED SOFTWARE.
   6:CLCD_16x2_control.c ****  *
   7:CLCD_16x2_control.c ****  * CONFIDENTIAL AND PROPRIETARY INFORMATION
   8:CLCD_16x2_control.c ****  * WHICH IS THE PROPERTY OF your company.
   9:CLCD_16x2_control.c ****  *
  10:CLCD_16x2_control.c ****  * ========================================
  11:CLCD_16x2_control.c **** */
  12:CLCD_16x2_control.c **** 
  13:CLCD_16x2_control.c **** //=====================================================
  14:CLCD_16x2_control.c **** //
  15:CLCD_16x2_control.c **** //     C L C D _ 1 6 x 2 _ c o n t r o l
  16:CLCD_16x2_control.c **** //
  17:CLCD_16x2_control.c **** //=====================================================
  18:CLCD_16x2_control.c **** 
  19:CLCD_16x2_control.c **** /* PSoC5 */
  20:CLCD_16x2_control.c **** #include <device.h>
  21:CLCD_16x2_control.c **** #include <stdio.h>
  22:CLCD_16x2_control.c **** #include <stdlib.h>
  23:CLCD_16x2_control.c **** #include <math.h>
  24:CLCD_16x2_control.c **** //#include "arm_math.h"   /* (2016.7.26) */
  25:CLCD_16x2_control.c **** /* FreeRTOS */
  26:CLCD_16x2_control.c **** #include "FreeRTOS.h"
  27:CLCD_16x2_control.c **** #include "task.h"
  28:CLCD_16x2_control.c **** #include "queue.h"
  29:CLCD_16x2_control.c **** #include "semphr.h"
  30:CLCD_16x2_control.c **** /* API */
  31:CLCD_16x2_control.c **** #include "I2C_CLCD.h"
ARM GAS  C:\Users\koseki\AppData\Local\Temp\cc9v6A3a.s 			page 2


  32:CLCD_16x2_control.c **** #include "rot.h"
  33:CLCD_16x2_control.c **** #include "key.h"
  34:CLCD_16x2_control.c **** /* parameters */
  35:CLCD_16x2_control.c **** #include "main.h"
  36:CLCD_16x2_control.c **** 
  37:CLCD_16x2_control.c **** extern xQueueHandle xQueue_KEY[2];
  38:CLCD_16x2_control.c **** extern xQueueHandle xQueue_ROT;        /* Queue Data from Task_ROT(ROT_ENC_Handler) */
  39:CLCD_16x2_control.c **** extern xQueueHandle xQueue_RXD;        /* Queue Data from Task_RADIO */
  40:CLCD_16x2_control.c **** 
  41:CLCD_16x2_control.c **** extern xSemaphoreHandle xMutex_RX_BUF;     /* Mutex for RX Data Buffer */
  42:CLCD_16x2_control.c **** 
  43:CLCD_16x2_control.c **** extern int32 sum_V1;        // sum of |ANT1| for 128 times
  44:CLCD_16x2_control.c **** extern int32 sum_V1_V2;     // sum of |ANT1+ANT2| for 128 times
  45:CLCD_16x2_control.c **** extern int32 sum_V1rms;     // sum of ANT1 RMS for 128 times
  46:CLCD_16x2_control.c **** extern int32 sum_V2rms;     // sum of ANT1 RMS for 128 times
  47:CLCD_16x2_control.c **** 
  48:CLCD_16x2_control.c **** // Global Variables for CLCD
  49:CLCD_16x2_control.c **** enum CLCD_mode mode = DISTANCE;    /* CLCD display mode */
  50:CLCD_16x2_control.c **** 
  51:CLCD_16x2_control.c **** #define GAIN_x1    0
  52:CLCD_16x2_control.c **** #define GAIN_x32    6
  53:CLCD_16x2_control.c **** int16 gain = GAIN_x32;     /* start with gain x1 */
  54:CLCD_16x2_control.c **** 
  55:CLCD_16x2_control.c **** // Adjustment of current parameter
  56:CLCD_16x2_control.c **** uint16 Vth = GAIN_01_TH;
  57:CLCD_16x2_control.c **** uint16 Vbias = IF_BIAS_01;
  58:CLCD_16x2_control.c **** int16 Adj_Vth = 0;
  59:CLCD_16x2_control.c **** int16 Adj_Vbias = 0;
  60:CLCD_16x2_control.c **** 
  61:CLCD_16x2_control.c **** 
  62:CLCD_16x2_control.c **** /***************************************************************************
  63:CLCD_16x2_control.c **** *	Task_CLCD
  64:CLCD_16x2_control.c **** ****************************************************************************/
  65:CLCD_16x2_control.c **** /* Constants for SetGain function */
  66:CLCD_16x2_control.c **** // total gain G is calculated as  G = magnification / rec_rf_gain
  67:CLCD_16x2_control.c **** typedef struct
  68:CLCD_16x2_control.c **** {
  69:CLCD_16x2_control.c ****     uint8   pga_gain;               // defined parameter in PGA module.
  70:CLCD_16x2_control.c ****     uint8   magnification;          // PGA gain.
  71:CLCD_16x2_control.c ****     uint8   rec_rf_gain;            // reciprocal RF gain. 4 means x(1/4)
  72:CLCD_16x2_control.c ****     uint8   threshold;
  73:CLCD_16x2_control.c ****     uint16  bias;
  74:CLCD_16x2_control.c **** }   GAIN_CTL_STRUCT;
  75:CLCD_16x2_control.c **** 
  76:CLCD_16x2_control.c **** //const GAIN_CTL_STRUCT pga_gain[13] = {
  77:CLCD_16x2_control.c **** const GAIN_CTL_STRUCT pga_gain[] = {
  78:CLCD_16x2_control.c **** //    {PGA_1_GAIN_01,  1u, 8u, GAIN_01_TH, IF_BIAS_R8},
  79:CLCD_16x2_control.c **** //    {PGA_1_GAIN_01,  1u, 4u, GAIN_01_TH, IF_BIAS_R4},
  80:CLCD_16x2_control.c **** //    {PGA_1_GAIN_01,  1u, 2u, GAIN_01_TH, IF_BIAS_R2},
  81:CLCD_16x2_control.c ****     {PGA_1_GAIN_01,  1u, 1u, GAIN_01_TH, IF_BIAS_01},       // default
  82:CLCD_16x2_control.c ****     {PGA_1_GAIN_02,  2u, 1u, GAIN_02_TH, IF_BIAS_01},
  83:CLCD_16x2_control.c ****     {PGA_1_GAIN_04,  4u, 1u, GAIN_04_TH, IF_BIAS_01},
  84:CLCD_16x2_control.c ****     {PGA_1_GAIN_08,  8u, 1u, GAIN_08_TH, IF_BIAS_01},
  85:CLCD_16x2_control.c ****     {PGA_1_GAIN_16, 16u, 1u, GAIN_16_TH, IF_BIAS_01},
  86:CLCD_16x2_control.c ****     {PGA_1_GAIN_24, 24u, 1u, GAIN_24_TH, IF_BIAS_01},
  87:CLCD_16x2_control.c ****     {PGA_1_GAIN_32, 32u, 1u, GAIN_32_TH, IF_BIAS_01},
  88:CLCD_16x2_control.c ****     {PGA_1_GAIN_48, 48u, 1u, GAIN_48_TH, IF_BIAS_01},
ARM GAS  C:\Users\koseki\AppData\Local\Temp\cc9v6A3a.s 			page 3


  89:CLCD_16x2_control.c ****     {PGA_1_GAIN_50, 50u, 1u, GAIN_50_TH, IF_BIAS_01},
  90:CLCD_16x2_control.c ****     {PGA_1_GAIN_MAX, 50u, 1u, GAIN_50_TH, IF_BIAS_01}
  91:CLCD_16x2_control.c **** };
  92:CLCD_16x2_control.c **** 
  93:CLCD_16x2_control.c **** #define GAIN_MAX    sizeof pga_gain / sizeof pga_gain[0]
  94:CLCD_16x2_control.c **** 
  95:CLCD_16x2_control.c **** typedef struct
  96:CLCD_16x2_control.c **** {
  97:CLCD_16x2_control.c ****     uint16  rms_mv_min;
  98:CLCD_16x2_control.c ****     uint16  rms_mv_max;
  99:CLCD_16x2_control.c ****     int8   gain_ctl;
 100:CLCD_16x2_control.c **** }   GAIN_AGC_TABLE;
 101:CLCD_16x2_control.c **** 
 102:CLCD_16x2_control.c **** const GAIN_AGC_TABLE pga_agc[]= {
 103:CLCD_16x2_control.c ****     {0, 10, 4},
 104:CLCD_16x2_control.c ****     {10, 20, 3},
 105:CLCD_16x2_control.c ****     {20, 50, 2},
 106:CLCD_16x2_control.c ****     {50, 100, 1},
 107:CLCD_16x2_control.c ****     {200, 300, 0},
 108:CLCD_16x2_control.c ****     {300, 500, 0},
 109:CLCD_16x2_control.c ****     {500, 800, -1},
 110:CLCD_16x2_control.c ****     {800, 1000, -2},
 111:CLCD_16x2_control.c ****     {1000, 2000, -4},
 112:CLCD_16x2_control.c ****     {2000, 10000, -4},
 113:CLCD_16x2_control.c **** };
 114:CLCD_16x2_control.c **** #define AGC_MAX     sizeof pga_agc / sizeof pga_agc[0]
 115:CLCD_16x2_control.c **** 
 116:CLCD_16x2_control.c **** typedef struct
 117:CLCD_16x2_control.c **** {
 118:CLCD_16x2_control.c ****     int16  angle_min;
 119:CLCD_16x2_control.c ****     int16  angle_max;
 120:CLCD_16x2_control.c ****     uint8  mark_position;   /* start column position */
 121:CLCD_16x2_control.c ****     uint8  n_mark;          /* number of bar array */
 122:CLCD_16x2_control.c **** }   DIR_TABLE;
 123:CLCD_16x2_control.c **** 
 124:CLCD_16x2_control.c **** const DIR_TABLE dir_tab[]= {
 125:CLCD_16x2_control.c ****     {-91, -77, 0, 0},
 126:CLCD_16x2_control.c ****     {-77, -63, 0, 1},
 127:CLCD_16x2_control.c ****     {-63, -49, 0, 2},
 128:CLCD_16x2_control.c ****     {-49, -35, 0, 3},
 129:CLCD_16x2_control.c ****     {-35, -21, 0, 4},
 130:CLCD_16x2_control.c ****     {-21,  -7, 0, 5},
 131:CLCD_16x2_control.c ****     { -7,   7, 0, 6},
 132:CLCD_16x2_control.c ****     {  7,  21, 0, 7},
 133:CLCD_16x2_control.c ****     { 21,  35, 0, 8},
 134:CLCD_16x2_control.c ****     { 35,  49, 0, 9},
 135:CLCD_16x2_control.c ****     { 49,  63, 0, 10},
 136:CLCD_16x2_control.c ****     { 63,  77, 0, 11},
 137:CLCD_16x2_control.c ****     { 77,  91, 0, 12}
 138:CLCD_16x2_control.c **** };
 139:CLCD_16x2_control.c **** #define DIR_MAX     sizeof dir_tab / sizeof dir_tab[0]
 140:CLCD_16x2_control.c **** 
 141:CLCD_16x2_control.c **** const char8 bar[][16] = {
 142:CLCD_16x2_control.c ****     {'|',255,255,255,255,255,255,'|',' ',' ',' ',' ',' ',' ','|', 0},
 143:CLCD_16x2_control.c ****     {'|',' ',255,255,255,255,255,'|',' ',' ',' ',' ',' ',' ','|', 0},
 144:CLCD_16x2_control.c ****     {'|',' ',' ',255,255,255,255,'|',' ',' ',' ',' ',' ',' ','|', 0},
 145:CLCD_16x2_control.c ****     {'|',' ',' ',' ',255,255,255,'|',' ',' ',' ',' ',' ',' ','|', 0},
ARM GAS  C:\Users\koseki\AppData\Local\Temp\cc9v6A3a.s 			page 4


 146:CLCD_16x2_control.c ****     {'|',' ',' ',' ',' ',255,255,'|',' ',' ',' ',' ',' ',' ','|', 0},
 147:CLCD_16x2_control.c ****     {'|',' ',' ',' ',' ',' ',255,'|',' ',' ',' ',' ',' ',' ','|', 0},
 148:CLCD_16x2_control.c ****     {'|',' ',' ',' ',' ',' ',' ',255,' ',' ',' ',' ',' ',' ','|', 0},
 149:CLCD_16x2_control.c ****     {'|',' ',' ',' ',' ',' ',' ','|',255,' ',' ',' ',' ',' ','|', 0},
 150:CLCD_16x2_control.c ****     {'|',' ',' ',' ',' ',' ',' ','|',255,255,' ',' ',' ',' ','|', 0},
 151:CLCD_16x2_control.c ****     {'|',' ',' ',' ',' ',' ',' ','|',255,255,255,' ',' ',' ','|', 0},
 152:CLCD_16x2_control.c ****     {'|',' ',' ',' ',' ',' ',' ','|',255,255,255,255,' ',' ','|', 0},
 153:CLCD_16x2_control.c ****     {'|',' ',' ',' ',' ',' ',' ','|',255,255,255,255,255,' ','|', 0},
 154:CLCD_16x2_control.c ****     {'|',' ',' ',' ',' ',' ',' ','|',255,255,255,255,255,255,'|', 0},
 155:CLCD_16x2_control.c **** };
 156:CLCD_16x2_control.c **** #define BAR_MAX     sizeof bar / sizeof bar[0]
 157:CLCD_16x2_control.c **** 
 158:CLCD_16x2_control.c **** void CLCD_clear(uint8 raw)
 159:CLCD_16x2_control.c **** {
  27              		.loc 1 159 0
  28              		.cfi_startproc
  29              		@ args = 0, pretend = 0, frame = 0
  30              		@ frame_needed = 0, uses_anonymous_args = 0
  31              	.LVL0:
  32 0000 08B5     		push	{r3, lr}
  33              		.cfi_def_cfa_offset 8
  34              		.cfi_offset 3, -8
  35              		.cfi_offset 14, -4
 160:CLCD_16x2_control.c ****     I2C_CLCD_Position(raw, 0u);
  36              		.loc 1 160 0
  37 0002 0021     		movs	r1, #0
  38 0004 FFF7FEFF 		bl	I2C_CLCD_Position
  39              	.LVL1:
 161:CLCD_16x2_control.c ****     I2C_CLCD_PrintString("                    ");
  40              		.loc 1 161 0
  41 0008 0148     		ldr	r0, .L3
  42 000a FFF7FEFF 		bl	I2C_CLCD_PrintString
  43              	.LVL2:
  44 000e 08BD     		pop	{r3, pc}
  45              	.L4:
  46              		.align	2
  47              	.L3:
  48 0010 00000000 		.word	.LC0
  49              		.cfi_endproc
  50              	.LFE64:
  51              		.size	CLCD_clear, .-CLCD_clear
  52              		.section	.text.CLCD_mode_switch,"ax",%progbits
  53              		.align	2
  54              		.global	CLCD_mode_switch
  55              		.thumb
  56              		.thumb_func
  57              		.type	CLCD_mode_switch, %function
  58              	CLCD_mode_switch:
  59              	.LFB65:
 162:CLCD_16x2_control.c **** }
 163:CLCD_16x2_control.c **** 
 164:CLCD_16x2_control.c **** void CLCD_mode_switch (void)
 165:CLCD_16x2_control.c **** {
  60              		.loc 1 165 0
  61              		.cfi_startproc
  62              		@ args = 0, pretend = 0, frame = 0
  63              		@ frame_needed = 0, uses_anonymous_args = 0
ARM GAS  C:\Users\koseki\AppData\Local\Temp\cc9v6A3a.s 			page 5


  64 0000 08B5     		push	{r3, lr}
  65              		.cfi_def_cfa_offset 8
  66              		.cfi_offset 3, -8
  67              		.cfi_offset 14, -4
 166:CLCD_16x2_control.c ****     //char   str[BUFSIZE];
 167:CLCD_16x2_control.c **** 
 168:CLCD_16x2_control.c ****     switch(mode)
  68              		.loc 1 168 0
  69 0002 1C4B     		ldr	r3, .L11
  70 0004 1B78     		ldrb	r3, [r3]	@ zero_extendqisi2
  71 0006 022B     		cmp	r3, #2
  72 0008 12D0     		beq	.L7
  73 000a 032B     		cmp	r3, #3
  74 000c 23D0     		beq	.L8
  75 000e 012B     		cmp	r3, #1
  76 0010 2FD1     		bne	.L5
 169:CLCD_16x2_control.c ****     {
 170:CLCD_16x2_control.c ****         case DISTANCE:
 171:CLCD_16x2_control.c ****         /*                       "0123456789012345" */
 172:CLCD_16x2_control.c ****             I2C_CLCD_Position(0u, 0u);
  77              		.loc 1 172 0
  78 0012 0020     		movs	r0, #0
  79 0014 0146     		mov	r1, r0
  80 0016 FFF7FEFF 		bl	I2C_CLCD_Position
  81              	.LVL3:
 173:CLCD_16x2_control.c ****             I2C_CLCD_PrintString("|      |      | ");
  82              		.loc 1 173 0
  83 001a 1748     		ldr	r0, .L11+4
  84 001c FFF7FEFF 		bl	I2C_CLCD_PrintString
  85              	.LVL4:
 174:CLCD_16x2_control.c ****             I2C_CLCD_Position(1u, 0u);
  86              		.loc 1 174 0
  87 0020 0120     		movs	r0, #1
  88 0022 0021     		movs	r1, #0
  89 0024 FFF7FEFF 		bl	I2C_CLCD_Position
  90              	.LVL5:
 175:CLCD_16x2_control.c ****             I2C_CLCD_PrintString("Distance:       ");
  91              		.loc 1 175 0
  92 0028 1448     		ldr	r0, .L11+8
  93 002a FFF7FEFF 		bl	I2C_CLCD_PrintString
  94              	.LVL6:
 176:CLCD_16x2_control.c ****             break;
  95              		.loc 1 176 0
  96 002e 08BD     		pop	{r3, pc}
  97              	.L7:
 177:CLCD_16x2_control.c ****         case SIGNAL:
 178:CLCD_16x2_control.c ****         /*                       "0123456789012345" */
 179:CLCD_16x2_control.c ****             I2C_CLCD_Position(0u, 0u);
  98              		.loc 1 179 0
  99 0030 0020     		movs	r0, #0
 100 0032 0146     		mov	r1, r0
 101 0034 FFF7FEFF 		bl	I2C_CLCD_Position
 102              	.LVL7:
 180:CLCD_16x2_control.c ****             I2C_CLCD_PrintString("ANT1:         mV");
 103              		.loc 1 180 0
 104 0038 1148     		ldr	r0, .L11+12
 105 003a FFF7FEFF 		bl	I2C_CLCD_PrintString
ARM GAS  C:\Users\koseki\AppData\Local\Temp\cc9v6A3a.s 			page 6


 106              	.LVL8:
 181:CLCD_16x2_control.c ****             I2C_CLCD_Position(1u, 0u);
 107              		.loc 1 181 0
 108 003e 0120     		movs	r0, #1
 109 0040 0021     		movs	r1, #0
 110 0042 FFF7FEFF 		bl	I2C_CLCD_Position
 111              	.LVL9:
 182:CLCD_16x2_control.c ****             I2C_CLCD_PrintString("ANT2:         mV");
 112              		.loc 1 182 0
 113 0046 0F48     		ldr	r0, .L11+16
 114 0048 FFF7FEFF 		bl	I2C_CLCD_PrintString
 115              	.LVL10:
 183:CLCD_16x2_control.c ****             I2C_CLCD_Position(2u, 0u);
 116              		.loc 1 183 0
 117 004c 0220     		movs	r0, #2
 118 004e 0021     		movs	r1, #0
 119 0050 FFF7FEFF 		bl	I2C_CLCD_Position
 120              	.LVL11:
 184:CLCD_16x2_control.c ****             break;
 121              		.loc 1 184 0
 122 0054 08BD     		pop	{r3, pc}
 123              	.L8:
 185:CLCD_16x2_control.c ****         case DIRECTION:
 186:CLCD_16x2_control.c ****         /*                       "0123456789012345" */
 187:CLCD_16x2_control.c ****             I2C_CLCD_Position(0u, 0u);
 124              		.loc 1 187 0
 125 0056 0020     		movs	r0, #0
 126 0058 0146     		mov	r1, r0
 127 005a FFF7FEFF 		bl	I2C_CLCD_Position
 128              	.LVL12:
 188:CLCD_16x2_control.c ****             I2C_CLCD_PrintString("Angle:       deg");
 129              		.loc 1 188 0
 130 005e 0A48     		ldr	r0, .L11+20
 131 0060 FFF7FEFF 		bl	I2C_CLCD_PrintString
 132              	.LVL13:
 189:CLCD_16x2_control.c ****             I2C_CLCD_Position(1u, 0u);
 133              		.loc 1 189 0
 134 0064 0120     		movs	r0, #1
 135 0066 0021     		movs	r1, #0
 136 0068 FFF7FEFF 		bl	I2C_CLCD_Position
 137              	.LVL14:
 190:CLCD_16x2_control.c ****             I2C_CLCD_PrintString("Gain: x         ");
 138              		.loc 1 190 0
 139 006c 0748     		ldr	r0, .L11+24
 140 006e FFF7FEFF 		bl	I2C_CLCD_PrintString
 141              	.LVL15:
 142              	.L5:
 143 0072 08BD     		pop	{r3, pc}
 144              	.L12:
 145              		.align	2
 146              	.L11:
 147 0074 00000000 		.word	.LANCHOR0
 148 0078 18000000 		.word	.LC1
 149 007c 2C000000 		.word	.LC2
 150 0080 40000000 		.word	.LC3
 151 0084 54000000 		.word	.LC4
 152 0088 68000000 		.word	.LC5
ARM GAS  C:\Users\koseki\AppData\Local\Temp\cc9v6A3a.s 			page 7


 153 008c 7C000000 		.word	.LC6
 154              		.cfi_endproc
 155              	.LFE65:
 156              		.size	CLCD_mode_switch, .-CLCD_mode_switch
 157              		.section	.text.set_Vth_Vbias,"ax",%progbits
 158              		.align	2
 159              		.global	set_Vth_Vbias
 160              		.thumb
 161              		.thumb_func
 162              		.type	set_Vth_Vbias, %function
 163              	set_Vth_Vbias:
 164              	.LFB66:
 191:CLCD_16x2_control.c ****             break;
 192:CLCD_16x2_control.c ****         default:
 193:CLCD_16x2_control.c ****             /* nothing to do */
 194:CLCD_16x2_control.c ****             break;
 195:CLCD_16x2_control.c ****     }
 196:CLCD_16x2_control.c **** }
 197:CLCD_16x2_control.c **** 
 198:CLCD_16x2_control.c **** void set_Vth_Vbias(void)
 199:CLCD_16x2_control.c **** {
 165              		.loc 1 199 0
 166              		.cfi_startproc
 167              		@ args = 0, pretend = 0, frame = 0
 168              		@ frame_needed = 0, uses_anonymous_args = 0
 169              		@ link register save eliminated.
 170 0000 7047     		bx	lr
 171              		.cfi_endproc
 172              	.LFE66:
 173              		.size	set_Vth_Vbias, .-set_Vth_Vbias
 174              		.global	__aeabi_ui2f
 175              		.global	__aeabi_fdiv
 176              		.global	__aeabi_f2d
 177 0002 00BF     		.section	.text.CLCD_set_PGA_gain,"ax",%progbits
 178              		.align	2
 179              		.global	CLCD_set_PGA_gain
 180              		.thumb
 181              		.thumb_func
 182              		.type	CLCD_set_PGA_gain, %function
 183              	CLCD_set_PGA_gain:
 184              	.LFB67:
 200:CLCD_16x2_control.c **** #ifdef RF_BIAS
 201:CLCD_16x2_control.c ****     int16 a, b;
 202:CLCD_16x2_control.c **** 
 203:CLCD_16x2_control.c ****     // set Threshold value
 204:CLCD_16x2_control.c ****     a = pga_gain[gain].threshold + Adj_Vth;
 205:CLCD_16x2_control.c ****     if (a > 10)
 206:CLCD_16x2_control.c ****     	Vth = a;
 207:CLCD_16x2_control.c ****     else
 208:CLCD_16x2_control.c ****     {
 209:CLCD_16x2_control.c ****     	Adj_Vth = 10 - pga_gain[gain].threshold;
 210:CLCD_16x2_control.c ****     	Vth = 10;
 211:CLCD_16x2_control.c ****     }
 212:CLCD_16x2_control.c ****     Control_GAIN_Write(Vth);
 213:CLCD_16x2_control.c **** 
 214:CLCD_16x2_control.c ****     // set IF BIAS value
 215:CLCD_16x2_control.c ****     b = pga_gain[gain].bias + Adj_Vbias;
ARM GAS  C:\Users\koseki\AppData\Local\Temp\cc9v6A3a.s 			page 8


 216:CLCD_16x2_control.c ****     if (b < 2000 && b > 0)
 217:CLCD_16x2_control.c ****     	Vbias = b;
 218:CLCD_16x2_control.c ****     else if (b <= 0)
 219:CLCD_16x2_control.c ****     {
 220:CLCD_16x2_control.c ****     	Adj_Vbias = 0 - pga_gain[gain].bias;
 221:CLCD_16x2_control.c ****     	Vbias = 0;
 222:CLCD_16x2_control.c ****     }
 223:CLCD_16x2_control.c ****     else // b >= 2000
 224:CLCD_16x2_control.c ****     {
 225:CLCD_16x2_control.c **** 	    Adj_Vbias = 2000 - pga_gain[gain].bias;
 226:CLCD_16x2_control.c **** 	    Vbias = 2000;
 227:CLCD_16x2_control.c ****     }
 228:CLCD_16x2_control.c ****     DVDAC_2_SetValue(Vbias);
 229:CLCD_16x2_control.c **** #endif
 230:CLCD_16x2_control.c **** }
 231:CLCD_16x2_control.c **** 
 232:CLCD_16x2_control.c **** void CLCD_set_PGA_gain (void)
 233:CLCD_16x2_control.c **** {
 185              		.loc 1 233 0
 186              		.cfi_startproc
 187              		@ args = 0, pretend = 0, frame = 24
 188              		@ frame_needed = 0, uses_anonymous_args = 0
 234:CLCD_16x2_control.c ****     char str[20];
 235:CLCD_16x2_control.c ****     
 236:CLCD_16x2_control.c ****     //if (mode == DISTANCE || mode == SIGNAL || mode == DIRECTION)
 237:CLCD_16x2_control.c ****     if (mode == DIRECTION)
 189              		.loc 1 237 0
 190 0000 2D4B     		ldr	r3, .L22
 191 0002 1B78     		ldrb	r3, [r3]	@ zero_extendqisi2
 192 0004 032B     		cmp	r3, #3
 193 0006 55D1     		bne	.L21
 233:CLCD_16x2_control.c ****     char str[20];
 194              		.loc 1 233 0
 195 0008 00B5     		push	{lr}
 196              		.cfi_def_cfa_offset 4
 197              		.cfi_offset 14, -4
 198 000a 87B0     		sub	sp, sp, #28
 199              		.cfi_def_cfa_offset 32
 238:CLCD_16x2_control.c ****     {
 239:CLCD_16x2_control.c ****         //if (mode == SIGNAL)
 240:CLCD_16x2_control.c ****         //    I2C_CLCD_Position(2u, 11u);
 241:CLCD_16x2_control.c ****         //else
 242:CLCD_16x2_control.c ****             I2C_CLCD_Position(1u, 8u);
 200              		.loc 1 242 0
 201 000c 0120     		movs	r0, #1
 202 000e 0821     		movs	r1, #8
 203 0010 FFF7FEFF 		bl	I2C_CLCD_Position
 204              	.LVL16:
 243:CLCD_16x2_control.c **** 
 244:CLCD_16x2_control.c ****         //sprintf(str, "%2d", pga_gain[gain].magnification);
 245:CLCD_16x2_control.c ****         if (pga_gain[gain].rec_rf_gain == 1)
 205              		.loc 1 245 0
 206 0014 284B     		ldr	r3, .L22
 207 0016 B3F90220 		ldrsh	r2, [r3, #2]
 208 001a 02EB4203 		add	r3, r2, r2, lsl #1
 209 001e 5B00     		lsls	r3, r3, #1
 210 0020 2649     		ldr	r1, .L22+4
ARM GAS  C:\Users\koseki\AppData\Local\Temp\cc9v6A3a.s 			page 9


 211 0022 0B44     		add	r3, r3, r1
 212 0024 9878     		ldrb	r0, [r3, #2]	@ zero_extendqisi2
 213 0026 0128     		cmp	r0, #1
 214 0028 09D1     		bne	.L16
 246:CLCD_16x2_control.c ****             sprintf(str, "%2d      ", pga_gain[gain].magnification);
 215              		.loc 1 246 0
 216 002a 02EB4202 		add	r2, r2, r2, lsl #1
 217 002e 5200     		lsls	r2, r2, #1
 218 0030 0A44     		add	r2, r2, r1
 219 0032 01A8     		add	r0, sp, #4
 220 0034 2249     		ldr	r1, .L22+8
 221 0036 5278     		ldrb	r2, [r2, #1]	@ zero_extendqisi2
 222 0038 FFF7FEFF 		bl	sprintf
 223              	.LVL17:
 224 003c 34E0     		b	.L17
 225              	.L16:
 247:CLCD_16x2_control.c ****         else if (pga_gain[gain].rec_rf_gain == 2)
 226              		.loc 1 247 0
 227 003e 0228     		cmp	r0, #2
 228 0040 0FD1     		bne	.L18
 248:CLCD_16x2_control.c ****             sprintf(str, "% 1.1f    ", (1 / (float)pga_gain[gain].rec_rf_gain));
 229              		.loc 1 248 0
 230 0042 FFF7FEFF 		bl	__aeabi_ui2f
 231              	.LVL18:
 232 0046 0146     		mov	r1, r0
 233 0048 4FF07E50 		mov	r0, #1065353216
 234 004c FFF7FEFF 		bl	__aeabi_fdiv
 235              	.LVL19:
 236 0050 FFF7FEFF 		bl	__aeabi_f2d
 237              	.LVL20:
 238 0054 0246     		mov	r2, r0
 239 0056 0B46     		mov	r3, r1
 240 0058 01A8     		add	r0, sp, #4
 241 005a 1A49     		ldr	r1, .L22+12
 242 005c FFF7FEFF 		bl	sprintf
 243              	.LVL21:
 244 0060 22E0     		b	.L17
 245              	.L18:
 249:CLCD_16x2_control.c ****         else if (pga_gain[gain].rec_rf_gain == 4)
 246              		.loc 1 249 0
 247 0062 0428     		cmp	r0, #4
 248 0064 0FD1     		bne	.L19
 250:CLCD_16x2_control.c ****             sprintf(str, "% 2.2f   ", (1 / (float)pga_gain[gain].rec_rf_gain));
 249              		.loc 1 250 0
 250 0066 FFF7FEFF 		bl	__aeabi_ui2f
 251              	.LVL22:
 252 006a 0146     		mov	r1, r0
 253 006c 4FF07E50 		mov	r0, #1065353216
 254 0070 FFF7FEFF 		bl	__aeabi_fdiv
 255              	.LVL23:
 256 0074 FFF7FEFF 		bl	__aeabi_f2d
 257              	.LVL24:
 258 0078 0246     		mov	r2, r0
 259 007a 0B46     		mov	r3, r1
 260 007c 01A8     		add	r0, sp, #4
 261 007e 1249     		ldr	r1, .L22+16
 262 0080 FFF7FEFF 		bl	sprintf
ARM GAS  C:\Users\koseki\AppData\Local\Temp\cc9v6A3a.s 			page 10


 263              	.LVL25:
 264 0084 10E0     		b	.L17
 265              	.L19:
 251:CLCD_16x2_control.c ****         else if (pga_gain[gain].rec_rf_gain == 8)
 266              		.loc 1 251 0
 267 0086 0828     		cmp	r0, #8
 268 0088 0ED1     		bne	.L17
 252:CLCD_16x2_control.c ****             sprintf(str, "% 3.3f  ", (1 / (float)pga_gain[gain].rec_rf_gain));
 269              		.loc 1 252 0
 270 008a FFF7FEFF 		bl	__aeabi_ui2f
 271              	.LVL26:
 272 008e 0146     		mov	r1, r0
 273 0090 4FF07E50 		mov	r0, #1065353216
 274 0094 FFF7FEFF 		bl	__aeabi_fdiv
 275              	.LVL27:
 276 0098 FFF7FEFF 		bl	__aeabi_f2d
 277              	.LVL28:
 278 009c 0246     		mov	r2, r0
 279 009e 0B46     		mov	r3, r1
 280 00a0 01A8     		add	r0, sp, #4
 281 00a2 0A49     		ldr	r1, .L22+20
 282 00a4 FFF7FEFF 		bl	sprintf
 283              	.LVL29:
 284              	.L17:
 253:CLCD_16x2_control.c ****         I2C_CLCD_PrintString(str);
 285              		.loc 1 253 0
 286 00a8 01A8     		add	r0, sp, #4
 287 00aa FFF7FEFF 		bl	I2C_CLCD_PrintString
 288              	.LVL30:
 254:CLCD_16x2_control.c ****     }
 255:CLCD_16x2_control.c **** }
 289              		.loc 1 255 0
 290 00ae 07B0     		add	sp, sp, #28
 291              		.cfi_def_cfa_offset 4
 292              		@ sp needed
 293 00b0 5DF804FB 		ldr	pc, [sp], #4
 294              	.L21:
 295              		.cfi_def_cfa_offset 0
 296              		.cfi_restore 14
 297 00b4 7047     		bx	lr
 298              	.L23:
 299 00b6 00BF     		.align	2
 300              	.L22:
 301 00b8 00000000 		.word	.LANCHOR0
 302 00bc 00000000 		.word	.LANCHOR1
 303 00c0 90000000 		.word	.LC7
 304 00c4 9C000000 		.word	.LC8
 305 00c8 A8000000 		.word	.LC9
 306 00cc B4000000 		.word	.LC10
 307              		.cfi_endproc
 308              	.LFE67:
 309              		.size	CLCD_set_PGA_gain, .-CLCD_set_PGA_gain
 310              		.global	__aeabi_i2d
 311              		.global	__aeabi_dmul
 312              		.global	__aeabi_dadd
 313              		.global	__aeabi_ddiv
 314              		.global	__aeabi_dcmple
ARM GAS  C:\Users\koseki\AppData\Local\Temp\cc9v6A3a.s 			page 11


 315              		.global	__aeabi_dcmpgt
 316              		.global	__aeabi_d2uiz
 317              		.section	.text.Task_CLCD,"ax",%progbits
 318              		.align	2
 319              		.global	Task_CLCD
 320              		.thumb
 321              		.thumb_func
 322              		.type	Task_CLCD, %function
 323              	Task_CLCD:
 324              	.LFB68:
 256:CLCD_16x2_control.c **** 
 257:CLCD_16x2_control.c **** void Task_CLCD(void *pvParameters)
 258:CLCD_16x2_control.c **** {
 325              		.loc 1 258 0
 326              		.cfi_startproc
 327              		@ args = 0, pretend = 0, frame = 64
 328              		@ frame_needed = 0, uses_anonymous_args = 0
 329              	.LVL31:
 330 0000 2DE9F04F 		push	{r4, r5, r6, r7, r8, r9, r10, fp, lr}
 331              		.cfi_def_cfa_offset 36
 332              		.cfi_offset 4, -36
 333              		.cfi_offset 5, -32
 334              		.cfi_offset 6, -28
 335              		.cfi_offset 7, -24
 336              		.cfi_offset 8, -20
 337              		.cfi_offset 9, -16
 338              		.cfi_offset 10, -12
 339              		.cfi_offset 11, -8
 340              		.cfi_offset 14, -4
 341 0004 91B0     		sub	sp, sp, #68
 342              		.cfi_def_cfa_offset 104
 343              	.LVL32:
 259:CLCD_16x2_control.c ****     char   str[BUFSIZE];
 260:CLCD_16x2_control.c ****     uint8  qmsg;
 261:CLCD_16x2_control.c ****     
 262:CLCD_16x2_control.c ****     uint8  update_level_flag = 0;   // update the level on CLCD
 263:CLCD_16x2_control.c ****     uint8  update_gain_flag = 0;    // update the GAIN of PGA
 264:CLCD_16x2_control.c ****     uint8  car_flag = 0;            // captured data is carier(1) or null(0)
 344              		.loc 1 264 0
 345 0006 0024     		movs	r4, #0
 346 0008 8DF82A40 		strb	r4, [sp, #42]
 347              	.LVL33:
 265:CLCD_16x2_control.c ****     uint8  phi = 0;                 // 0 : smaller than 90 degrees
 266:CLCD_16x2_control.c ****     double rms[NUM_ANT], rms_mixed;
 267:CLCD_16x2_control.c ****     double dir = 0;                 // direction angle
 268:CLCD_16x2_control.c ****     double dir_deg = 0;
 269:CLCD_16x2_control.c ****     uint8  bar_position;      // bar position on the CLCD line 1
 270:CLCD_16x2_control.c ****     uint8  n_bar;             // bar pattern number
 271:CLCD_16x2_control.c ****     double rms_pga = 0;       // rms_mixed / pga_gain
 272:CLCD_16x2_control.c ****     double distance = 0;
 273:CLCD_16x2_control.c **** 
 274:CLCD_16x2_control.c ****     /* Gain Control */
 275:CLCD_16x2_control.c ****     //int16 gain = 0;     /* init value is Min. Gain */
 276:CLCD_16x2_control.c ****     int8 click;
 277:CLCD_16x2_control.c ****     uint8 i;
 278:CLCD_16x2_control.c ****     
 279:CLCD_16x2_control.c ****     const portTickType xDelay = 5 / portTICK_RATE_MS;
ARM GAS  C:\Users\koseki\AppData\Local\Temp\cc9v6A3a.s 			page 12


 280:CLCD_16x2_control.c **** 
 281:CLCD_16x2_control.c ****     CLCD_mode_switch();
 348              		.loc 1 281 0
 349 000c FFF7FEFF 		bl	CLCD_mode_switch
 350              	.LVL34:
 282:CLCD_16x2_control.c ****     
 283:CLCD_16x2_control.c ****     /* set initial VTH for Task_Radio */
 284:CLCD_16x2_control.c ****     Control_GAIN_Write(pga_gain[gain].threshold);
 351              		.loc 1 284 0
 352 0010 BB4B     		ldr	r3, .L67+24
 353 0012 B3F90230 		ldrsh	r3, [r3, #2]
 354 0016 03EB4303 		add	r3, r3, r3, lsl #1
 355 001a 5B00     		lsls	r3, r3, #1
 356 001c B94A     		ldr	r2, .L67+28
 357 001e 1344     		add	r3, r3, r2
 358 0020 D878     		ldrb	r0, [r3, #3]	@ zero_extendqisi2
 359 0022 FFF7FEFF 		bl	Control_GAIN_Write
 360              	.LVL35:
 268:CLCD_16x2_control.c ****     uint8  bar_position;      // bar position on the CLCD line 1
 361              		.loc 1 268 0
 362 0026 0194     		str	r4, [sp, #4]
 363 0028 A046     		mov	r8, r4
 263:CLCD_16x2_control.c ****     uint8  car_flag = 0;            // captured data is carier(1) or null(0)
 364              		.loc 1 263 0
 365 002a A146     		mov	r9, r4
 366              	.LVL36:
 367              	.L25:
 285:CLCD_16x2_control.c ****     
 286:CLCD_16x2_control.c ****     /* set IF Amp BIAS */
 287:CLCD_16x2_control.c **** #ifdef RF_BIAS
 288:CLCD_16x2_control.c ****     DVDAC_2_SetValue((uint16)(Vbias));
 289:CLCD_16x2_control.c **** #endif
 290:CLCD_16x2_control.c ****     
 291:CLCD_16x2_control.c ****     /* Main Loop */
 292:CLCD_16x2_control.c ****     for(;;)
 293:CLCD_16x2_control.c ****     {
 294:CLCD_16x2_control.c ****         if (Status_Reg_1_Read() == 1u)
 368              		.loc 1 294 0
 369 002c FFF7FEFF 		bl	Status_Reg_1_Read
 370              	.LVL37:
 371 0030 0128     		cmp	r0, #1
 372 0032 03D1     		bne	.L26
 295:CLCD_16x2_control.c ****         {
 296:CLCD_16x2_control.c ****             vTaskDelay(xDelay);
 373              		.loc 1 296 0
 374 0034 0520     		movs	r0, #5
 375 0036 FFF7FEFF 		bl	vTaskDelay
 376              	.LVL38:
 297:CLCD_16x2_control.c ****             continue;
 377              		.loc 1 297 0
 378 003a F7E7     		b	.L25
 379              	.L26:
 298:CLCD_16x2_control.c ****         }
 299:CLCD_16x2_control.c **** 
 300:CLCD_16x2_control.c ****         /*** This task is done while there no carrier (about 900ms) ***/
 301:CLCD_16x2_control.c **** 
 302:CLCD_16x2_control.c ****         /* Get Display Mode from Queue of KEY[0] */
ARM GAS  C:\Users\koseki\AppData\Local\Temp\cc9v6A3a.s 			page 13


 303:CLCD_16x2_control.c ****         if (xQueueReceive(xQueue_KEY[0], &qmsg, 0))
 380              		.loc 1 303 0
 381 003c B24B     		ldr	r3, .L67+32
 382 003e 1868     		ldr	r0, [r3]
 383 0040 0DF12B01 		add	r1, sp, #43
 384 0044 0022     		movs	r2, #0
 385 0046 1346     		mov	r3, r2
 386 0048 FFF7FEFF 		bl	xQueueGenericReceive
 387              	.LVL39:
 388 004c 58B1     		cbz	r0, .L28
 304:CLCD_16x2_control.c ****         {
 305:CLCD_16x2_control.c ****             mode++;
 389              		.loc 1 305 0
 390 004e AC4A     		ldr	r2, .L67+24
 391 0050 1378     		ldrb	r3, [r2]	@ zero_extendqisi2
 392 0052 0133     		adds	r3, r3, #1
 393 0054 DBB2     		uxtb	r3, r3
 394 0056 1370     		strb	r3, [r2]
 306:CLCD_16x2_control.c ****             if (mode == NONE)   /* end of table */
 395              		.loc 1 306 0
 396 0058 042B     		cmp	r3, #4
 397 005a 02D1     		bne	.L29
 307:CLCD_16x2_control.c ****                 mode = DISTANCE;  /* the first mode */
 398              		.loc 1 307 0
 399 005c 0122     		movs	r2, #1
 400 005e A84B     		ldr	r3, .L67+24
 401 0060 1A70     		strb	r2, [r3]
 402              	.L29:
 308:CLCD_16x2_control.c ****             
 309:CLCD_16x2_control.c ****             CLCD_mode_switch();   /* init CLCD of the mode */
 403              		.loc 1 309 0
 404 0062 FFF7FEFF 		bl	CLCD_mode_switch
 405              	.LVL40:
 406              	.L28:
 310:CLCD_16x2_control.c ****         }
 311:CLCD_16x2_control.c **** 
 312:CLCD_16x2_control.c ****         /* Get Display Mode from Queue of KEY[1] */
 313:CLCD_16x2_control.c ****         if (xQueueReceive(xQueue_KEY[1], &qmsg, 0))
 407              		.loc 1 313 0
 408 0066 A84B     		ldr	r3, .L67+32
 409 0068 5868     		ldr	r0, [r3, #4]
 410 006a 0DF12B01 		add	r1, sp, #43
 411 006e 0022     		movs	r2, #0
 412 0070 1346     		mov	r3, r2
 413 0072 FFF7FEFF 		bl	xQueueGenericReceive
 414              	.LVL41:
 415 0076 50B1     		cbz	r0, .L30
 314:CLCD_16x2_control.c ****         {
 315:CLCD_16x2_control.c ****             mode--;
 416              		.loc 1 315 0
 417 0078 A14A     		ldr	r2, .L67+24
 418 007a 1378     		ldrb	r3, [r2]	@ zero_extendqisi2
 419 007c 013B     		subs	r3, r3, #1
 420 007e DBB2     		uxtb	r3, r3
 421 0080 1370     		strb	r3, [r2]
 316:CLCD_16x2_control.c ****             if (mode == INVALID)    /* start of table */
 422              		.loc 1 316 0
ARM GAS  C:\Users\koseki\AppData\Local\Temp\cc9v6A3a.s 			page 14


 423 0082 13B9     		cbnz	r3, .L31
 317:CLCD_16x2_control.c ****                 //mode = IF_BIAS;       /* the last mode */
 318:CLCD_16x2_control.c ****                 mode = NONE - 1;
 424              		.loc 1 318 0
 425 0084 0322     		movs	r2, #3
 426 0086 9E4B     		ldr	r3, .L67+24
 427 0088 1A70     		strb	r2, [r3]
 428              	.L31:
 319:CLCD_16x2_control.c ****             CLCD_mode_switch();   /* init CLCD of the mode */
 429              		.loc 1 319 0
 430 008a FFF7FEFF 		bl	CLCD_mode_switch
 431              	.LVL42:
 432              	.L30:
 320:CLCD_16x2_control.c ****         }
 321:CLCD_16x2_control.c **** 
 322:CLCD_16x2_control.c ****         /* Get the signal level from Queue and Display on the CLCD */
 323:CLCD_16x2_control.c ****         if (uxQueueMessagesWaiting(xQueue_RXD) > 0)
 433              		.loc 1 323 0
 434 008e 9F4B     		ldr	r3, .L67+36
 435 0090 1868     		ldr	r0, [r3]
 436 0092 FFF7FEFF 		bl	uxQueueMessagesWaiting
 437              	.LVL43:
 438 0096 0028     		cmp	r0, #0
 439 0098 71D0     		beq	.L32
 324:CLCD_16x2_control.c ****         {
 325:CLCD_16x2_control.c ****             xQueueReceive(xQueue_RXD, &car_flag, 0);
 440              		.loc 1 325 0
 441 009a 9C4B     		ldr	r3, .L67+36
 442 009c 1868     		ldr	r0, [r3]
 443 009e 0DF12A01 		add	r1, sp, #42
 444 00a2 0022     		movs	r2, #0
 445 00a4 1346     		mov	r3, r2
 446 00a6 FFF7FEFF 		bl	xQueueGenericReceive
 447              	.LVL44:
 326:CLCD_16x2_control.c ****             
 327:CLCD_16x2_control.c ****             //xSemaphoreTake(xMutex_RX_BUF, portMAX_DELAY);
 328:CLCD_16x2_control.c ****             // continuous signal for 60ms ?
 329:CLCD_16x2_control.c ****             if (car_flag)
 448              		.loc 1 329 0
 449 00aa 9DF82A30 		ldrb	r3, [sp, #42]	@ zero_extendqisi2
 450 00ae 002B     		cmp	r3, #0
 451 00b0 3ED0     		beq	.L33
 330:CLCD_16x2_control.c ****             {
 331:CLCD_16x2_control.c ****                 MON_3_Write(1u);      // !!!!! Debug !!!!!
 452              		.loc 1 331 0
 453 00b2 0120     		movs	r0, #1
 454 00b4 FFF7FEFF 		bl	MON_3_Write
 455              	.LVL45:
 332:CLCD_16x2_control.c ****                 rms[0] = (double)sum_V1rms / pow(2, MLT_A + 7);
 456              		.loc 1 332 0
 457 00b8 954B     		ldr	r3, .L67+40
 458 00ba 1868     		ldr	r0, [r3]
 459 00bc FFF7FEFF 		bl	__aeabi_i2d
 460              	.LVL46:
 461 00c0 0022     		movs	r2, #0
 462 00c2 944B     		ldr	r3, .L67+44
 463 00c4 FFF7FEFF 		bl	__aeabi_dmul
ARM GAS  C:\Users\koseki\AppData\Local\Temp\cc9v6A3a.s 			page 15


 464              	.LVL47:
 465 00c8 0646     		mov	r6, r0
 466              	.LVL48:
 467 00ca 0F46     		mov	r7, r1
 468 00cc CDE90667 		strd	r6, [sp, #24]
 333:CLCD_16x2_control.c ****                 rms[1] = (double)sum_V2rms / pow(2, MLT_A + 7);
 469              		.loc 1 333 0
 470 00d0 914B     		ldr	r3, .L67+48
 471 00d2 1868     		ldr	r0, [r3]
 472 00d4 FFF7FEFF 		bl	__aeabi_i2d
 473              	.LVL49:
 474 00d8 0022     		movs	r2, #0
 475 00da 8E4B     		ldr	r3, .L67+44
 476 00dc FFF7FEFF 		bl	__aeabi_dmul
 477              	.LVL50:
 478 00e0 0446     		mov	r4, r0
 479              	.LVL51:
 480 00e2 0D46     		mov	r5, r1
 481 00e4 CDE90845 		strd	r4, [sp, #32]
 334:CLCD_16x2_control.c ****                 rms_mixed = sqrt(pow(rms[0], 2) + pow(rms[1], 2));
 482              		.loc 1 334 0
 483 00e8 4FF00008 		mov	r8, #0
 484              	.LVL52:
 485 00ec 4FF08049 		mov	r9, #1073741824
 486              	.LVL53:
 487 00f0 3046     		mov	r0, r6
 488 00f2 3946     		mov	r1, r7
 489 00f4 4246     		mov	r2, r8
 490 00f6 4B46     		mov	r3, r9
 491 00f8 FFF7FEFF 		bl	pow
 492              	.LVL54:
 493 00fc 0646     		mov	r6, r0
 494 00fe 0F46     		mov	r7, r1
 495 0100 2046     		mov	r0, r4
 496 0102 2946     		mov	r1, r5
 497 0104 4246     		mov	r2, r8
 498 0106 4B46     		mov	r3, r9
 499 0108 FFF7FEFF 		bl	pow
 500              	.LVL55:
 501 010c 0246     		mov	r2, r0
 502 010e 0B46     		mov	r3, r1
 503 0110 3046     		mov	r0, r6
 504 0112 3946     		mov	r1, r7
 505 0114 FFF7FEFF 		bl	__aeabi_dadd
 506              	.LVL56:
 507 0118 FFF7FEFF 		bl	sqrt
 508              	.LVL57:
 509 011c 0646     		mov	r6, r0
 510 011e 0F46     		mov	r7, r1
 511              	.LVL58:
 335:CLCD_16x2_control.c ****                 if (sum_V1 <= sum_V1_V2)
 512              		.loc 1 335 0
 513 0120 7E4B     		ldr	r3, .L67+52
 514 0122 1A68     		ldr	r2, [r3]
 515 0124 7E4B     		ldr	r3, .L67+56
 516 0126 1B68     		ldr	r3, [r3]
 517 0128 9A42     		cmp	r2, r3
ARM GAS  C:\Users\koseki\AppData\Local\Temp\cc9v6A3a.s 			page 16


 518 012a 09DC     		bgt	.L59
 336:CLCD_16x2_control.c ****                     // phase is 0 ~ +/-90 deg.
 337:CLCD_16x2_control.c ****                     phi = 0;
 519              		.loc 1 337 0
 520 012c 0024     		movs	r4, #0
 521 012e 08E0     		b	.L34
 522              	.LVL59:
 523              	.L33:
 338:CLCD_16x2_control.c ****                 else
 339:CLCD_16x2_control.c ****                     // phase is +/-90 ~ +/-180deg.
 340:CLCD_16x2_control.c ****                     phi = 1;
 341:CLCD_16x2_control.c ****             }
 342:CLCD_16x2_control.c ****             // continuous null for 1500ms ?
 343:CLCD_16x2_control.c ****             else
 344:CLCD_16x2_control.c ****             {
 345:CLCD_16x2_control.c ****                 rms[0] = 0;
 524              		.loc 1 345 0
 525 0130 0026     		movs	r6, #0
 526              	.LVL60:
 527 0132 0027     		movs	r7, #0
 528 0134 CDE90667 		strd	r6, [sp, #24]
 346:CLCD_16x2_control.c ****                 rms[1] = 0;
 529              		.loc 1 346 0
 530 0138 CDE90867 		strd	r6, [sp, #32]
 531              	.LVL61:
 347:CLCD_16x2_control.c ****                 rms_mixed = 0;
 348:CLCD_16x2_control.c ****                 phi = 0;
 532              		.loc 1 348 0
 533 013c 0024     		movs	r4, #0
 534              	.LVL62:
 535 013e 00E0     		b	.L34
 536              	.LVL63:
 537              	.L59:
 340:CLCD_16x2_control.c ****             }
 538              		.loc 1 340 0
 539 0140 0124     		movs	r4, #1
 540              	.LVL64:
 541              	.L34:
 349:CLCD_16x2_control.c ****             }
 350:CLCD_16x2_control.c ****             //
 351:CLCD_16x2_control.c ****             // Direction
 352:CLCD_16x2_control.c ****             //
 353:CLCD_16x2_control.c ****             dir = atan2(rms[1], rms[0]);
 542              		.loc 1 353 0
 543 0142 DDE90801 		ldrd	r0, [sp, #32]
 544 0146 DDE90623 		ldrd	r2, [sp, #24]
 545 014a FFF7FEFF 		bl	atan2
 546              	.LVL65:
 354:CLCD_16x2_control.c ****             dir_deg = (dir / 3.14159) * 180;
 547              		.loc 1 354 0
 548 014e 66A3     		adr	r3, .L67
 549 0150 D3E90023 		ldrd	r2, [r3]
 550 0154 FFF7FEFF 		bl	__aeabi_ddiv
 551              	.LVL66:
 552 0158 0022     		movs	r2, #0
 553 015a 724B     		ldr	r3, .L67+60
 554 015c FFF7FEFF 		bl	__aeabi_dmul
ARM GAS  C:\Users\koseki\AppData\Local\Temp\cc9v6A3a.s 			page 17


 555              	.LVL67:
 556 0160 0190     		str	r0, [sp, #4]
 557 0162 8846     		mov	r8, r1
 558              	.LVL68:
 355:CLCD_16x2_control.c ****             if (phi == 1)
 559              		.loc 1 355 0
 560 0164 0CB1     		cbz	r4, .L35
 356:CLCD_16x2_control.c ****                 dir_deg = -dir_deg;        /* (-) means left side */
 561              		.loc 1 356 0
 562 0166 01F10048 		add	r8, r1, #-2147483648
 563              	.LVL69:
 564              	.L35:
 357:CLCD_16x2_control.c **** 
 358:CLCD_16x2_control.c ****             update_level_flag = 1;      /* flag for LEVEL diaplay */
 359:CLCD_16x2_control.c ****             update_gain_flag = 1;       /* flag for PGA Gain */
 360:CLCD_16x2_control.c ****             xSemaphoreGive(xMutex_RX_BUF);
 565              		.loc 1 360 0
 566 016a 6F4B     		ldr	r3, .L67+64
 567 016c 1868     		ldr	r0, [r3]
 568 016e 0021     		movs	r1, #0
 569 0170 0A46     		mov	r2, r1
 570 0172 0B46     		mov	r3, r1
 571 0174 FFF7FEFF 		bl	xQueueGenericSend
 572              	.LVL70:
 359:CLCD_16x2_control.c ****             xSemaphoreGive(xMutex_RX_BUF);
 573              		.loc 1 359 0
 574 0178 4FF00109 		mov	r9, #1
 358:CLCD_16x2_control.c ****             update_gain_flag = 1;       /* flag for PGA Gain */
 575              		.loc 1 358 0
 576 017c 4C46     		mov	r4, r9
 577              	.LVL71:
 578              	.L32:
 361:CLCD_16x2_control.c **** 
 362:CLCD_16x2_control.c ****         }    
 363:CLCD_16x2_control.c **** 
 364:CLCD_16x2_control.c ****         if (update_level_flag)
 579              		.loc 1 364 0
 580 017e 002C     		cmp	r4, #0
 581 0180 00F0FD80 		beq	.L36
 365:CLCD_16x2_control.c ****         {
 366:CLCD_16x2_control.c ****             if (mode == DISTANCE)
 582              		.loc 1 366 0
 583 0184 5E4B     		ldr	r3, .L67+24
 584 0186 1B78     		ldrb	r3, [r3]	@ zero_extendqisi2
 585 0188 012B     		cmp	r3, #1
 586 018a 40F08C80 		bne	.L65
 587 018e 27E0     		b	.L60
 588              	.LVL72:
 589              	.L42:
 367:CLCD_16x2_control.c ****             {
 368:CLCD_16x2_control.c ****                 n_bar = 0xff;
 369:CLCD_16x2_control.c ****                 for (i = 0; i < DIR_MAX; i++)
 370:CLCD_16x2_control.c ****                 {
 371:CLCD_16x2_control.c ****                     if ((dir_deg >= dir_tab[i].angle_min)
 590              		.loc 1 371 0
 591 0190 04EB4403 		add	r3, r4, r4, lsl #1
 592 0194 5B00     		lsls	r3, r3, #1
ARM GAS  C:\Users\koseki\AppData\Local\Temp\cc9v6A3a.s 			page 18


 593 0196 5B4A     		ldr	r2, .L67+28
 594 0198 1344     		add	r3, r3, r2
 595 019a B3F93C00 		ldrsh	r0, [r3, #60]
 596 019e FFF7FEFF 		bl	__aeabi_i2d
 597              	.LVL73:
 598 01a2 019A     		ldr	r2, [sp, #4]
 599 01a4 4346     		mov	r3, r8
 600 01a6 FFF7FEFF 		bl	__aeabi_dcmple
 601              	.LVL74:
 602 01aa B0B1     		cbz	r0, .L39
 372:CLCD_16x2_control.c ****                         && (dir_deg < dir_tab[i].angle_max))
 603              		.loc 1 372 0
 604 01ac 04EB4402 		add	r2, r4, r4, lsl #1
 605 01b0 5200     		lsls	r2, r2, #1
 606 01b2 5E4B     		ldr	r3, .L67+68
 607 01b4 1344     		add	r3, r3, r2
 608 01b6 B3F90200 		ldrsh	r0, [r3, #2]
 609 01ba FFF7FEFF 		bl	__aeabi_i2d
 610              	.LVL75:
 611 01be 019A     		ldr	r2, [sp, #4]
 612 01c0 4346     		mov	r3, r8
 613 01c2 FFF7FEFF 		bl	__aeabi_dcmpgt
 614              	.LVL76:
 615 01c6 40B1     		cbz	r0, .L39
 373:CLCD_16x2_control.c ****                     {
 374:CLCD_16x2_control.c ****                         bar_position = dir_tab[i].mark_position;
 616              		.loc 1 374 0
 617 01c8 4E4A     		ldr	r2, .L67+28
 618 01ca 6100     		lsls	r1, r4, #1
 619 01cc 0B19     		adds	r3, r1, r4
 620 01ce 5B00     		lsls	r3, r3, #1
 621 01d0 1344     		add	r3, r3, r2
 622 01d2 93F840B0 		ldrb	fp, [r3, #64]	@ zero_extendqisi2
 623              	.LVL77:
 375:CLCD_16x2_control.c ****                         n_bar = dir_tab[i].n_mark;
 624              		.loc 1 375 0
 625 01d6 93F841A0 		ldrb	r10, [r3, #65]	@ zero_extendqisi2
 626              	.LVL78:
 627              	.L39:
 369:CLCD_16x2_control.c ****                 {
 628              		.loc 1 369 0 discriminator 2
 629 01da 0134     		adds	r4, r4, #1
 630              	.LVL79:
 631 01dc E4B2     		uxtb	r4, r4
 632              	.LVL80:
 633 01de 02E0     		b	.L37
 634              	.LVL81:
 635              	.L60:
 636 01e0 0024     		movs	r4, #0
 637              	.LVL82:
 638 01e2 4FF0FF0A 		mov	r10, #255
 639              	.L37:
 640              	.LVL83:
 369:CLCD_16x2_control.c ****                 {
 641              		.loc 1 369 0 is_stmt 0 discriminator 1
 642 01e6 0C2C     		cmp	r4, #12
 643 01e8 D2D9     		bls	.L42
ARM GAS  C:\Users\koseki\AppData\Local\Temp\cc9v6A3a.s 			page 19


 376:CLCD_16x2_control.c ****                     }
 377:CLCD_16x2_control.c ****                 }
 378:CLCD_16x2_control.c ****                 if ((car_flag) && (n_bar < BAR_MAX))
 644              		.loc 1 378 0 is_stmt 1
 645 01ea 9DF82A30 		ldrb	r3, [sp, #42]	@ zero_extendqisi2
 646 01ee 83B1     		cbz	r3, .L43
 647              		.loc 1 378 0 is_stmt 0 discriminator 1
 648 01f0 BAF10C0F 		cmp	r10, #12
 649 01f4 0DD8     		bhi	.L43
 379:CLCD_16x2_control.c ****                 {
 380:CLCD_16x2_control.c ****                     I2C_CLCD_Position(0u, bar_position);
 650              		.loc 1 380 0 is_stmt 1
 651 01f6 0020     		movs	r0, #0
 652 01f8 5946     		mov	r1, fp
 653 01fa FFF7FEFF 		bl	I2C_CLCD_Position
 654              	.LVL84:
 381:CLCD_16x2_control.c ****                     sprintf(str, "%s", bar[n_bar]);
 655              		.loc 1 381 0
 656 01fe 0BA8     		add	r0, sp, #44
 657 0200 4B49     		ldr	r1, .L67+72
 658 0202 01EB0A11 		add	r1, r1, r10, lsl #4
 659 0206 FFF7FEFF 		bl	strcpy
 660              	.LVL85:
 382:CLCD_16x2_control.c ****                     I2C_CLCD_PrintString(str);
 661              		.loc 1 382 0
 662 020a 0BA8     		add	r0, sp, #44
 663 020c FFF7FEFF 		bl	I2C_CLCD_PrintString
 664              	.LVL86:
 665 0210 06E0     		b	.L44
 666              	.L43:
 383:CLCD_16x2_control.c ****                 }
 384:CLCD_16x2_control.c ****                 else
 385:CLCD_16x2_control.c ****                 {
 386:CLCD_16x2_control.c ****                     I2C_CLCD_Position(0u, 0u);
 667              		.loc 1 386 0
 668 0212 0020     		movs	r0, #0
 669 0214 0146     		mov	r1, r0
 670 0216 FFF7FEFF 		bl	I2C_CLCD_Position
 671              	.LVL87:
 387:CLCD_16x2_control.c ****                     //I2C_CLCD_PrintString("   |      |      |  ");
 388:CLCD_16x2_control.c ****                     I2C_CLCD_PrintString("|      |      |  ");
 672              		.loc 1 388 0
 673 021a 4648     		ldr	r0, .L67+76
 674 021c FFF7FEFF 		bl	I2C_CLCD_PrintString
 675              	.LVL88:
 676              	.L44:
 389:CLCD_16x2_control.c ****                 }
 390:CLCD_16x2_control.c ****                 
 391:CLCD_16x2_control.c ****                 /* Distance to the target */
 392:CLCD_16x2_control.c ****                 //I2C_CLCD_Position(1u, 10u);
 393:CLCD_16x2_control.c ****                 I2C_CLCD_Position(1u, 10u);
 677              		.loc 1 393 0
 678 0220 0120     		movs	r0, #1
 679 0222 0A21     		movs	r1, #10
 680 0224 FFF7FEFF 		bl	I2C_CLCD_Position
 681              	.LVL89:
 394:CLCD_16x2_control.c ****                 if (car_flag)
ARM GAS  C:\Users\koseki\AppData\Local\Temp\cc9v6A3a.s 			page 20


 682              		.loc 1 394 0
 683 0228 9DF82A30 		ldrb	r3, [sp, #42]	@ zero_extendqisi2
 684 022c 83B3     		cbz	r3, .L45
 395:CLCD_16x2_control.c ****                 {
 396:CLCD_16x2_control.c ****                     //(2017.01.18) moved PGA position after the MIX
 397:CLCD_16x2_control.c ****                     //rms_pga = rms_mixed / pga_gain[gain].magnification;
 398:CLCD_16x2_control.c ****                     //(2017.06.09) added RF BIAS control
 399:CLCD_16x2_control.c ****                     rms_pga = (rms_mixed * pga_gain[gain].rec_rf_gain) / pga_gain[gain].magnificati
 685              		.loc 1 399 0
 686 022e 344B     		ldr	r3, .L67+24
 687 0230 B3F90240 		ldrsh	r4, [r3, #2]
 688              	.LVL90:
 689 0234 DFF8CCA0 		ldr	r10, .L67+28
 690              	.LVL91:
 691 0238 6500     		lsls	r5, r4, #1
 692 023a 2B19     		adds	r3, r5, r4
 693 023c 5B00     		lsls	r3, r3, #1
 694 023e 5344     		add	r3, r3, r10
 695 0240 9878     		ldrb	r0, [r3, #2]	@ zero_extendqisi2
 696 0242 FFF7FEFF 		bl	__aeabi_i2d
 697              	.LVL92:
 698 0246 3246     		mov	r2, r6
 699 0248 3B46     		mov	r3, r7
 700 024a FFF7FEFF 		bl	__aeabi_dmul
 701              	.LVL93:
 702 024e CDE90201 		strd	r0, [sp, #8]
 703 0252 2C44     		add	r4, r4, r5
 704 0254 6400     		lsls	r4, r4, #1
 705 0256 5444     		add	r4, r4, r10
 706 0258 6078     		ldrb	r0, [r4, #1]	@ zero_extendqisi2
 707 025a FFF7FEFF 		bl	__aeabi_i2d
 708              	.LVL94:
 709 025e 0246     		mov	r2, r0
 710 0260 0B46     		mov	r3, r1
 711 0262 DDE90201 		ldrd	r0, [sp, #8]
 712 0266 FFF7FEFF 		bl	__aeabi_ddiv
 713              	.LVL95:
 400:CLCD_16x2_control.c ****                     distance = (FOP / pow(rms_pga, PORMS));
 714              		.loc 1 400 0
 715 026a 21A3     		adr	r3, .L67+8
 716 026c D3E90023 		ldrd	r2, [r3]
 717 0270 FFF7FEFF 		bl	pow
 718              	.LVL96:
 719 0274 0246     		mov	r2, r0
 720 0276 0B46     		mov	r3, r1
 721 0278 1FA1     		adr	r1, .L67+16
 722 027a D1E90001 		ldrd	r0, [r1]
 723 027e FFF7FEFF 		bl	__aeabi_ddiv
 724              	.LVL97:
 725 0282 0246     		mov	r2, r0
 726 0284 0B46     		mov	r3, r1
 727              	.LVL98:
 401:CLCD_16x2_control.c ****                     
 402:CLCD_16x2_control.c ****                     sprintf(str, "%+3.1f", distance);
 728              		.loc 1 402 0
 729 0286 0BA8     		add	r0, sp, #44
 730 0288 2B49     		ldr	r1, .L67+80
ARM GAS  C:\Users\koseki\AppData\Local\Temp\cc9v6A3a.s 			page 21


 731 028a FFF7FEFF 		bl	sprintf
 732              	.LVL99:
 733 028e 05E0     		b	.L46
 734              	.LVL100:
 735              	.L45:
 403:CLCD_16x2_control.c ****                 }
 404:CLCD_16x2_control.c ****                 else
 405:CLCD_16x2_control.c ****                     sprintf(str, "lost   ");
 736              		.loc 1 405 0
 737 0290 0BAB     		add	r3, sp, #44
 738 0292 2A4A     		ldr	r2, .L67+84
 739 0294 92E80300 		ldmia	r2, {r0, r1}
 740 0298 83E80300 		stmia	r3, {r0, r1}
 741              	.LVL101:
 742              	.L46:
 406:CLCD_16x2_control.c ****                 I2C_CLCD_PrintString(str);
 743              		.loc 1 406 0
 744 029c 0BA8     		add	r0, sp, #44
 745 029e FFF7FEFF 		bl	I2C_CLCD_PrintString
 746              	.LVL102:
 407:CLCD_16x2_control.c **** 
 408:CLCD_16x2_control.c ****                 /* ANT1 + ANT2 rms */
 409:CLCD_16x2_control.c ****                 //I2C_CLCD_Position(2u, 6u);
 410:CLCD_16x2_control.c ****                 //sprintf(str, "%6.1f", rms_mixed);
 411:CLCD_16x2_control.c ****                 //I2C_CLCD_PrintString(str);
 412:CLCD_16x2_control.c **** 
 413:CLCD_16x2_control.c ****                 /* PGA Gain */
 414:CLCD_16x2_control.c ****                 //CLCD_set_PGA_gain();
 415:CLCD_16x2_control.c ****             }
 416:CLCD_16x2_control.c ****             else if (mode == SIGNAL)
 417:CLCD_16x2_control.c ****             {
 418:CLCD_16x2_control.c ****                 /* ANT1, ANT2 level */
 419:CLCD_16x2_control.c ****                 I2C_CLCD_Position(0u, 6u);
 420:CLCD_16x2_control.c ****                 sprintf(str, "%6.1f", rms[0]);
 421:CLCD_16x2_control.c ****                 I2C_CLCD_PrintString(str);
 422:CLCD_16x2_control.c ****                 I2C_CLCD_Position(1u, 6u);
 423:CLCD_16x2_control.c ****                 sprintf(str, "%6.1f", rms[1]);
 424:CLCD_16x2_control.c ****                 I2C_CLCD_PrintString(str);
 425:CLCD_16x2_control.c ****             }
 426:CLCD_16x2_control.c ****             else if (mode == DIRECTION)
 427:CLCD_16x2_control.c ****             {
 428:CLCD_16x2_control.c ****                 /* Direction to the target */
 429:CLCD_16x2_control.c ****                 I2C_CLCD_Position(0u, 7u);
 430:CLCD_16x2_control.c ****                 if (car_flag)
 431:CLCD_16x2_control.c ****                     sprintf(str, "%+3.1f", dir_deg);
 432:CLCD_16x2_control.c ****                 else
 433:CLCD_16x2_control.c ****                     sprintf(str, "lost     ");
 434:CLCD_16x2_control.c ****                 I2C_CLCD_PrintString(str);
 435:CLCD_16x2_control.c **** 
 436:CLCD_16x2_control.c ****                 /* PGA Gain */
 437:CLCD_16x2_control.c ****                 CLCD_set_PGA_gain();
 438:CLCD_16x2_control.c ****             }
 439:CLCD_16x2_control.c ****             update_level_flag = 0;
 747              		.loc 1 439 0
 748 02a2 0024     		movs	r4, #0
 749 02a4 6BE0     		b	.L36
 750              	.LVL103:
ARM GAS  C:\Users\koseki\AppData\Local\Temp\cc9v6A3a.s 			page 22


 751              	.L65:
 416:CLCD_16x2_control.c ****             {
 752              		.loc 1 416 0
 753 02a6 022B     		cmp	r3, #2
 754 02a8 4CD1     		bne	.L47
 419:CLCD_16x2_control.c ****                 sprintf(str, "%6.1f", rms[0]);
 755              		.loc 1 419 0
 756 02aa 0020     		movs	r0, #0
 757 02ac 0621     		movs	r1, #6
 758 02ae FFF7FEFF 		bl	I2C_CLCD_Position
 759              	.LVL104:
 420:CLCD_16x2_control.c ****                 I2C_CLCD_PrintString(str);
 760              		.loc 1 420 0
 761 02b2 234C     		ldr	r4, .L67+88
 762              	.LVL105:
 763 02b4 0BA8     		add	r0, sp, #44
 764 02b6 2146     		mov	r1, r4
 765 02b8 DDE90623 		ldrd	r2, [sp, #24]
 766 02bc FFF7FEFF 		bl	sprintf
 767              	.LVL106:
 421:CLCD_16x2_control.c ****                 I2C_CLCD_Position(1u, 6u);
 768              		.loc 1 421 0
 769 02c0 0BA8     		add	r0, sp, #44
 770 02c2 FFF7FEFF 		bl	I2C_CLCD_PrintString
 771              	.LVL107:
 422:CLCD_16x2_control.c ****                 sprintf(str, "%6.1f", rms[1]);
 772              		.loc 1 422 0
 773 02c6 0120     		movs	r0, #1
 774 02c8 0621     		movs	r1, #6
 775 02ca FFF7FEFF 		bl	I2C_CLCD_Position
 776              	.LVL108:
 423:CLCD_16x2_control.c ****                 I2C_CLCD_PrintString(str);
 777              		.loc 1 423 0
 778 02ce 0BA8     		add	r0, sp, #44
 779 02d0 2146     		mov	r1, r4
 780 02d2 DDE90823 		ldrd	r2, [sp, #32]
 781 02d6 FFF7FEFF 		bl	sprintf
 782              	.LVL109:
 424:CLCD_16x2_control.c ****             }
 783              		.loc 1 424 0
 784 02da 0BA8     		add	r0, sp, #44
 785 02dc FFF7FEFF 		bl	I2C_CLCD_PrintString
 786              	.LVL110:
 787              		.loc 1 439 0
 788 02e0 0024     		movs	r4, #0
 789 02e2 4CE0     		b	.L36
 790              	.L68:
 791 02e4 AFF30080 		.align	3
 792              	.L67:
 793 02e8 6E861BF0 		.word	-266631570
 794 02ec F9210940 		.word	1074340345
 795 02f0 04560E2D 		.word	755914244
 796 02f4 B29DD73F 		.word	1071095218
 797 02f8 295C8FC2 		.word	-1030792151
 798 02fc F5E83040 		.word	1076947189
 799 0300 00000000 		.word	.LANCHOR0
 800 0304 00000000 		.word	.LANCHOR1
ARM GAS  C:\Users\koseki\AppData\Local\Temp\cc9v6A3a.s 			page 23


 801 0308 00000000 		.word	xQueue_KEY
 802 030c 00000000 		.word	xQueue_RXD
 803 0310 00000000 		.word	sum_V1rms
 804 0314 0000E03E 		.word	1054867456
 805 0318 00000000 		.word	sum_V2rms
 806 031c 00000000 		.word	sum_V1
 807 0320 00000000 		.word	sum_V1_V2
 808 0324 00806640 		.word	1080459264
 809 0328 00000000 		.word	xMutex_RX_BUF
 810 032c 3C000000 		.word	.LANCHOR1+60
 811 0330 8C000000 		.word	.LANCHOR1+140
 812 0334 C0000000 		.word	.LC11
 813 0338 D4000000 		.word	.LC12
 814 033c DC000000 		.word	.LC13
 815 0340 E4000000 		.word	.LC14
 816              	.LVL111:
 817              	.L47:
 426:CLCD_16x2_control.c ****             {
 818              		.loc 1 426 0
 819 0344 032B     		cmp	r3, #3
 820 0346 19D1     		bne	.L61
 429:CLCD_16x2_control.c ****                 if (car_flag)
 821              		.loc 1 429 0
 822 0348 0020     		movs	r0, #0
 823 034a 0721     		movs	r1, #7
 824 034c FFF7FEFF 		bl	I2C_CLCD_Position
 825              	.LVL112:
 430:CLCD_16x2_control.c ****                     sprintf(str, "%+3.1f", dir_deg);
 826              		.loc 1 430 0
 827 0350 9DF82A30 		ldrb	r3, [sp, #42]	@ zero_extendqisi2
 828 0354 33B1     		cbz	r3, .L48
 431:CLCD_16x2_control.c ****                 else
 829              		.loc 1 431 0
 830 0356 0BA8     		add	r0, sp, #44
 831 0358 5049     		ldr	r1, .L69
 832 035a 019A     		ldr	r2, [sp, #4]
 833 035c 4346     		mov	r3, r8
 834 035e FFF7FEFF 		bl	sprintf
 835              	.LVL113:
 836 0362 04E0     		b	.L49
 837              	.L48:
 433:CLCD_16x2_control.c ****                 I2C_CLCD_PrintString(str);
 838              		.loc 1 433 0
 839 0364 4E4A     		ldr	r2, .L69+4
 840 0366 0BAB     		add	r3, sp, #44
 841 0368 07CA     		ldmia	r2, {r0, r1, r2}
 842 036a 03C3     		stmia	r3!, {r0, r1}
 843 036c 1A80     		strh	r2, [r3]	@ movhi
 844              	.L49:
 434:CLCD_16x2_control.c **** 
 845              		.loc 1 434 0
 846 036e 0BA8     		add	r0, sp, #44
 847 0370 FFF7FEFF 		bl	I2C_CLCD_PrintString
 848              	.LVL114:
 437:CLCD_16x2_control.c ****             }
 849              		.loc 1 437 0
 850 0374 FFF7FEFF 		bl	CLCD_set_PGA_gain
ARM GAS  C:\Users\koseki\AppData\Local\Temp\cc9v6A3a.s 			page 24


 851              	.LVL115:
 852              		.loc 1 439 0
 853 0378 0024     		movs	r4, #0
 854              	.LVL116:
 855 037a 00E0     		b	.L36
 856              	.LVL117:
 857              	.L61:
 858 037c 0024     		movs	r4, #0
 859              	.LVL118:
 860              	.L36:
 440:CLCD_16x2_control.c ****         }
 441:CLCD_16x2_control.c **** 
 442:CLCD_16x2_control.c ****         /* Get click count of ROT */
 443:CLCD_16x2_control.c ****         if (uxQueueMessagesWaiting(xQueue_ROT) > 0)
 861              		.loc 1 443 0
 862 037e 494B     		ldr	r3, .L69+8
 863 0380 1868     		ldr	r0, [r3]
 864 0382 FFF7FEFF 		bl	uxQueueMessagesWaiting
 865              	.LVL119:
 866 0386 0028     		cmp	r0, #0
 867 0388 34D0     		beq	.L50
 444:CLCD_16x2_control.c ****         {
 445:CLCD_16x2_control.c ****             xQueueReceive(xQueue_ROT, &click, 0);
 868              		.loc 1 445 0
 869 038a 464B     		ldr	r3, .L69+8
 870 038c 1868     		ldr	r0, [r3]
 871 038e 0DF11701 		add	r1, sp, #23
 872 0392 0022     		movs	r2, #0
 873 0394 1346     		mov	r3, r2
 874 0396 FFF7FEFF 		bl	xQueueGenericReceive
 875              	.LVL120:
 446:CLCD_16x2_control.c ****             //if ((mode == SIGNAL) || (mode == DIRECTION) || (mode == DISTANCE))
 447:CLCD_16x2_control.c ****             if (mode == DIRECTION)
 876              		.loc 1 447 0
 877 039a 434B     		ldr	r3, .L69+12
 878 039c 1B78     		ldrb	r3, [r3]	@ zero_extendqisi2
 879 039e 032B     		cmp	r3, #3
 880 03a0 28D1     		bne	.L50
 448:CLCD_16x2_control.c ****             {
 449:CLCD_16x2_control.c ****                 /* the target PGA gain */
 450:CLCD_16x2_control.c ****                 gain += click ;
 881              		.loc 1 450 0
 882 03a2 9DF91710 		ldrsb	r1, [sp, #23]
 883 03a6 404A     		ldr	r2, .L69+12
 884 03a8 5388     		ldrh	r3, [r2, #2]
 885 03aa 0B44     		add	r3, r3, r1
 886 03ac 9BB2     		uxth	r3, r3
 887 03ae 5380     		strh	r3, [r2, #2]	@ movhi
 451:CLCD_16x2_control.c ****                 if (gain < 0)
 888              		.loc 1 451 0
 889 03b0 13F4004F 		tst	r3, #32768
 890 03b4 02D0     		beq	.L51
 452:CLCD_16x2_control.c ****                     gain = 0;
 891              		.loc 1 452 0
 892 03b6 0022     		movs	r2, #0
 893 03b8 3B4B     		ldr	r3, .L69+12
 894 03ba 5A80     		strh	r2, [r3, #2]	@ movhi
ARM GAS  C:\Users\koseki\AppData\Local\Temp\cc9v6A3a.s 			page 25


 895              	.L51:
 453:CLCD_16x2_control.c ****                 if ((uint16)gain > (GAIN_MAX - 1))
 896              		.loc 1 453 0
 897 03bc 3A4B     		ldr	r3, .L69+12
 898 03be 5B88     		ldrh	r3, [r3, #2]
 899 03c0 092B     		cmp	r3, #9
 900 03c2 02D9     		bls	.L52
 454:CLCD_16x2_control.c ****                     gain = GAIN_MAX - 1;
 901              		.loc 1 454 0
 902 03c4 0922     		movs	r2, #9
 903 03c6 384B     		ldr	r3, .L69+12
 904 03c8 5A80     		strh	r2, [r3, #2]	@ movhi
 905              	.L52:
 455:CLCD_16x2_control.c ****                 /*set PGA gain*/
 456:CLCD_16x2_control.c ****                 PGA_1_SetGain(pga_gain[gain].pga_gain);
 906              		.loc 1 456 0
 907 03ca DFF8E0A0 		ldr	r10, .L69+16
 908 03ce 364D     		ldr	r5, .L69+12
 909 03d0 B5F90230 		ldrsh	r3, [r5, #2]
 910 03d4 03EB4303 		add	r3, r3, r3, lsl #1
 911 03d8 5B00     		lsls	r3, r3, #1
 912 03da 1AF80300 		ldrb	r0, [r10, r3]	@ zero_extendqisi2
 913 03de FFF7FEFF 		bl	PGA_1_SetGain
 914              	.LVL121:
 457:CLCD_16x2_control.c ****                 PGA_2_SetGain(pga_gain[gain].pga_gain);
 915              		.loc 1 457 0
 916 03e2 B5F90230 		ldrsh	r3, [r5, #2]
 917 03e6 03EB4303 		add	r3, r3, r3, lsl #1
 918 03ea 5B00     		lsls	r3, r3, #1
 919 03ec 1AF80300 		ldrb	r0, [r10, r3]	@ zero_extendqisi2
 920 03f0 FFF7FEFF 		bl	PGA_2_SetGain
 921              	.LVL122:
 922              	.L50:
 458:CLCD_16x2_control.c ****                 // update Vth and Vbias
 459:CLCD_16x2_control.c ****                 set_Vth_Vbias();
 460:CLCD_16x2_control.c **** 
 461:CLCD_16x2_control.c ****                 /* PGA Gain */
 462:CLCD_16x2_control.c ****                 //CLCD_set_PGA_gain();
 463:CLCD_16x2_control.c ****             }
 464:CLCD_16x2_control.c ****         }
 465:CLCD_16x2_control.c **** 
 466:CLCD_16x2_control.c **** #define PGA_AGC
 467:CLCD_16x2_control.c **** #ifdef PGA_AGC
 468:CLCD_16x2_control.c ****         /* PGA AGC */
 469:CLCD_16x2_control.c ****         if (update_gain_flag)
 923              		.loc 1 469 0
 924 03f4 B9F1000F 		cmp	r9, #0
 925 03f8 21D1     		bne	.L62
 926 03fa 47E0     		b	.L54
 927              	.LVL123:
 928              	.L56:
 470:CLCD_16x2_control.c ****         {
 471:CLCD_16x2_control.c ****             for (i = 0; i < AGC_MAX; i++)
 472:CLCD_16x2_control.c ****             {
 473:CLCD_16x2_control.c ****                 if (((uint32)rms_mixed >= pga_agc[i].rms_mv_min)
 929              		.loc 1 473 0
 930 03fc 3046     		mov	r0, r6
ARM GAS  C:\Users\koseki\AppData\Local\Temp\cc9v6A3a.s 			page 26


 931 03fe 3946     		mov	r1, r7
 932 0400 FFF7FEFF 		bl	__aeabi_d2uiz
 933              	.LVL124:
 934 0404 05EB4503 		add	r3, r5, r5, lsl #1
 935 0408 5B00     		lsls	r3, r3, #1
 936 040a 2849     		ldr	r1, .L69+16
 937 040c 0B44     		add	r3, r3, r1
 938 040e B3F85C31 		ldrh	r3, [r3, #348]
 939 0412 9842     		cmp	r0, r3
 940 0414 10D3     		bcc	.L55
 474:CLCD_16x2_control.c ****                     && ((uint32)rms_mixed < pga_agc[i].rms_mv_max))
 941              		.loc 1 474 0
 942 0416 05EB4501 		add	r1, r5, r5, lsl #1
 943 041a 4900     		lsls	r1, r1, #1
 944 041c 244B     		ldr	r3, .L69+20
 945 041e 0B44     		add	r3, r3, r1
 946 0420 5B88     		ldrh	r3, [r3, #2]
 947 0422 9842     		cmp	r0, r3
 948 0424 08D2     		bcs	.L55
 475:CLCD_16x2_control.c ****                 {
 476:CLCD_16x2_control.c ****                     gain += pga_agc[i].gain_ctl;
 949              		.loc 1 476 0
 950 0426 0A46     		mov	r2, r1
 951 0428 214B     		ldr	r3, .L69+20
 952 042a 1A44     		add	r2, r2, r3
 953 042c 1E49     		ldr	r1, .L69+12
 954 042e 92F90420 		ldrsb	r2, [r2, #4]
 955 0432 4B88     		ldrh	r3, [r1, #2]
 956 0434 1344     		add	r3, r3, r2
 957 0436 4B80     		strh	r3, [r1, #2]	@ movhi
 958              	.L55:
 471:CLCD_16x2_control.c ****             {
 959              		.loc 1 471 0 discriminator 2
 960 0438 0135     		adds	r5, r5, #1
 961              	.LVL125:
 962 043a EDB2     		uxtb	r5, r5
 963              	.LVL126:
 964 043c 00E0     		b	.L53
 965              	.LVL127:
 966              	.L62:
 967 043e 0025     		movs	r5, #0
 968              	.L53:
 969              	.LVL128:
 471:CLCD_16x2_control.c ****             {
 970              		.loc 1 471 0 is_stmt 0 discriminator 1
 971 0440 092D     		cmp	r5, #9
 972 0442 DBD9     		bls	.L56
 477:CLCD_16x2_control.c ****                 }
 478:CLCD_16x2_control.c ****             }
 479:CLCD_16x2_control.c ****             if (gain < 0)
 973              		.loc 1 479 0 is_stmt 1
 974 0444 184B     		ldr	r3, .L69+12
 975 0446 B3F90230 		ldrsh	r3, [r3, #2]
 976 044a 002B     		cmp	r3, #0
 977 044c 02DA     		bge	.L57
 480:CLCD_16x2_control.c ****                 gain = 0;
 978              		.loc 1 480 0
ARM GAS  C:\Users\koseki\AppData\Local\Temp\cc9v6A3a.s 			page 27


 979 044e 0022     		movs	r2, #0
 980 0450 154B     		ldr	r3, .L69+12
 981 0452 5A80     		strh	r2, [r3, #2]	@ movhi
 982              	.L57:
 481:CLCD_16x2_control.c ****             if ((uint16)gain > (GAIN_MAX - 1))
 983              		.loc 1 481 0
 984 0454 144B     		ldr	r3, .L69+12
 985 0456 5B88     		ldrh	r3, [r3, #2]
 986 0458 092B     		cmp	r3, #9
 987 045a 02D9     		bls	.L58
 482:CLCD_16x2_control.c ****                 gain = GAIN_MAX - 1;
 988              		.loc 1 482 0
 989 045c 0922     		movs	r2, #9
 990 045e 124B     		ldr	r3, .L69+12
 991 0460 5A80     		strh	r2, [r3, #2]	@ movhi
 992              	.L58:
 483:CLCD_16x2_control.c ****             /* set PGA gain */
 484:CLCD_16x2_control.c ****             PGA_1_SetGain(pga_gain[gain].pga_gain);
 993              		.loc 1 484 0
 994 0462 124D     		ldr	r5, .L69+16
 995              	.LVL129:
 996 0464 DFF84090 		ldr	r9, .L69+12
 997              	.LVL130:
 998 0468 B9F90230 		ldrsh	r3, [r9, #2]
 999 046c 03EB4303 		add	r3, r3, r3, lsl #1
 1000 0470 5B00     		lsls	r3, r3, #1
 1001 0472 E85C     		ldrb	r0, [r5, r3]	@ zero_extendqisi2
 1002 0474 FFF7FEFF 		bl	PGA_1_SetGain
 1003              	.LVL131:
 485:CLCD_16x2_control.c ****             PGA_2_SetGain(pga_gain[gain].pga_gain);
 1004              		.loc 1 485 0
 1005 0478 B9F90230 		ldrsh	r3, [r9, #2]
 1006 047c 03EB4303 		add	r3, r3, r3, lsl #1
 1007 0480 5B00     		lsls	r3, r3, #1
 1008 0482 E85C     		ldrb	r0, [r5, r3]	@ zero_extendqisi2
 1009 0484 FFF7FEFF 		bl	PGA_2_SetGain
 1010              	.LVL132:
 486:CLCD_16x2_control.c ****             // update Vth and Vbias
 487:CLCD_16x2_control.c ****             set_Vth_Vbias();
 488:CLCD_16x2_control.c **** 
 489:CLCD_16x2_control.c ****             update_gain_flag = 0;
 1011              		.loc 1 489 0
 1012 0488 4FF00009 		mov	r9, #0
 1013              	.LVL133:
 1014              	.L54:
 490:CLCD_16x2_control.c ****         }
 491:CLCD_16x2_control.c **** #endif
 492:CLCD_16x2_control.c ****         MON_3_Write(0u);      // !!!!! Debug !!!!!
 1015              		.loc 1 492 0
 1016 048c 0020     		movs	r0, #0
 1017 048e FFF7FEFF 		bl	MON_3_Write
 1018              	.LVL134:
 493:CLCD_16x2_control.c ****         vTaskDelay(xDelay);
 1019              		.loc 1 493 0
 1020 0492 0520     		movs	r0, #5
 1021 0494 FFF7FEFF 		bl	vTaskDelay
 1022              	.LVL135:
ARM GAS  C:\Users\koseki\AppData\Local\Temp\cc9v6A3a.s 			page 28


 1023 0498 C8E5     		b	.L25
 1024              	.L70:
 1025 049a 00BF     		.align	2
 1026              	.L69:
 1027 049c D4000000 		.word	.LC12
 1028 04a0 EC000000 		.word	.LC15
 1029 04a4 00000000 		.word	xQueue_ROT
 1030 04a8 00000000 		.word	.LANCHOR0
 1031 04ac 00000000 		.word	.LANCHOR1
 1032 04b0 5C010000 		.word	.LANCHOR1+348
 1033              		.cfi_endproc
 1034              	.LFE68:
 1035              		.size	Task_CLCD, .-Task_CLCD
 1036              		.global	bar
 1037              		.global	dir_tab
 1038              		.global	pga_agc
 1039              		.global	pga_gain
 1040              		.global	Adj_Vbias
 1041              		.global	Adj_Vth
 1042              		.global	Vbias
 1043              		.global	Vth
 1044              		.global	gain
 1045              		.global	mode
 1046              		.section	.rodata
 1047              		.align	2
 1048              		.set	.LANCHOR1,. + 0
 1049              		.type	pga_gain, %object
 1050              		.size	pga_gain, 60
 1051              	pga_gain:
 1052 0000 00       		.byte	0
 1053 0001 01       		.byte	1
 1054 0002 01       		.byte	1
 1055 0003 3C       		.byte	60
 1056 0004 D905     		.short	1497
 1057 0006 01       		.byte	1
 1058 0007 02       		.byte	2
 1059 0008 01       		.byte	1
 1060 0009 3C       		.byte	60
 1061 000a D905     		.short	1497
 1062 000c 02       		.byte	2
 1063 000d 04       		.byte	4
 1064 000e 01       		.byte	1
 1065 000f 3C       		.byte	60
 1066 0010 D905     		.short	1497
 1067 0012 03       		.byte	3
 1068 0013 08       		.byte	8
 1069 0014 01       		.byte	1
 1070 0015 3C       		.byte	60
 1071 0016 D905     		.short	1497
 1072 0018 04       		.byte	4
 1073 0019 10       		.byte	16
 1074 001a 01       		.byte	1
 1075 001b 3C       		.byte	60
 1076 001c D905     		.short	1497
 1077 001e 05       		.byte	5
 1078 001f 18       		.byte	24
 1079 0020 01       		.byte	1
ARM GAS  C:\Users\koseki\AppData\Local\Temp\cc9v6A3a.s 			page 29


 1080 0021 3C       		.byte	60
 1081 0022 D905     		.short	1497
 1082 0024 06       		.byte	6
 1083 0025 20       		.byte	32
 1084 0026 01       		.byte	1
 1085 0027 3C       		.byte	60
 1086 0028 D905     		.short	1497
 1087 002a 07       		.byte	7
 1088 002b 30       		.byte	48
 1089 002c 01       		.byte	1
 1090 002d 3C       		.byte	60
 1091 002e D905     		.short	1497
 1092 0030 08       		.byte	8
 1093 0031 32       		.byte	50
 1094 0032 01       		.byte	1
 1095 0033 3C       		.byte	60
 1096 0034 D905     		.short	1497
 1097 0036 08       		.byte	8
 1098 0037 32       		.byte	50
 1099 0038 01       		.byte	1
 1100 0039 3C       		.byte	60
 1101 003a D905     		.short	1497
 1102              		.type	dir_tab, %object
 1103              		.size	dir_tab, 78
 1104              	dir_tab:
 1105 003c A5FF     		.short	-91
 1106 003e B3FF     		.short	-77
 1107 0040 00       		.byte	0
 1108 0041 00       		.byte	0
 1109 0042 B3FF     		.short	-77
 1110 0044 C1FF     		.short	-63
 1111 0046 00       		.byte	0
 1112 0047 01       		.byte	1
 1113 0048 C1FF     		.short	-63
 1114 004a CFFF     		.short	-49
 1115 004c 00       		.byte	0
 1116 004d 02       		.byte	2
 1117 004e CFFF     		.short	-49
 1118 0050 DDFF     		.short	-35
 1119 0052 00       		.byte	0
 1120 0053 03       		.byte	3
 1121 0054 DDFF     		.short	-35
 1122 0056 EBFF     		.short	-21
 1123 0058 00       		.byte	0
 1124 0059 04       		.byte	4
 1125 005a EBFF     		.short	-21
 1126 005c F9FF     		.short	-7
 1127 005e 00       		.byte	0
 1128 005f 05       		.byte	5
 1129 0060 F9FF     		.short	-7
 1130 0062 0700     		.short	7
 1131 0064 00       		.byte	0
 1132 0065 06       		.byte	6
 1133 0066 0700     		.short	7
 1134 0068 1500     		.short	21
 1135 006a 00       		.byte	0
 1136 006b 07       		.byte	7
ARM GAS  C:\Users\koseki\AppData\Local\Temp\cc9v6A3a.s 			page 30


 1137 006c 1500     		.short	21
 1138 006e 2300     		.short	35
 1139 0070 00       		.byte	0
 1140 0071 08       		.byte	8
 1141 0072 2300     		.short	35
 1142 0074 3100     		.short	49
 1143 0076 00       		.byte	0
 1144 0077 09       		.byte	9
 1145 0078 3100     		.short	49
 1146 007a 3F00     		.short	63
 1147 007c 00       		.byte	0
 1148 007d 0A       		.byte	10
 1149 007e 3F00     		.short	63
 1150 0080 4D00     		.short	77
 1151 0082 00       		.byte	0
 1152 0083 0B       		.byte	11
 1153 0084 4D00     		.short	77
 1154 0086 5B00     		.short	91
 1155 0088 00       		.byte	0
 1156 0089 0C       		.byte	12
 1157 008a 0000     		.space	2
 1158              		.type	bar, %object
 1159              		.size	bar, 208
 1160              	bar:
 1161 008c 7C       		.byte	124
 1162 008d FF       		.byte	-1
 1163 008e FF       		.byte	-1
 1164 008f FF       		.byte	-1
 1165 0090 FF       		.byte	-1
 1166 0091 FF       		.byte	-1
 1167 0092 FF       		.byte	-1
 1168 0093 7C       		.byte	124
 1169 0094 20       		.byte	32
 1170 0095 20       		.byte	32
 1171 0096 20       		.byte	32
 1172 0097 20       		.byte	32
 1173 0098 20       		.byte	32
 1174 0099 20       		.byte	32
 1175 009a 7C       		.byte	124
 1176 009b 00       		.byte	0
 1177 009c 7C       		.byte	124
 1178 009d 20       		.byte	32
 1179 009e FF       		.byte	-1
 1180 009f FF       		.byte	-1
 1181 00a0 FF       		.byte	-1
 1182 00a1 FF       		.byte	-1
 1183 00a2 FF       		.byte	-1
 1184 00a3 7C       		.byte	124
 1185 00a4 20       		.byte	32
 1186 00a5 20       		.byte	32
 1187 00a6 20       		.byte	32
 1188 00a7 20       		.byte	32
 1189 00a8 20       		.byte	32
 1190 00a9 20       		.byte	32
 1191 00aa 7C       		.byte	124
 1192 00ab 00       		.byte	0
 1193 00ac 7C       		.byte	124
ARM GAS  C:\Users\koseki\AppData\Local\Temp\cc9v6A3a.s 			page 31


 1194 00ad 20       		.byte	32
 1195 00ae 20       		.byte	32
 1196 00af FF       		.byte	-1
 1197 00b0 FF       		.byte	-1
 1198 00b1 FF       		.byte	-1
 1199 00b2 FF       		.byte	-1
 1200 00b3 7C       		.byte	124
 1201 00b4 20       		.byte	32
 1202 00b5 20       		.byte	32
 1203 00b6 20       		.byte	32
 1204 00b7 20       		.byte	32
 1205 00b8 20       		.byte	32
 1206 00b9 20       		.byte	32
 1207 00ba 7C       		.byte	124
 1208 00bb 00       		.byte	0
 1209 00bc 7C       		.byte	124
 1210 00bd 20       		.byte	32
 1211 00be 20       		.byte	32
 1212 00bf 20       		.byte	32
 1213 00c0 FF       		.byte	-1
 1214 00c1 FF       		.byte	-1
 1215 00c2 FF       		.byte	-1
 1216 00c3 7C       		.byte	124
 1217 00c4 20       		.byte	32
 1218 00c5 20       		.byte	32
 1219 00c6 20       		.byte	32
 1220 00c7 20       		.byte	32
 1221 00c8 20       		.byte	32
 1222 00c9 20       		.byte	32
 1223 00ca 7C       		.byte	124
 1224 00cb 00       		.byte	0
 1225 00cc 7C       		.byte	124
 1226 00cd 20       		.byte	32
 1227 00ce 20       		.byte	32
 1228 00cf 20       		.byte	32
 1229 00d0 20       		.byte	32
 1230 00d1 FF       		.byte	-1
 1231 00d2 FF       		.byte	-1
 1232 00d3 7C       		.byte	124
 1233 00d4 20       		.byte	32
 1234 00d5 20       		.byte	32
 1235 00d6 20       		.byte	32
 1236 00d7 20       		.byte	32
 1237 00d8 20       		.byte	32
 1238 00d9 20       		.byte	32
 1239 00da 7C       		.byte	124
 1240 00db 00       		.byte	0
 1241 00dc 7C       		.byte	124
 1242 00dd 20       		.byte	32
 1243 00de 20       		.byte	32
 1244 00df 20       		.byte	32
 1245 00e0 20       		.byte	32
 1246 00e1 20       		.byte	32
 1247 00e2 FF       		.byte	-1
 1248 00e3 7C       		.byte	124
 1249 00e4 20       		.byte	32
 1250 00e5 20       		.byte	32
ARM GAS  C:\Users\koseki\AppData\Local\Temp\cc9v6A3a.s 			page 32


 1251 00e6 20       		.byte	32
 1252 00e7 20       		.byte	32
 1253 00e8 20       		.byte	32
 1254 00e9 20       		.byte	32
 1255 00ea 7C       		.byte	124
 1256 00eb 00       		.byte	0
 1257 00ec 7C       		.byte	124
 1258 00ed 20       		.byte	32
 1259 00ee 20       		.byte	32
 1260 00ef 20       		.byte	32
 1261 00f0 20       		.byte	32
 1262 00f1 20       		.byte	32
 1263 00f2 20       		.byte	32
 1264 00f3 FF       		.byte	-1
 1265 00f4 20       		.byte	32
 1266 00f5 20       		.byte	32
 1267 00f6 20       		.byte	32
 1268 00f7 20       		.byte	32
 1269 00f8 20       		.byte	32
 1270 00f9 20       		.byte	32
 1271 00fa 7C       		.byte	124
 1272 00fb 00       		.byte	0
 1273 00fc 7C       		.byte	124
 1274 00fd 20       		.byte	32
 1275 00fe 20       		.byte	32
 1276 00ff 20       		.byte	32
 1277 0100 20       		.byte	32
 1278 0101 20       		.byte	32
 1279 0102 20       		.byte	32
 1280 0103 7C       		.byte	124
 1281 0104 FF       		.byte	-1
 1282 0105 20       		.byte	32
 1283 0106 20       		.byte	32
 1284 0107 20       		.byte	32
 1285 0108 20       		.byte	32
 1286 0109 20       		.byte	32
 1287 010a 7C       		.byte	124
 1288 010b 00       		.byte	0
 1289 010c 7C       		.byte	124
 1290 010d 20       		.byte	32
 1291 010e 20       		.byte	32
 1292 010f 20       		.byte	32
 1293 0110 20       		.byte	32
 1294 0111 20       		.byte	32
 1295 0112 20       		.byte	32
 1296 0113 7C       		.byte	124
 1297 0114 FF       		.byte	-1
 1298 0115 FF       		.byte	-1
 1299 0116 20       		.byte	32
 1300 0117 20       		.byte	32
 1301 0118 20       		.byte	32
 1302 0119 20       		.byte	32
 1303 011a 7C       		.byte	124
 1304 011b 00       		.byte	0
 1305 011c 7C       		.byte	124
 1306 011d 20       		.byte	32
 1307 011e 20       		.byte	32
ARM GAS  C:\Users\koseki\AppData\Local\Temp\cc9v6A3a.s 			page 33


 1308 011f 20       		.byte	32
 1309 0120 20       		.byte	32
 1310 0121 20       		.byte	32
 1311 0122 20       		.byte	32
 1312 0123 7C       		.byte	124
 1313 0124 FF       		.byte	-1
 1314 0125 FF       		.byte	-1
 1315 0126 FF       		.byte	-1
 1316 0127 20       		.byte	32
 1317 0128 20       		.byte	32
 1318 0129 20       		.byte	32
 1319 012a 7C       		.byte	124
 1320 012b 00       		.byte	0
 1321 012c 7C       		.byte	124
 1322 012d 20       		.byte	32
 1323 012e 20       		.byte	32
 1324 012f 20       		.byte	32
 1325 0130 20       		.byte	32
 1326 0131 20       		.byte	32
 1327 0132 20       		.byte	32
 1328 0133 7C       		.byte	124
 1329 0134 FF       		.byte	-1
 1330 0135 FF       		.byte	-1
 1331 0136 FF       		.byte	-1
 1332 0137 FF       		.byte	-1
 1333 0138 20       		.byte	32
 1334 0139 20       		.byte	32
 1335 013a 7C       		.byte	124
 1336 013b 00       		.byte	0
 1337 013c 7C       		.byte	124
 1338 013d 20       		.byte	32
 1339 013e 20       		.byte	32
 1340 013f 20       		.byte	32
 1341 0140 20       		.byte	32
 1342 0141 20       		.byte	32
 1343 0142 20       		.byte	32
 1344 0143 7C       		.byte	124
 1345 0144 FF       		.byte	-1
 1346 0145 FF       		.byte	-1
 1347 0146 FF       		.byte	-1
 1348 0147 FF       		.byte	-1
 1349 0148 FF       		.byte	-1
 1350 0149 20       		.byte	32
 1351 014a 7C       		.byte	124
 1352 014b 00       		.byte	0
 1353 014c 7C       		.byte	124
 1354 014d 20       		.byte	32
 1355 014e 20       		.byte	32
 1356 014f 20       		.byte	32
 1357 0150 20       		.byte	32
 1358 0151 20       		.byte	32
 1359 0152 20       		.byte	32
 1360 0153 7C       		.byte	124
 1361 0154 FF       		.byte	-1
 1362 0155 FF       		.byte	-1
 1363 0156 FF       		.byte	-1
 1364 0157 FF       		.byte	-1
ARM GAS  C:\Users\koseki\AppData\Local\Temp\cc9v6A3a.s 			page 34


 1365 0158 FF       		.byte	-1
 1366 0159 FF       		.byte	-1
 1367 015a 7C       		.byte	124
 1368 015b 00       		.byte	0
 1369              		.type	pga_agc, %object
 1370              		.size	pga_agc, 60
 1371              	pga_agc:
 1372 015c 0000     		.short	0
 1373 015e 0A00     		.short	10
 1374 0160 04       		.byte	4
 1375 0161 00       		.space	1
 1376 0162 0A00     		.short	10
 1377 0164 1400     		.short	20
 1378 0166 03       		.byte	3
 1379 0167 00       		.space	1
 1380 0168 1400     		.short	20
 1381 016a 3200     		.short	50
 1382 016c 02       		.byte	2
 1383 016d 00       		.space	1
 1384 016e 3200     		.short	50
 1385 0170 6400     		.short	100
 1386 0172 01       		.byte	1
 1387 0173 00       		.space	1
 1388 0174 C800     		.short	200
 1389 0176 2C01     		.short	300
 1390 0178 00       		.byte	0
 1391 0179 00       		.space	1
 1392 017a 2C01     		.short	300
 1393 017c F401     		.short	500
 1394 017e 00       		.byte	0
 1395 017f 00       		.space	1
 1396 0180 F401     		.short	500
 1397 0182 2003     		.short	800
 1398 0184 FF       		.byte	-1
 1399 0185 00       		.space	1
 1400 0186 2003     		.short	800
 1401 0188 E803     		.short	1000
 1402 018a FE       		.byte	-2
 1403 018b 00       		.space	1
 1404 018c E803     		.short	1000
 1405 018e D007     		.short	2000
 1406 0190 FC       		.byte	-4
 1407 0191 00       		.space	1
 1408 0192 D007     		.short	2000
 1409 0194 1027     		.short	10000
 1410 0196 FC       		.byte	-4
 1411 0197 00       		.space	1
 1412              		.data
 1413              		.align	1
 1414              		.set	.LANCHOR0,. + 0
 1415              		.type	mode, %object
 1416              		.size	mode, 1
 1417              	mode:
 1418 0000 01       		.byte	1
 1419 0001 00       		.space	1
 1420              		.type	gain, %object
 1421              		.size	gain, 2
ARM GAS  C:\Users\koseki\AppData\Local\Temp\cc9v6A3a.s 			page 35


 1422              	gain:
 1423 0002 0600     		.short	6
 1424              		.type	Vbias, %object
 1425              		.size	Vbias, 2
 1426              	Vbias:
 1427 0004 D905     		.short	1497
 1428              		.type	Vth, %object
 1429              		.size	Vth, 2
 1430              	Vth:
 1431 0006 3C00     		.short	60
 1432              		.section	.rodata.str1.4,"aMS",%progbits,1
 1433              		.align	2
 1434              	.LC0:
 1435 0000 20202020 		.ascii	"                    \000"
 1435      20202020 
 1435      20202020 
 1435      20202020 
 1435      20202020 
 1436 0015 000000   		.space	3
 1437              	.LC1:
 1438 0018 7C202020 		.ascii	"|      |      | \000"
 1438      2020207C 
 1438      20202020 
 1438      20207C20 
 1438      00
 1439 0029 000000   		.space	3
 1440              	.LC2:
 1441 002c 44697374 		.ascii	"Distance:       \000"
 1441      616E6365 
 1441      3A202020 
 1441      20202020 
 1441      00
 1442 003d 000000   		.space	3
 1443              	.LC3:
 1444 0040 414E5431 		.ascii	"ANT1:         mV\000"
 1444      3A202020 
 1444      20202020 
 1444      20206D56 
 1444      00
 1445 0051 000000   		.space	3
 1446              	.LC4:
 1447 0054 414E5432 		.ascii	"ANT2:         mV\000"
 1447      3A202020 
 1447      20202020 
 1447      20206D56 
 1447      00
 1448 0065 000000   		.space	3
 1449              	.LC5:
 1450 0068 416E676C 		.ascii	"Angle:       deg\000"
 1450      653A2020 
 1450      20202020 
 1450      20646567 
 1450      00
 1451 0079 000000   		.space	3
 1452              	.LC6:
 1453 007c 4761696E 		.ascii	"Gain: x         \000"
 1453      3A207820 
ARM GAS  C:\Users\koseki\AppData\Local\Temp\cc9v6A3a.s 			page 36


 1453      20202020 
 1453      20202020 
 1453      00
 1454 008d 000000   		.space	3
 1455              	.LC7:
 1456 0090 25326420 		.ascii	"%2d      \000"
 1456      20202020 
 1456      2000
 1457 009a 0000     		.space	2
 1458              	.LC8:
 1459 009c 2520312E 		.ascii	"% 1.1f    \000"
 1459      31662020 
 1459      202000
 1460 00a7 00       		.space	1
 1461              	.LC9:
 1462 00a8 2520322E 		.ascii	"% 2.2f   \000"
 1462      32662020 
 1462      2000
 1463 00b2 0000     		.space	2
 1464              	.LC10:
 1465 00b4 2520332E 		.ascii	"% 3.3f  \000"
 1465      33662020 
 1465      00
 1466 00bd 000000   		.space	3
 1467              	.LC11:
 1468 00c0 7C202020 		.ascii	"|      |      |  \000"
 1468      2020207C 
 1468      20202020 
 1468      20207C20 
 1468      2000
 1469 00d2 0000     		.space	2
 1470              	.LC12:
 1471 00d4 252B332E 		.ascii	"%+3.1f\000"
 1471      316600
 1472 00db 00       		.space	1
 1473              	.LC13:
 1474 00dc 6C6F7374 		.ascii	"lost   \000"
 1474      20202000 
 1475              	.LC14:
 1476 00e4 25362E31 		.ascii	"%6.1f\000"
 1476      6600
 1477 00ea 0000     		.space	2
 1478              	.LC15:
 1479 00ec 6C6F7374 		.ascii	"lost     \000"
 1479      20202020 
 1479      2000
 1480 00f6 0000     		.bss
 1481              		.align	1
 1482              		.type	Adj_Vbias, %object
 1483              		.size	Adj_Vbias, 2
 1484              	Adj_Vbias:
 1485 0000 0000     		.space	2
 1486              		.type	Adj_Vth, %object
 1487              		.size	Adj_Vth, 2
 1488              	Adj_Vth:
 1489 0002 0000     		.space	2
 1490              		.text
ARM GAS  C:\Users\koseki\AppData\Local\Temp\cc9v6A3a.s 			page 37


 1491              	.Letext0:
 1492              		.file 2 "c:\\program files (x86)\\cypress\\psoc creator\\4.0\\psoc creator\\import\\gnu\\arm\\4.9.
 1493              		.file 3 "c:\\program files (x86)\\cypress\\psoc creator\\4.0\\psoc creator\\import\\gnu\\arm\\4.9.
 1494              		.file 4 "Generated_Source\\PSoC5/cytypes.h"
 1495              		.file 5 "..\\FreeRTOS/portmacro.h"
 1496              		.file 6 "..\\FreeRTOS/queue.h"
 1497              		.file 7 "..\\FreeRTOS/semphr.h"
 1498              		.file 8 "..\\CMSIS_DSP_LIB\\Include/core_cm3.h"
 1499              		.file 9 "..\\API/I2C_CLCD.h"
 1500              		.file 10 "Generated_Source\\PSoC5/Control_GAIN.h"
 1501              		.file 11 "..\\FreeRTOS/task.h"
 1502              		.file 12 "c:\\program files (x86)\\cypress\\psoc creator\\4.0\\psoc creator\\import\\gnu\\arm\\4.9
 1503              		.file 13 "Generated_Source\\PSoC5/MON_3.h"
 1504              		.file 14 "c:\\program files (x86)\\cypress\\psoc creator\\4.0\\psoc creator\\import\\gnu\\arm\\4.9
 1505              		.file 15 "Generated_Source\\PSoC5/PGA_1.h"
 1506              		.file 16 "main.h"
 1507              		.file 17 "Generated_Source\\PSoC5/Status_Reg_1.h"
 1508              		.file 18 "<built-in>"
 1509              		.file 19 "Generated_Source\\PSoC5/PGA_2.h"