ARM GAS  C:\Users\koseki\AppData\Local\Temp\ccPCtr5f.s 			page 1


   1              		.syntax unified
   2              		.cpu cortex-m3
   3              		.fpu softvfp
   4              		.eabi_attribute 20, 1
   5              		.eabi_attribute 21, 1
   6              		.eabi_attribute 23, 3
   7              		.eabi_attribute 24, 1
   8              		.eabi_attribute 25, 1
   9              		.eabi_attribute 26, 1
  10              		.eabi_attribute 30, 1
  11              		.eabi_attribute 34, 1
  12              		.eabi_attribute 18, 4
  13              		.thumb
  14              		.file	"CLCD_control.c"
  15              		.text
  16              	.Ltext0:
  17              		.cfi_sections	.debug_frame
  18              		.section	.text.CLCD_clear,"ax",%progbits
  19              		.align	2
  20              		.global	CLCD_clear
  21              		.thumb
  22              		.thumb_func
  23              		.type	CLCD_clear, %function
  24              	CLCD_clear:
  25              	.LFB119:
  26              		.file 1 "CLCD_control.c"
   1:CLCD_control.c **** /* ========================================
   2:CLCD_control.c ****  *
   3:CLCD_control.c ****  * Copyright YOUR COMPANY, THE YEAR
   4:CLCD_control.c ****  * All Rights Reserved
   5:CLCD_control.c ****  * UNPUBLISHED, LICENSED SOFTWARE.
   6:CLCD_control.c ****  *
   7:CLCD_control.c ****  * CONFIDENTIAL AND PROPRIETARY INFORMATION
   8:CLCD_control.c ****  * WHICH IS THE PROPERTY OF your company.
   9:CLCD_control.c ****  *
  10:CLCD_control.c ****  * ========================================
  11:CLCD_control.c **** */
  12:CLCD_control.c **** 
  13:CLCD_control.c **** /* PSoC5 */
  14:CLCD_control.c **** #include <device.h>
  15:CLCD_control.c **** #include <stdio.h>
  16:CLCD_control.c **** #include <stdlib.h>
  17:CLCD_control.c **** #include <math.h>
  18:CLCD_control.c **** #include "arm_math.h"   /* (2016.7.26) */
  19:CLCD_control.c **** /* FreeRTOS */
  20:CLCD_control.c **** #include "FreeRTOS.h"
  21:CLCD_control.c **** #include "task.h"
  22:CLCD_control.c **** #include "queue.h"
  23:CLCD_control.c **** #include "semphr.h"
  24:CLCD_control.c **** /* API */
  25:CLCD_control.c **** #include "I2C_CLCD.h"
  26:CLCD_control.c **** #include "rot.h"
  27:CLCD_control.c **** #include "key.h"
  28:CLCD_control.c **** /* parameters */
  29:CLCD_control.c **** #include "main.h"
  30:CLCD_control.c **** 
  31:CLCD_control.c **** /* the followings are defined externaly */
ARM GAS  C:\Users\koseki\AppData\Local\Temp\ccPCtr5f.s 			page 2


  32:CLCD_control.c **** extern float32_t ANT1_buf_f32[MAX_BUF_SIZE];   /* A * sin (theta) */
  33:CLCD_control.c **** extern float32_t ANT2_buf_f32[MAX_BUF_SIZE];   /* B * sin (theta + phi) */
  34:CLCD_control.c **** extern float32_t dst_buf_f32[MAX_BUF_SIZE];
  35:CLCD_control.c **** 
  36:CLCD_control.c **** extern xQueueHandle xQueue_KEY[2];
  37:CLCD_control.c **** extern xQueueHandle xQueue_ROT;        /* Queue Data from Task_ROT(ROT_ENC_Handler) */
  38:CLCD_control.c **** extern xQueueHandle xQueue_RXD;        /* Queue Data from Task_RADIO */
  39:CLCD_control.c **** extern xQueueHandle xQueue_RSSI;       /* Queue Data from CY_ISR(ADC_SigDel_Handler) */
  40:CLCD_control.c **** 
  41:CLCD_control.c **** extern xSemaphoreHandle xMutex_RX_BUF;     /* Mutex for RX Data Buffer */
  42:CLCD_control.c **** 
  43:CLCD_control.c **** // Global Variables for CLCD
  44:CLCD_control.c **** enum CLCD_mode mode = DISTANCE;    /* CLCD display mode */
  45:CLCD_control.c **** 
  46:CLCD_control.c **** #define GAIN_x1    3
  47:CLCD_control.c **** int16 gain = GAIN_x1;     /* start with gain x1 */
  48:CLCD_control.c **** 
  49:CLCD_control.c **** // Adjustment of current parameter
  50:CLCD_control.c **** uint16 Vth = GAIN_01_TH;
  51:CLCD_control.c **** uint16 Vbias = IF_BIAS_01;
  52:CLCD_control.c **** int16 Adj_Vth = 0;
  53:CLCD_control.c **** int16 Adj_Vbias = 0;
  54:CLCD_control.c **** 
  55:CLCD_control.c **** 
  56:CLCD_control.c **** /***************************************************************************
  57:CLCD_control.c **** *	Task_CLCD
  58:CLCD_control.c **** ****************************************************************************/
  59:CLCD_control.c **** /* Constants for SetGain function */
  60:CLCD_control.c **** // total gain G is calculated as  G = magnification / rec_rf_gain
  61:CLCD_control.c **** typedef struct
  62:CLCD_control.c **** {
  63:CLCD_control.c ****     uint8   pga_gain;               // defined parameter in PGA module.
  64:CLCD_control.c ****     uint8   magnification;          // PGA gain.
  65:CLCD_control.c ****     uint8   rec_rf_gain;            // reciprocal RF gain. 4 means x(1/4)
  66:CLCD_control.c ****     uint8   threshold;
  67:CLCD_control.c ****     uint16  bias;
  68:CLCD_control.c **** }   GAIN_CTL_STRUCT;
  69:CLCD_control.c **** 
  70:CLCD_control.c **** const GAIN_CTL_STRUCT pga_gain[13] = {
  71:CLCD_control.c ****     {PGA_1_GAIN_01,  1u, 8u, GAIN_01_TH, IF_BIAS_R8},
  72:CLCD_control.c ****     {PGA_1_GAIN_01,  1u, 4u, GAIN_01_TH, IF_BIAS_R4},
  73:CLCD_control.c ****     {PGA_1_GAIN_01,  1u, 2u, GAIN_01_TH, IF_BIAS_R2},
  74:CLCD_control.c ****     {PGA_1_GAIN_01,  1u, 1u, GAIN_01_TH, IF_BIAS_01},       // default
  75:CLCD_control.c ****     {PGA_1_GAIN_02,  2u, 1u, GAIN_02_TH, IF_BIAS_01},
  76:CLCD_control.c ****     {PGA_1_GAIN_04,  4u, 1u, GAIN_04_TH, IF_BIAS_01},
  77:CLCD_control.c ****     {PGA_1_GAIN_08,  8u, 1u, GAIN_08_TH, IF_BIAS_01},
  78:CLCD_control.c ****     {PGA_1_GAIN_16, 16u, 1u, GAIN_16_TH, IF_BIAS_01},
  79:CLCD_control.c ****     {PGA_1_GAIN_24, 24u, 1u, GAIN_24_TH, IF_BIAS_01},
  80:CLCD_control.c ****     {PGA_1_GAIN_32, 32u, 1u, GAIN_32_TH, IF_BIAS_01},
  81:CLCD_control.c ****     {PGA_1_GAIN_48, 48u, 1u, GAIN_48_TH, IF_BIAS_01},
  82:CLCD_control.c ****     {PGA_1_GAIN_50, 50u, 1u, GAIN_50_TH, IF_BIAS_01},
  83:CLCD_control.c ****     {PGA_1_GAIN_MAX, 50u, 1u, GAIN_50_TH, IF_BIAS_01}
  84:CLCD_control.c **** };
  85:CLCD_control.c **** 
  86:CLCD_control.c **** #define GAIN_MAX    sizeof pga_gain / sizeof pga_gain[0]
  87:CLCD_control.c **** 
  88:CLCD_control.c **** typedef struct
ARM GAS  C:\Users\koseki\AppData\Local\Temp\ccPCtr5f.s 			page 3


  89:CLCD_control.c **** {
  90:CLCD_control.c ****     uint16  rms_mv_min;
  91:CLCD_control.c ****     uint16  rms_mv_max;
  92:CLCD_control.c ****     int8   gain_ctl;
  93:CLCD_control.c **** }   GAIN_AGC_TABLE;
  94:CLCD_control.c **** 
  95:CLCD_control.c **** const GAIN_AGC_TABLE pga_agc[9]= {
  96:CLCD_control.c ****     {0, 10, 4},
  97:CLCD_control.c ****     {10, 20, 3},
  98:CLCD_control.c ****     {20, 50, 2},
  99:CLCD_control.c ****     {50, 100, 1},
 100:CLCD_control.c ****     {200, 300, 0},
 101:CLCD_control.c ****     {300, 500, 0},
 102:CLCD_control.c ****     {500, 800, -1},
 103:CLCD_control.c ****     {800, 1000, -2},
 104:CLCD_control.c ****     {1000, 2000, -4},
 105:CLCD_control.c **** };
 106:CLCD_control.c **** #define AGC_MAX     sizeof pga_agc / sizeof pga_agc[0]
 107:CLCD_control.c **** 
 108:CLCD_control.c **** typedef struct
 109:CLCD_control.c **** {
 110:CLCD_control.c ****     int16  angle_min;
 111:CLCD_control.c ****     int16  angle_max;
 112:CLCD_control.c ****     uint8  mark_position;   /* start column position */
 113:CLCD_control.c ****     uint8  n_mark;          /* number of bar array */
 114:CLCD_control.c **** }   DIR_TABLE;
 115:CLCD_control.c **** 
 116:CLCD_control.c **** const DIR_TABLE dir_tab[]= {
 117:CLCD_control.c ****     {-91, -77, 3, 0},
 118:CLCD_control.c ****     {-77, -63, 3, 1},
 119:CLCD_control.c ****     {-63, -49, 3, 2},
 120:CLCD_control.c ****     {-49, -35, 3, 3},
 121:CLCD_control.c ****     {-35, -21, 3, 4},
 122:CLCD_control.c ****     {-21,  -7, 3, 5},
 123:CLCD_control.c ****     { -7,   7, 3, 6},
 124:CLCD_control.c ****     {  7,  21, 3, 7},
 125:CLCD_control.c ****     { 21,  35, 3, 8},
 126:CLCD_control.c ****     { 35,  49, 3, 9},
 127:CLCD_control.c ****     { 49,  63, 3, 10},
 128:CLCD_control.c ****     { 63,  77, 3, 11},
 129:CLCD_control.c ****     { 77,  91, 3, 12}
 130:CLCD_control.c **** };
 131:CLCD_control.c **** #define DIR_MAX     sizeof dir_tab / sizeof dir_tab[0]
 132:CLCD_control.c **** 
 133:CLCD_control.c **** const char8 bar[][16] = {
 134:CLCD_control.c ****     {'|',255,255,255,255,255,255,'|',' ',' ',' ',' ',' ',' ','|', 0},
 135:CLCD_control.c ****     {'|',' ',255,255,255,255,255,'|',' ',' ',' ',' ',' ',' ','|', 0},
 136:CLCD_control.c ****     {'|',' ',' ',255,255,255,255,'|',' ',' ',' ',' ',' ',' ','|', 0},
 137:CLCD_control.c ****     {'|',' ',' ',' ',255,255,255,'|',' ',' ',' ',' ',' ',' ','|', 0},
 138:CLCD_control.c ****     {'|',' ',' ',' ',' ',255,255,'|',' ',' ',' ',' ',' ',' ','|', 0},
 139:CLCD_control.c ****     {'|',' ',' ',' ',' ',' ',255,'|',' ',' ',' ',' ',' ',' ','|', 0},
 140:CLCD_control.c ****     {'|',' ',' ',' ',' ',' ',' ',255,' ',' ',' ',' ',' ',' ','|', 0},
 141:CLCD_control.c ****     {'|',' ',' ',' ',' ',' ',' ','|',255,' ',' ',' ',' ',' ','|', 0},
 142:CLCD_control.c ****     {'|',' ',' ',' ',' ',' ',' ','|',255,255,' ',' ',' ',' ','|', 0},
 143:CLCD_control.c ****     {'|',' ',' ',' ',' ',' ',' ','|',255,255,255,' ',' ',' ','|', 0},
 144:CLCD_control.c ****     {'|',' ',' ',' ',' ',' ',' ','|',255,255,255,255,' ',' ','|', 0},
 145:CLCD_control.c ****     {'|',' ',' ',' ',' ',' ',' ','|',255,255,255,255,255,' ','|', 0},
ARM GAS  C:\Users\koseki\AppData\Local\Temp\ccPCtr5f.s 			page 4


 146:CLCD_control.c ****     {'|',' ',' ',' ',' ',' ',' ','|',255,255,255,255,255,255,'|', 0},
 147:CLCD_control.c **** };
 148:CLCD_control.c **** #define BAR_MAX     sizeof bar / sizeof bar[0]
 149:CLCD_control.c **** 
 150:CLCD_control.c **** void CLCD_clear(uint8 raw)
 151:CLCD_control.c **** {
  27              		.loc 1 151 0
  28              		.cfi_startproc
  29              		@ args = 0, pretend = 0, frame = 0
  30              		@ frame_needed = 0, uses_anonymous_args = 0
  31              	.LVL0:
  32 0000 08B5     		push	{r3, lr}
  33              		.cfi_def_cfa_offset 8
  34              		.cfi_offset 3, -8
  35              		.cfi_offset 14, -4
 152:CLCD_control.c ****     I2C_CLCD_Position(raw, 0u);
  36              		.loc 1 152 0
  37 0002 0021     		movs	r1, #0
  38 0004 FFF7FEFF 		bl	I2C_CLCD_Position
  39              	.LVL1:
 153:CLCD_control.c ****     I2C_CLCD_PrintString("                    ");
  40              		.loc 1 153 0
  41 0008 0148     		ldr	r0, .L3
  42 000a FFF7FEFF 		bl	I2C_CLCD_PrintString
  43              	.LVL2:
  44 000e 08BD     		pop	{r3, pc}
  45              	.L4:
  46              		.align	2
  47              	.L3:
  48 0010 00000000 		.word	.LC0
  49              		.cfi_endproc
  50              	.LFE119:
  51              		.size	CLCD_clear, .-CLCD_clear
  52              		.section	.text.CLCD_mode_switch,"ax",%progbits
  53              		.align	2
  54              		.global	CLCD_mode_switch
  55              		.thumb
  56              		.thumb_func
  57              		.type	CLCD_mode_switch, %function
  58              	CLCD_mode_switch:
  59              	.LFB120:
 154:CLCD_control.c **** }
 155:CLCD_control.c **** 
 156:CLCD_control.c **** void CLCD_mode_switch (void)
 157:CLCD_control.c **** {
  60              		.loc 1 157 0
  61              		.cfi_startproc
  62              		@ args = 0, pretend = 0, frame = 24
  63              		@ frame_needed = 0, uses_anonymous_args = 0
  64 0000 10B5     		push	{r4, lr}
  65              		.cfi_def_cfa_offset 8
  66              		.cfi_offset 4, -8
  67              		.cfi_offset 14, -4
  68 0002 86B0     		sub	sp, sp, #24
  69              		.cfi_def_cfa_offset 32
 158:CLCD_control.c ****     char   str[BUFSIZE];
 159:CLCD_control.c **** 
ARM GAS  C:\Users\koseki\AppData\Local\Temp\ccPCtr5f.s 			page 5


 160:CLCD_control.c ****     switch(mode)
  70              		.loc 1 160 0
  71 0004 674B     		ldr	r3, .L14
  72 0006 1B78     		ldrb	r3, [r3]	@ zero_extendqisi2
  73 0008 013B     		subs	r3, r3, #1
  74 000a 042B     		cmp	r3, #4
  75 000c 00F2C780 		bhi	.L5
  76 0010 DFE803F0 		tbb	[pc, r3]
  77              	.L8:
  78 0014 3D       		.byte	(.L7-.L8)/2
  79 0015 03       		.byte	(.L9-.L8)/2
  80 0016 20       		.byte	(.L10-.L8)/2
  81 0017 5A       		.byte	(.L11-.L8)/2
  82 0018 90       		.byte	(.L12-.L8)/2
  83 0019 00       		.p2align 1
  84              	.L9:
 161:CLCD_control.c ****     {
 162:CLCD_control.c ****         case SIGNAL:
 163:CLCD_control.c ****         /*                       "01234567890123456789" */
 164:CLCD_control.c ****             I2C_CLCD_Position(0u, 0u);
  85              		.loc 1 164 0
  86 001a 0020     		movs	r0, #0
  87 001c 0146     		mov	r1, r0
  88 001e FFF7FEFF 		bl	I2C_CLCD_Position
  89              	.LVL3:
 165:CLCD_control.c ****             I2C_CLCD_PrintString("ANT1:        [mV]   ");
  90              		.loc 1 165 0
  91 0022 6148     		ldr	r0, .L14+4
  92 0024 FFF7FEFF 		bl	I2C_CLCD_PrintString
  93              	.LVL4:
 166:CLCD_control.c ****             I2C_CLCD_Position(1u, 0u);
  94              		.loc 1 166 0
  95 0028 0120     		movs	r0, #1
  96 002a 0021     		movs	r1, #0
  97 002c FFF7FEFF 		bl	I2C_CLCD_Position
  98              	.LVL5:
 167:CLCD_control.c ****             I2C_CLCD_PrintString("ANT2:        [mV]   ");
  99              		.loc 1 167 0
 100 0030 5E48     		ldr	r0, .L14+8
 101 0032 FFF7FEFF 		bl	I2C_CLCD_PrintString
 102              	.LVL6:
 168:CLCD_control.c ****             I2C_CLCD_Position(2u, 0u);
 103              		.loc 1 168 0
 104 0036 0220     		movs	r0, #2
 105 0038 0021     		movs	r1, #0
 106 003a FFF7FEFF 		bl	I2C_CLCD_Position
 107              	.LVL7:
 169:CLCD_control.c ****             I2C_CLCD_PrintString("PGA Gain: x         ");
 108              		.loc 1 169 0
 109 003e 5C48     		ldr	r0, .L14+12
 110 0040 FFF7FEFF 		bl	I2C_CLCD_PrintString
 111              	.LVL8:
 170:CLCD_control.c ****             I2C_CLCD_Position(3u, 0u);
 112              		.loc 1 170 0
 113 0044 0320     		movs	r0, #3
 114 0046 0021     		movs	r1, #0
 115 0048 FFF7FEFF 		bl	I2C_CLCD_Position
ARM GAS  C:\Users\koseki\AppData\Local\Temp\ccPCtr5f.s 			page 6


 116              	.LVL9:
 171:CLCD_control.c ****             I2C_CLCD_PrintString("Phase:         [deg]");
 117              		.loc 1 171 0
 118 004c 5948     		ldr	r0, .L14+16
 119 004e FFF7FEFF 		bl	I2C_CLCD_PrintString
 120              	.LVL10:
 172:CLCD_control.c ****             break;
 121              		.loc 1 172 0
 122 0052 A4E0     		b	.L5
 123              	.L10:
 173:CLCD_control.c ****         case DIRECTION:
 174:CLCD_control.c ****         /*                       "01234567890123456789" */
 175:CLCD_control.c ****             I2C_CLCD_Position(0u, 0u);
 124              		.loc 1 175 0
 125 0054 0020     		movs	r0, #0
 126 0056 0146     		mov	r1, r0
 127 0058 FFF7FEFF 		bl	I2C_CLCD_Position
 128              	.LVL11:
 176:CLCD_control.c ****             I2C_CLCD_PrintString("   |      |      |  ");
 129              		.loc 1 176 0
 130 005c 5648     		ldr	r0, .L14+20
 131 005e FFF7FEFF 		bl	I2C_CLCD_PrintString
 132              	.LVL12:
 177:CLCD_control.c ****             I2C_CLCD_Position(1u, 0u);
 133              		.loc 1 177 0
 134 0062 0120     		movs	r0, #1
 135 0064 0021     		movs	r1, #0
 136 0066 FFF7FEFF 		bl	I2C_CLCD_Position
 137              	.LVL13:
 178:CLCD_control.c ****             I2C_CLCD_PrintString("Angle:         [deg]");
 138              		.loc 1 178 0
 139 006a 5448     		ldr	r0, .L14+24
 140 006c FFF7FEFF 		bl	I2C_CLCD_PrintString
 141              	.LVL14:
 179:CLCD_control.c ****             I2C_CLCD_Position(2u, 0u);
 142              		.loc 1 179 0
 143 0070 0220     		movs	r0, #2
 144 0072 0021     		movs	r1, #0
 145 0074 FFF7FEFF 		bl	I2C_CLCD_Position
 146              	.LVL15:
 180:CLCD_control.c ****             I2C_CLCD_PrintString("RMS:           [mV] ");
 147              		.loc 1 180 0
 148 0078 5148     		ldr	r0, .L14+28
 149 007a FFF7FEFF 		bl	I2C_CLCD_PrintString
 150              	.LVL16:
 181:CLCD_control.c ****             I2C_CLCD_Position(3u, 0u);
 151              		.loc 1 181 0
 152 007e 0320     		movs	r0, #3
 153 0080 0021     		movs	r1, #0
 154 0082 FFF7FEFF 		bl	I2C_CLCD_Position
 155              	.LVL17:
 182:CLCD_control.c ****             I2C_CLCD_PrintString("PGA Gain: x         ");
 156              		.loc 1 182 0
 157 0086 4A48     		ldr	r0, .L14+12
 158 0088 FFF7FEFF 		bl	I2C_CLCD_PrintString
 159              	.LVL18:
 183:CLCD_control.c ****             break;
ARM GAS  C:\Users\koseki\AppData\Local\Temp\ccPCtr5f.s 			page 7


 160              		.loc 1 183 0
 161 008c 87E0     		b	.L5
 162              	.L7:
 184:CLCD_control.c ****         case DISTANCE:
 185:CLCD_control.c ****         /*                       "01234567890123456789" */
 186:CLCD_control.c ****             I2C_CLCD_Position(0u, 0u);
 163              		.loc 1 186 0
 164 008e 0020     		movs	r0, #0
 165 0090 0146     		mov	r1, r0
 166 0092 FFF7FEFF 		bl	I2C_CLCD_Position
 167              	.LVL19:
 187:CLCD_control.c ****             I2C_CLCD_PrintString("   |      |      |  ");
 168              		.loc 1 187 0
 169 0096 4848     		ldr	r0, .L14+20
 170 0098 FFF7FEFF 		bl	I2C_CLCD_PrintString
 171              	.LVL20:
 188:CLCD_control.c ****             I2C_CLCD_Position(1u, 0u);
 172              		.loc 1 188 0
 173 009c 0120     		movs	r0, #1
 174 009e 0021     		movs	r1, #0
 175 00a0 FFF7FEFF 		bl	I2C_CLCD_Position
 176              	.LVL21:
 189:CLCD_control.c ****             I2C_CLCD_PrintString("Distance:      [m]  ");
 177              		.loc 1 189 0
 178 00a4 4748     		ldr	r0, .L14+32
 179 00a6 FFF7FEFF 		bl	I2C_CLCD_PrintString
 180              	.LVL22:
 190:CLCD_control.c ****             I2C_CLCD_Position(2u, 0u);
 181              		.loc 1 190 0
 182 00aa 0220     		movs	r0, #2
 183 00ac 0021     		movs	r1, #0
 184 00ae FFF7FEFF 		bl	I2C_CLCD_Position
 185              	.LVL23:
 191:CLCD_control.c ****             I2C_CLCD_PrintString("RMS:           [mV] ");
 186              		.loc 1 191 0
 187 00b2 4348     		ldr	r0, .L14+28
 188 00b4 FFF7FEFF 		bl	I2C_CLCD_PrintString
 189              	.LVL24:
 192:CLCD_control.c ****             I2C_CLCD_Position(3u, 0u);
 190              		.loc 1 192 0
 191 00b8 0320     		movs	r0, #3
 192 00ba 0021     		movs	r1, #0
 193 00bc FFF7FEFF 		bl	I2C_CLCD_Position
 194              	.LVL25:
 193:CLCD_control.c ****             I2C_CLCD_PrintString("PGA Gain: x         ");
 195              		.loc 1 193 0
 196 00c0 3B48     		ldr	r0, .L14+12
 197 00c2 FFF7FEFF 		bl	I2C_CLCD_PrintString
 198              	.LVL26:
 194:CLCD_control.c ****             break;
 199              		.loc 1 194 0
 200 00c6 6AE0     		b	.L5
 201              	.L11:
 195:CLCD_control.c ****         case THRESHOLD:
 196:CLCD_control.c ****         /*                       "01234567890123456789" */
 197:CLCD_control.c ****             I2C_CLCD_Position(0u, 0u);
 202              		.loc 1 197 0
ARM GAS  C:\Users\koseki\AppData\Local\Temp\ccPCtr5f.s 			page 8


 203 00c8 0020     		movs	r0, #0
 204 00ca 0146     		mov	r1, r0
 205 00cc FFF7FEFF 		bl	I2C_CLCD_Position
 206              	.LVL27:
 198:CLCD_control.c ****             I2C_CLCD_PrintString("Threshold           ");
 207              		.loc 1 198 0
 208 00d0 3D48     		ldr	r0, .L14+36
 209 00d2 FFF7FEFF 		bl	I2C_CLCD_PrintString
 210              	.LVL28:
 199:CLCD_control.c ****             I2C_CLCD_Position(1u, 0u);
 211              		.loc 1 199 0
 212 00d6 0120     		movs	r0, #1
 213 00d8 0021     		movs	r1, #0
 214 00da FFF7FEFF 		bl	I2C_CLCD_Position
 215              	.LVL29:
 200:CLCD_control.c ****             sprintf(str, "Default:    %3d [mV]", pga_gain[gain].threshold);
 216              		.loc 1 200 0
 217 00de 314C     		ldr	r4, .L14
 218 00e0 B4F90230 		ldrsh	r3, [r4, #2]
 219 00e4 03EB4303 		add	r3, r3, r3, lsl #1
 220 00e8 5B00     		lsls	r3, r3, #1
 221 00ea 384A     		ldr	r2, .L14+40
 222 00ec 1344     		add	r3, r3, r2
 223 00ee 01A8     		add	r0, sp, #4
 224 00f0 3749     		ldr	r1, .L14+44
 225 00f2 DA78     		ldrb	r2, [r3, #3]	@ zero_extendqisi2
 226 00f4 FFF7FEFF 		bl	sprintf
 227              	.LVL30:
 201:CLCD_control.c ****             I2C_CLCD_PrintString(str);
 228              		.loc 1 201 0
 229 00f8 01A8     		add	r0, sp, #4
 230 00fa FFF7FEFF 		bl	I2C_CLCD_PrintString
 231              	.LVL31:
 202:CLCD_control.c ****             I2C_CLCD_Position(2u, 0u);
 232              		.loc 1 202 0
 233 00fe 0220     		movs	r0, #2
 234 0100 0021     		movs	r1, #0
 235 0102 FFF7FEFF 		bl	I2C_CLCD_Position
 236              	.LVL32:
 203:CLCD_control.c ****             sprintf(str, "Adj:        %3d [mV]", Adj_Vth);
 237              		.loc 1 203 0
 238 0106 01A8     		add	r0, sp, #4
 239 0108 3249     		ldr	r1, .L14+48
 240 010a 334B     		ldr	r3, .L14+52
 241 010c B3F90020 		ldrsh	r2, [r3]
 242 0110 FFF7FEFF 		bl	sprintf
 243              	.LVL33:
 204:CLCD_control.c ****             I2C_CLCD_PrintString(str);
 244              		.loc 1 204 0
 245 0114 01A8     		add	r0, sp, #4
 246 0116 FFF7FEFF 		bl	I2C_CLCD_PrintString
 247              	.LVL34:
 205:CLCD_control.c ****             I2C_CLCD_Position(3u, 0u);
 248              		.loc 1 205 0
 249 011a 0320     		movs	r0, #3
 250 011c 0021     		movs	r1, #0
 251 011e FFF7FEFF 		bl	I2C_CLCD_Position
ARM GAS  C:\Users\koseki\AppData\Local\Temp\ccPCtr5f.s 			page 9


 252              	.LVL35:
 206:CLCD_control.c ****             sprintf(str, "Current Vth:%3d [mV]", Vth);
 253              		.loc 1 206 0
 254 0122 01A8     		add	r0, sp, #4
 255 0124 2D49     		ldr	r1, .L14+56
 256 0126 A288     		ldrh	r2, [r4, #4]
 257 0128 FFF7FEFF 		bl	sprintf
 258              	.LVL36:
 207:CLCD_control.c ****             I2C_CLCD_PrintString(str);
 259              		.loc 1 207 0
 260 012c 01A8     		add	r0, sp, #4
 261 012e FFF7FEFF 		bl	I2C_CLCD_PrintString
 262              	.LVL37:
 208:CLCD_control.c ****             break;
 263              		.loc 1 208 0
 264 0132 34E0     		b	.L5
 265              	.L12:
 209:CLCD_control.c ****         case IF_BIAS:
 210:CLCD_control.c ****         /*                       "01234567890123456789" */
 211:CLCD_control.c ****             I2C_CLCD_Position(0u, 0u);
 266              		.loc 1 211 0
 267 0134 0020     		movs	r0, #0
 268 0136 0146     		mov	r1, r0
 269 0138 FFF7FEFF 		bl	I2C_CLCD_Position
 270              	.LVL38:
 212:CLCD_control.c ****             I2C_CLCD_PrintString("IF Amp BIAS         ");
 271              		.loc 1 212 0
 272 013c 2848     		ldr	r0, .L14+60
 273 013e FFF7FEFF 		bl	I2C_CLCD_PrintString
 274              	.LVL39:
 213:CLCD_control.c ****             I2C_CLCD_Position(1u, 0u);
 275              		.loc 1 213 0
 276 0142 0120     		movs	r0, #1
 277 0144 0021     		movs	r1, #0
 278 0146 FFF7FEFF 		bl	I2C_CLCD_Position
 279              	.LVL40:
 214:CLCD_control.c ****             sprintf(str, "Default:   %4d [mV]", pga_gain[gain].bias);
 280              		.loc 1 214 0
 281 014a 164C     		ldr	r4, .L14
 282 014c B4F90230 		ldrsh	r3, [r4, #2]
 283 0150 03EB4303 		add	r3, r3, r3, lsl #1
 284 0154 5B00     		lsls	r3, r3, #1
 285 0156 1D4A     		ldr	r2, .L14+40
 286 0158 1344     		add	r3, r3, r2
 287 015a 01A8     		add	r0, sp, #4
 288 015c 2149     		ldr	r1, .L14+64
 289 015e 9A88     		ldrh	r2, [r3, #4]
 290 0160 FFF7FEFF 		bl	sprintf
 291              	.LVL41:
 215:CLCD_control.c ****             I2C_CLCD_PrintString(str);
 292              		.loc 1 215 0
 293 0164 01A8     		add	r0, sp, #4
 294 0166 FFF7FEFF 		bl	I2C_CLCD_PrintString
 295              	.LVL42:
 216:CLCD_control.c ****             I2C_CLCD_Position(2u, 0u);
 296              		.loc 1 216 0
 297 016a 0220     		movs	r0, #2
ARM GAS  C:\Users\koseki\AppData\Local\Temp\ccPCtr5f.s 			page 10


 298 016c 0021     		movs	r1, #0
 299 016e FFF7FEFF 		bl	I2C_CLCD_Position
 300              	.LVL43:
 217:CLCD_control.c ****             sprintf(str, "Adj:       %4d [mV]", Adj_Vbias);
 301              		.loc 1 217 0
 302 0172 01A8     		add	r0, sp, #4
 303 0174 1C49     		ldr	r1, .L14+68
 304 0176 184B     		ldr	r3, .L14+52
 305 0178 B3F90220 		ldrsh	r2, [r3, #2]
 306 017c FFF7FEFF 		bl	sprintf
 307              	.LVL44:
 218:CLCD_control.c ****             I2C_CLCD_PrintString(str);
 308              		.loc 1 218 0
 309 0180 01A8     		add	r0, sp, #4
 310 0182 FFF7FEFF 		bl	I2C_CLCD_PrintString
 311              	.LVL45:
 219:CLCD_control.c ****             I2C_CLCD_Position(3u, 0u);
 312              		.loc 1 219 0
 313 0186 0320     		movs	r0, #3
 314 0188 0021     		movs	r1, #0
 315 018a FFF7FEFF 		bl	I2C_CLCD_Position
 316              	.LVL46:
 220:CLCD_control.c ****             sprintf(str, "Current Vb:%4d [mV]", Vbias);
 317              		.loc 1 220 0
 318 018e 01A8     		add	r0, sp, #4
 319 0190 1649     		ldr	r1, .L14+72
 320 0192 E288     		ldrh	r2, [r4, #6]
 321 0194 FFF7FEFF 		bl	sprintf
 322              	.LVL47:
 221:CLCD_control.c ****             I2C_CLCD_PrintString(str);
 323              		.loc 1 221 0
 324 0198 01A8     		add	r0, sp, #4
 325 019a FFF7FEFF 		bl	I2C_CLCD_PrintString
 326              	.LVL48:
 327              	.L5:
 222:CLCD_control.c ****             break;
 223:CLCD_control.c ****         default:
 224:CLCD_control.c ****             /* nothing to do */
 225:CLCD_control.c ****             break;
 226:CLCD_control.c ****     }
 227:CLCD_control.c **** }
 328              		.loc 1 227 0
 329 019e 06B0     		add	sp, sp, #24
 330              		.cfi_def_cfa_offset 8
 331              		@ sp needed
 332 01a0 10BD     		pop	{r4, pc}
 333              	.L15:
 334 01a2 00BF     		.align	2
 335              	.L14:
 336 01a4 00000000 		.word	.LANCHOR0
 337 01a8 18000000 		.word	.LC1
 338 01ac 30000000 		.word	.LC2
 339 01b0 48000000 		.word	.LC3
 340 01b4 60000000 		.word	.LC4
 341 01b8 78000000 		.word	.LC5
 342 01bc 90000000 		.word	.LC6
 343 01c0 A8000000 		.word	.LC7
ARM GAS  C:\Users\koseki\AppData\Local\Temp\ccPCtr5f.s 			page 11


 344 01c4 C0000000 		.word	.LC8
 345 01c8 D8000000 		.word	.LC9
 346 01cc 00000000 		.word	.LANCHOR1
 347 01d0 F0000000 		.word	.LC10
 348 01d4 08010000 		.word	.LC11
 349 01d8 00000000 		.word	.LANCHOR2
 350 01dc 20010000 		.word	.LC12
 351 01e0 38010000 		.word	.LC13
 352 01e4 50010000 		.word	.LC14
 353 01e8 64010000 		.word	.LC15
 354 01ec 78010000 		.word	.LC16
 355              		.cfi_endproc
 356              	.LFE120:
 357              		.size	CLCD_mode_switch, .-CLCD_mode_switch
 358              		.section	.text.set_Vth_Vbias,"ax",%progbits
 359              		.align	2
 360              		.global	set_Vth_Vbias
 361              		.thumb
 362              		.thumb_func
 363              		.type	set_Vth_Vbias, %function
 364              	set_Vth_Vbias:
 365              	.LFB121:
 228:CLCD_control.c **** 
 229:CLCD_control.c **** void set_Vth_Vbias(void)
 230:CLCD_control.c **** {
 366              		.loc 1 230 0
 367              		.cfi_startproc
 368              		@ args = 0, pretend = 0, frame = 0
 369              		@ frame_needed = 0, uses_anonymous_args = 0
 370 0000 10B5     		push	{r4, lr}
 371              		.cfi_def_cfa_offset 8
 372              		.cfi_offset 4, -8
 373              		.cfi_offset 14, -4
 231:CLCD_control.c ****     int16 a, b;
 232:CLCD_control.c **** 
 233:CLCD_control.c ****     // set Threshold value
 234:CLCD_control.c ****     a = pga_gain[gain].threshold + Adj_Vth;
 374              		.loc 1 234 0
 375 0002 254B     		ldr	r3, .L23
 376 0004 B3F90230 		ldrsh	r3, [r3, #2]
 377 0008 03EB4303 		add	r3, r3, r3, lsl #1
 378 000c 5B00     		lsls	r3, r3, #1
 379 000e 234A     		ldr	r2, .L23+4
 380 0010 1344     		add	r3, r3, r2
 381 0012 DA78     		ldrb	r2, [r3, #3]	@ zero_extendqisi2
 382 0014 224B     		ldr	r3, .L23+8
 383 0016 1B88     		ldrh	r3, [r3]
 384 0018 1344     		add	r3, r3, r2
 385 001a 9BB2     		uxth	r3, r3
 386              	.LVL49:
 235:CLCD_control.c ****     if (a > 10)
 387              		.loc 1 235 0
 388 001c 19B2     		sxth	r1, r3
 389 001e 0A29     		cmp	r1, #10
 390 0020 02DD     		ble	.L17
 236:CLCD_control.c ****     	Vth = a;
 391              		.loc 1 236 0
ARM GAS  C:\Users\koseki\AppData\Local\Temp\ccPCtr5f.s 			page 12


 392 0022 1D4A     		ldr	r2, .L23
 393 0024 9380     		strh	r3, [r2, #4]	@ movhi
 394 0026 06E0     		b	.L18
 395              	.L17:
 237:CLCD_control.c ****     else
 238:CLCD_control.c ****     {
 239:CLCD_control.c ****     	Adj_Vth = 10 - pga_gain[gain].threshold;
 396              		.loc 1 239 0
 397 0028 C2F10A02 		rsb	r2, r2, #10
 398 002c 1C4B     		ldr	r3, .L23+8
 399              	.LVL50:
 400 002e 1A80     		strh	r2, [r3]	@ movhi
 240:CLCD_control.c ****     	Vth = 10;
 401              		.loc 1 240 0
 402 0030 0A22     		movs	r2, #10
 403 0032 194B     		ldr	r3, .L23
 404 0034 9A80     		strh	r2, [r3, #4]	@ movhi
 405              	.L18:
 241:CLCD_control.c ****     }
 242:CLCD_control.c ****     Control_GAIN_Write(Vth);
 406              		.loc 1 242 0
 407 0036 184C     		ldr	r4, .L23
 408 0038 2079     		ldrb	r0, [r4, #4]	@ zero_extendqisi2
 409 003a FFF7FEFF 		bl	Control_GAIN_Write
 410              	.LVL51:
 243:CLCD_control.c **** 
 244:CLCD_control.c ****     // set IF BIAS value
 245:CLCD_control.c ****     b = pga_gain[gain].bias + Adj_Vbias;
 411              		.loc 1 245 0
 412 003e B4F90230 		ldrsh	r3, [r4, #2]
 413 0042 03EB4303 		add	r3, r3, r3, lsl #1
 414 0046 5B00     		lsls	r3, r3, #1
 415 0048 144A     		ldr	r2, .L23+4
 416 004a 1344     		add	r3, r3, r2
 417 004c 9988     		ldrh	r1, [r3, #4]
 418 004e 144B     		ldr	r3, .L23+8
 419 0050 5B88     		ldrh	r3, [r3, #2]
 420 0052 0B44     		add	r3, r3, r1
 421 0054 9BB2     		uxth	r3, r3
 422 0056 98B2     		uxth	r0, r3
 423              	.LVL52:
 246:CLCD_control.c ****     if (b < 2000 && b > 0)
 424              		.loc 1 246 0
 425 0058 5A1E     		subs	r2, r3, #1
 426 005a 92B2     		uxth	r2, r2
 427 005c 40F2CE74 		movw	r4, #1998
 428 0060 A242     		cmp	r2, r4
 429 0062 02D8     		bhi	.L19
 247:CLCD_control.c ****     	Vbias = b;
 430              		.loc 1 247 0
 431 0064 0C4A     		ldr	r2, .L23
 432 0066 D380     		strh	r3, [r2, #6]	@ movhi
 433 0068 11E0     		b	.L20
 434              	.L19:
 248:CLCD_control.c ****     else if (b <= 0)
 435              		.loc 1 248 0
 436 006a 00B2     		sxth	r0, r0
ARM GAS  C:\Users\koseki\AppData\Local\Temp\ccPCtr5f.s 			page 13


 437 006c 0028     		cmp	r0, #0
 438 006e 06DC     		bgt	.L21
 249:CLCD_control.c ****     {
 250:CLCD_control.c ****     	Adj_Vbias = 0 - pga_gain[gain].bias;
 439              		.loc 1 250 0
 440 0070 4942     		negs	r1, r1
 441 0072 0B4B     		ldr	r3, .L23+8
 442 0074 5980     		strh	r1, [r3, #2]	@ movhi
 251:CLCD_control.c ****     	Vbias = 0;
 443              		.loc 1 251 0
 444 0076 0022     		movs	r2, #0
 445 0078 074B     		ldr	r3, .L23
 446 007a DA80     		strh	r2, [r3, #6]	@ movhi
 447 007c 07E0     		b	.L20
 448              	.L21:
 252:CLCD_control.c ****     }
 253:CLCD_control.c ****     else // b >= 2000
 254:CLCD_control.c ****     {
 255:CLCD_control.c **** 	    Adj_Vbias = 2000 - pga_gain[gain].bias;
 449              		.loc 1 255 0
 450 007e C1F5FA61 		rsb	r1, r1, #2000
 451 0082 074B     		ldr	r3, .L23+8
 452 0084 5980     		strh	r1, [r3, #2]	@ movhi
 256:CLCD_control.c **** 	    Vbias = 2000;
 453              		.loc 1 256 0
 454 0086 4FF4FA62 		mov	r2, #2000
 455 008a 034B     		ldr	r3, .L23
 456 008c DA80     		strh	r2, [r3, #6]	@ movhi
 457              	.LVL53:
 458              	.L20:
 257:CLCD_control.c ****     }
 258:CLCD_control.c ****     DVDAC_2_SetValue(Vbias);
 459              		.loc 1 258 0
 460 008e 024B     		ldr	r3, .L23
 461 0090 D888     		ldrh	r0, [r3, #6]
 462 0092 FFF7FEFF 		bl	DVDAC_2_SetValue
 463              	.LVL54:
 464 0096 10BD     		pop	{r4, pc}
 465              	.L24:
 466              		.align	2
 467              	.L23:
 468 0098 00000000 		.word	.LANCHOR0
 469 009c 00000000 		.word	.LANCHOR1
 470 00a0 00000000 		.word	.LANCHOR2
 471              		.cfi_endproc
 472              	.LFE121:
 473              		.size	set_Vth_Vbias, .-set_Vth_Vbias
 474              		.global	__aeabi_ui2f
 475              		.global	__aeabi_fdiv
 476              		.global	__aeabi_f2d
 477              		.section	.text.CLCD_set_PGA_gain,"ax",%progbits
 478              		.align	2
 479              		.global	CLCD_set_PGA_gain
 480              		.thumb
 481              		.thumb_func
 482              		.type	CLCD_set_PGA_gain, %function
 483              	CLCD_set_PGA_gain:
ARM GAS  C:\Users\koseki\AppData\Local\Temp\ccPCtr5f.s 			page 14


 484              	.LFB122:
 259:CLCD_control.c **** }
 260:CLCD_control.c **** 
 261:CLCD_control.c **** void CLCD_set_PGA_gain (void)
 262:CLCD_control.c **** {
 485              		.loc 1 262 0
 486              		.cfi_startproc
 487              		@ args = 0, pretend = 0, frame = 24
 488              		@ frame_needed = 0, uses_anonymous_args = 0
 263:CLCD_control.c ****     char str[20];
 264:CLCD_control.c ****     
 265:CLCD_control.c ****     if (mode == DISTANCE || mode == SIGNAL || mode == DIRECTION)
 489              		.loc 1 265 0
 490 0000 314B     		ldr	r3, .L35
 491 0002 1A78     		ldrb	r2, [r3]	@ zero_extendqisi2
 492 0004 531E     		subs	r3, r2, #1
 493 0006 DBB2     		uxtb	r3, r3
 494 0008 022B     		cmp	r3, #2
 495 000a 5CD8     		bhi	.L34
 262:CLCD_control.c ****     char str[20];
 496              		.loc 1 262 0
 497 000c 00B5     		push	{lr}
 498              		.cfi_def_cfa_offset 4
 499              		.cfi_offset 14, -4
 500 000e 87B0     		sub	sp, sp, #28
 501              		.cfi_def_cfa_offset 32
 266:CLCD_control.c ****     {
 267:CLCD_control.c ****         if (mode == SIGNAL)
 502              		.loc 1 267 0
 503 0010 022A     		cmp	r2, #2
 504 0012 04D1     		bne	.L27
 268:CLCD_control.c ****             I2C_CLCD_Position(2u, 11u);
 505              		.loc 1 268 0
 506 0014 0220     		movs	r0, #2
 507 0016 0B21     		movs	r1, #11
 508 0018 FFF7FEFF 		bl	I2C_CLCD_Position
 509              	.LVL55:
 510 001c 03E0     		b	.L28
 511              	.L27:
 269:CLCD_control.c ****         else
 270:CLCD_control.c ****             I2C_CLCD_Position(3u, 11u);
 512              		.loc 1 270 0
 513 001e 0320     		movs	r0, #3
 514 0020 0B21     		movs	r1, #11
 515 0022 FFF7FEFF 		bl	I2C_CLCD_Position
 516              	.LVL56:
 517              	.L28:
 271:CLCD_control.c **** 
 272:CLCD_control.c ****         //sprintf(str, "%2d", pga_gain[gain].magnification);
 273:CLCD_control.c ****         if (pga_gain[gain].rec_rf_gain == 1)
 518              		.loc 1 273 0
 519 0026 284B     		ldr	r3, .L35
 520 0028 B3F90220 		ldrsh	r2, [r3, #2]
 521 002c 02EB4203 		add	r3, r2, r2, lsl #1
 522 0030 5B00     		lsls	r3, r3, #1
 523 0032 2649     		ldr	r1, .L35+4
 524 0034 0B44     		add	r3, r3, r1
ARM GAS  C:\Users\koseki\AppData\Local\Temp\ccPCtr5f.s 			page 15


 525 0036 9878     		ldrb	r0, [r3, #2]	@ zero_extendqisi2
 526 0038 0128     		cmp	r0, #1
 527 003a 09D1     		bne	.L29
 274:CLCD_control.c ****             sprintf(str, "%2d      ", pga_gain[gain].magnification);
 528              		.loc 1 274 0
 529 003c 02EB4202 		add	r2, r2, r2, lsl #1
 530 0040 5200     		lsls	r2, r2, #1
 531 0042 0A44     		add	r2, r2, r1
 532 0044 01A8     		add	r0, sp, #4
 533 0046 2249     		ldr	r1, .L35+8
 534 0048 5278     		ldrb	r2, [r2, #1]	@ zero_extendqisi2
 535 004a FFF7FEFF 		bl	sprintf
 536              	.LVL57:
 537 004e 34E0     		b	.L30
 538              	.L29:
 275:CLCD_control.c ****         else if (pga_gain[gain].rec_rf_gain == 2)
 539              		.loc 1 275 0
 540 0050 0228     		cmp	r0, #2
 541 0052 0FD1     		bne	.L31
 276:CLCD_control.c ****             sprintf(str, "% 1.1f    ", (1 / (float)pga_gain[gain].rec_rf_gain));
 542              		.loc 1 276 0
 543 0054 FFF7FEFF 		bl	__aeabi_ui2f
 544              	.LVL58:
 545 0058 0146     		mov	r1, r0
 546 005a 4FF07E50 		mov	r0, #1065353216
 547 005e FFF7FEFF 		bl	__aeabi_fdiv
 548              	.LVL59:
 549 0062 FFF7FEFF 		bl	__aeabi_f2d
 550              	.LVL60:
 551 0066 0246     		mov	r2, r0
 552 0068 0B46     		mov	r3, r1
 553 006a 01A8     		add	r0, sp, #4
 554 006c 1949     		ldr	r1, .L35+12
 555 006e FFF7FEFF 		bl	sprintf
 556              	.LVL61:
 557 0072 22E0     		b	.L30
 558              	.L31:
 277:CLCD_control.c ****         else if (pga_gain[gain].rec_rf_gain == 4)
 559              		.loc 1 277 0
 560 0074 0428     		cmp	r0, #4
 561 0076 0FD1     		bne	.L32
 278:CLCD_control.c ****             sprintf(str, "% 2.2f   ", (1 / (float)pga_gain[gain].rec_rf_gain));
 562              		.loc 1 278 0
 563 0078 FFF7FEFF 		bl	__aeabi_ui2f
 564              	.LVL62:
 565 007c 0146     		mov	r1, r0
 566 007e 4FF07E50 		mov	r0, #1065353216
 567 0082 FFF7FEFF 		bl	__aeabi_fdiv
 568              	.LVL63:
 569 0086 FFF7FEFF 		bl	__aeabi_f2d
 570              	.LVL64:
 571 008a 0246     		mov	r2, r0
 572 008c 0B46     		mov	r3, r1
 573 008e 01A8     		add	r0, sp, #4
 574 0090 1149     		ldr	r1, .L35+16
 575 0092 FFF7FEFF 		bl	sprintf
 576              	.LVL65:
ARM GAS  C:\Users\koseki\AppData\Local\Temp\ccPCtr5f.s 			page 16


 577 0096 10E0     		b	.L30
 578              	.L32:
 279:CLCD_control.c ****         else if (pga_gain[gain].rec_rf_gain == 8)
 579              		.loc 1 279 0
 580 0098 0828     		cmp	r0, #8
 581 009a 0ED1     		bne	.L30
 280:CLCD_control.c ****             sprintf(str, "% 3.3f  ", (1 / (float)pga_gain[gain].rec_rf_gain));
 582              		.loc 1 280 0
 583 009c FFF7FEFF 		bl	__aeabi_ui2f
 584              	.LVL66:
 585 00a0 0146     		mov	r1, r0
 586 00a2 4FF07E50 		mov	r0, #1065353216
 587 00a6 FFF7FEFF 		bl	__aeabi_fdiv
 588              	.LVL67:
 589 00aa FFF7FEFF 		bl	__aeabi_f2d
 590              	.LVL68:
 591 00ae 0246     		mov	r2, r0
 592 00b0 0B46     		mov	r3, r1
 593 00b2 01A8     		add	r0, sp, #4
 594 00b4 0949     		ldr	r1, .L35+20
 595 00b6 FFF7FEFF 		bl	sprintf
 596              	.LVL69:
 597              	.L30:
 281:CLCD_control.c ****         I2C_CLCD_PrintString(str);
 598              		.loc 1 281 0
 599 00ba 01A8     		add	r0, sp, #4
 600 00bc FFF7FEFF 		bl	I2C_CLCD_PrintString
 601              	.LVL70:
 282:CLCD_control.c ****     }
 283:CLCD_control.c **** }
 602              		.loc 1 283 0
 603 00c0 07B0     		add	sp, sp, #28
 604              		.cfi_def_cfa_offset 4
 605              		@ sp needed
 606 00c2 5DF804FB 		ldr	pc, [sp], #4
 607              	.L34:
 608              		.cfi_def_cfa_offset 0
 609              		.cfi_restore 14
 610 00c6 7047     		bx	lr
 611              	.L36:
 612              		.align	2
 613              	.L35:
 614 00c8 00000000 		.word	.LANCHOR0
 615 00cc 00000000 		.word	.LANCHOR1
 616 00d0 8C010000 		.word	.LC17
 617 00d4 98010000 		.word	.LC18
 618 00d8 A4010000 		.word	.LC19
 619 00dc B0010000 		.word	.LC20
 620              		.cfi_endproc
 621              	.LFE122:
 622              		.size	CLCD_set_PGA_gain, .-CLCD_set_PGA_gain
 623              		.global	__aeabi_ddiv
 624              		.global	__aeabi_dmul
 625              		.global	__aeabi_fmul
 626              		.global	__aeabi_fadd
 627              		.global	__aeabi_fcmpge
 628              		.global	__aeabi_d2iz
ARM GAS  C:\Users\koseki\AppData\Local\Temp\ccPCtr5f.s 			page 17


 629              		.global	__aeabi_i2d
 630              		.global	__aeabi_dcmple
 631              		.global	__aeabi_dcmpgt
 632              		.global	__aeabi_i2f
 633              		.global	__aeabi_f2uiz
 634              		.section	.text.Task_CLCD,"ax",%progbits
 635              		.align	2
 636              		.global	Task_CLCD
 637              		.thumb
 638              		.thumb_func
 639              		.type	Task_CLCD, %function
 640              	Task_CLCD:
 641              	.LFB123:
 284:CLCD_control.c **** 
 285:CLCD_control.c **** void Task_CLCD(void *pvParameters)
 286:CLCD_control.c **** {
 642              		.loc 1 286 0
 643              		.cfi_startproc
 644              		@ args = 0, pretend = 0, frame = 64
 645              		@ frame_needed = 0, uses_anonymous_args = 0
 646              	.LVL71:
 647 0000 2DE9F04F 		push	{r4, r5, r6, r7, r8, r9, r10, fp, lr}
 648              		.cfi_def_cfa_offset 36
 649              		.cfi_offset 4, -36
 650              		.cfi_offset 5, -32
 651              		.cfi_offset 6, -28
 652              		.cfi_offset 7, -24
 653              		.cfi_offset 8, -20
 654              		.cfi_offset 9, -16
 655              		.cfi_offset 10, -12
 656              		.cfi_offset 11, -8
 657              		.cfi_offset 14, -4
 658 0004 91B0     		sub	sp, sp, #68
 659              		.cfi_def_cfa_offset 104
 660              	.LVL72:
 287:CLCD_control.c ****     char   str[BUFSIZE];
 288:CLCD_control.c ****     uint8  qmsg;
 289:CLCD_control.c ****     //enum CLCD_mode mode = SIGNAL;    /* CLCD display mode */
 290:CLCD_control.c ****     
 291:CLCD_control.c ****     /* DSP mode */
 292:CLCD_control.c ****     uint8  update_level_flag = 0;   /* update the level on CLCD */
 293:CLCD_control.c ****     uint8  update_gain_flag = 0;   /* update the GAIN of PGA */
 294:CLCD_control.c ****     uint8  car_flag = 0;        /* captured data is carier(1) or null(0) */
 661              		.loc 1 294 0
 662 0006 0027     		movs	r7, #0
 663 0008 8DF82A70 		strb	r7, [sp, #42]
 664              	.LVL73:
 295:CLCD_control.c ****     float32_t meanval_cos, meanval_sin;
 296:CLCD_control.c ****     double_t  phi = 0;      /* phase */
 297:CLCD_control.c ****     double_t  phi_deg = 0;
 298:CLCD_control.c ****     float32_t rms[NUM_ANT], rms_mixed;
 299:CLCD_control.c ****     
 300:CLCD_control.c ****     double_t  dir = 0;      /* direction */
 301:CLCD_control.c ****     double_t  dir_deg = 0;
 302:CLCD_control.c ****     uint8  bar_position;      /* bar position on the CLCD line 1  */
 303:CLCD_control.c ****     uint8  n_bar;             /* bar pattern number */
 304:CLCD_control.c **** 
ARM GAS  C:\Users\koseki\AppData\Local\Temp\ccPCtr5f.s 			page 18


 305:CLCD_control.c ****     double_t  rms_pga = 0;    /* rms_mixed / pga_gain  */
 306:CLCD_control.c ****     double_t  distance = 0;
 307:CLCD_control.c **** 
 308:CLCD_control.c ****     /* Gain Control */
 309:CLCD_control.c ****     //int16 gain = 0;     /* init value is Min. Gain */
 310:CLCD_control.c ****     int8 click;
 311:CLCD_control.c ****     uint8 i;
 312:CLCD_control.c ****     
 313:CLCD_control.c ****     const portTickType xDelay = 5 / portTICK_RATE_MS;
 314:CLCD_control.c **** 
 315:CLCD_control.c ****     CLCD_mode_switch();
 665              		.loc 1 315 0
 666 000c FFF7FEFF 		bl	CLCD_mode_switch
 667              	.LVL74:
 316:CLCD_control.c ****     
 317:CLCD_control.c ****     /* set initial VTH for Task_Radio */
 318:CLCD_control.c ****     Control_GAIN_Write(pga_gain[gain].threshold);
 668              		.loc 1 318 0
 669 0010 C14C     		ldr	r4, .L97+24
 670 0012 B4F90230 		ldrsh	r3, [r4, #2]
 671 0016 03EB4303 		add	r3, r3, r3, lsl #1
 672 001a 5B00     		lsls	r3, r3, #1
 673 001c BF4A     		ldr	r2, .L97+28
 674 001e 1344     		add	r3, r3, r2
 675 0020 D878     		ldrb	r0, [r3, #3]	@ zero_extendqisi2
 676 0022 FFF7FEFF 		bl	Control_GAIN_Write
 677              	.LVL75:
 319:CLCD_control.c ****     /* set IF Amp BIAS */
 320:CLCD_control.c ****     DVDAC_2_SetValue((uint16)(Vbias));
 678              		.loc 1 320 0
 679 0026 E088     		ldrh	r0, [r4, #6]
 680 0028 FFF7FEFF 		bl	DVDAC_2_SetValue
 681              	.LVL76:
 301:CLCD_control.c ****     uint8  bar_position;      /* bar position on the CLCD line 1  */
 682              		.loc 1 301 0
 683 002c BB46     		mov	fp, r7
 684 002e 3C46     		mov	r4, r7
 297:CLCD_control.c ****     float32_t rms[NUM_ANT], rms_mixed;
 685              		.loc 1 297 0
 686 0030 0022     		movs	r2, #0
 687 0032 0023     		movs	r3, #0
 688 0034 CDE90023 		strd	r2, [sp]
 293:CLCD_control.c ****     uint8  car_flag = 0;        /* captured data is carier(1) or null(0) */
 689              		.loc 1 293 0
 690 0038 3E46     		mov	r6, r7
 691              	.LVL77:
 692              	.L38:
 321:CLCD_control.c ****     
 322:CLCD_control.c ****     /* Main Loop */
 323:CLCD_control.c ****     for(;;)
 324:CLCD_control.c ****     {
 325:CLCD_control.c ****         if (Status_Reg_1_Read() == 1u)
 693              		.loc 1 325 0
 694 003a FFF7FEFF 		bl	Status_Reg_1_Read
 695              	.LVL78:
 696 003e 0128     		cmp	r0, #1
 697 0040 03D1     		bne	.L39
ARM GAS  C:\Users\koseki\AppData\Local\Temp\ccPCtr5f.s 			page 19


 326:CLCD_control.c ****         {
 327:CLCD_control.c ****             vTaskDelay(xDelay);
 698              		.loc 1 327 0
 699 0042 0520     		movs	r0, #5
 700 0044 FFF7FEFF 		bl	vTaskDelay
 701              	.LVL79:
 328:CLCD_control.c ****             continue;
 702              		.loc 1 328 0
 703 0048 F7E7     		b	.L38
 704              	.L39:
 329:CLCD_control.c ****         }
 330:CLCD_control.c **** 
 331:CLCD_control.c ****         /*** This task is done for the duration of no carrier (about 900ms) ***/
 332:CLCD_control.c **** 
 333:CLCD_control.c ****         /* Get Display Mode from Queue of KEY[0] */
 334:CLCD_control.c ****         if (xQueueReceive(xQueue_KEY[0], &qmsg, 0))
 705              		.loc 1 334 0
 706 004a B54B     		ldr	r3, .L97+32
 707 004c 1868     		ldr	r0, [r3]
 708 004e 0DF12B01 		add	r1, sp, #43
 709 0052 0022     		movs	r2, #0
 710 0054 1346     		mov	r3, r2
 711 0056 FFF7FEFF 		bl	xQueueGenericReceive
 712              	.LVL80:
 713 005a 58B1     		cbz	r0, .L41
 335:CLCD_control.c ****         {
 336:CLCD_control.c ****             mode++;
 714              		.loc 1 336 0
 715 005c AE4A     		ldr	r2, .L97+24
 716 005e 1378     		ldrb	r3, [r2]	@ zero_extendqisi2
 717 0060 0133     		adds	r3, r3, #1
 718 0062 DBB2     		uxtb	r3, r3
 719 0064 1370     		strb	r3, [r2]
 337:CLCD_control.c ****             if (mode == NONE)   /* end of table */
 720              		.loc 1 337 0
 721 0066 062B     		cmp	r3, #6
 722 0068 02D1     		bne	.L42
 338:CLCD_control.c ****                 mode = DISTANCE;  /* the first mode */
 723              		.loc 1 338 0
 724 006a 0122     		movs	r2, #1
 725 006c AA4B     		ldr	r3, .L97+24
 726 006e 1A70     		strb	r2, [r3]
 727              	.L42:
 339:CLCD_control.c ****             
 340:CLCD_control.c ****             CLCD_mode_switch();   /* init CLCD of the mode */
 728              		.loc 1 340 0
 729 0070 FFF7FEFF 		bl	CLCD_mode_switch
 730              	.LVL81:
 731              	.L41:
 341:CLCD_control.c ****         }
 342:CLCD_control.c **** 
 343:CLCD_control.c ****         /* Get Display Mode from Queue of KEY[1] */
 344:CLCD_control.c ****         if (xQueueReceive(xQueue_KEY[1], &qmsg, 0))
 732              		.loc 1 344 0
 733 0074 AA4B     		ldr	r3, .L97+32
 734 0076 5868     		ldr	r0, [r3, #4]
 735 0078 0DF12B01 		add	r1, sp, #43
ARM GAS  C:\Users\koseki\AppData\Local\Temp\ccPCtr5f.s 			page 20


 736 007c 0022     		movs	r2, #0
 737 007e 1346     		mov	r3, r2
 738 0080 FFF7FEFF 		bl	xQueueGenericReceive
 739              	.LVL82:
 740 0084 50B1     		cbz	r0, .L43
 345:CLCD_control.c ****         {
 346:CLCD_control.c ****             mode--;
 741              		.loc 1 346 0
 742 0086 A44A     		ldr	r2, .L97+24
 743 0088 1378     		ldrb	r3, [r2]	@ zero_extendqisi2
 744 008a 013B     		subs	r3, r3, #1
 745 008c DBB2     		uxtb	r3, r3
 746 008e 1370     		strb	r3, [r2]
 347:CLCD_control.c ****             if (mode == INVALID)    /* start of table */
 747              		.loc 1 347 0
 748 0090 13B9     		cbnz	r3, .L44
 348:CLCD_control.c ****                 mode = IF_BIAS;       /* the last mode */
 749              		.loc 1 348 0
 750 0092 0522     		movs	r2, #5
 751 0094 A04B     		ldr	r3, .L97+24
 752 0096 1A70     		strb	r2, [r3]
 753              	.L44:
 349:CLCD_control.c ****             
 350:CLCD_control.c ****             CLCD_mode_switch();   /* init CLCD of the mode */
 754              		.loc 1 350 0
 755 0098 FFF7FEFF 		bl	CLCD_mode_switch
 756              	.LVL83:
 757              	.L43:
 351:CLCD_control.c ****         }
 352:CLCD_control.c **** 
 353:CLCD_control.c ****         /* Get the signal level from Queue and Display on the CLCD */
 354:CLCD_control.c ****         if (uxQueueMessagesWaiting(xQueue_RXD) > 0)
 758              		.loc 1 354 0
 759 009c A14B     		ldr	r3, .L97+36
 760 009e 1868     		ldr	r0, [r3]
 761 00a0 FFF7FEFF 		bl	uxQueueMessagesWaiting
 762              	.LVL84:
 763 00a4 0028     		cmp	r0, #0
 764 00a6 00F09E80 		beq	.L45
 355:CLCD_control.c ****         {
 356:CLCD_control.c ****             MON_Write(1u);      /* Debug */
 765              		.loc 1 356 0
 766 00aa 0120     		movs	r0, #1
 767 00ac FFF7FEFF 		bl	MON_Write
 768              	.LVL85:
 357:CLCD_control.c ****             xQueueReceive(xQueue_RXD, &car_flag, 0);       
 769              		.loc 1 357 0
 770 00b0 9C4B     		ldr	r3, .L97+36
 771 00b2 1868     		ldr	r0, [r3]
 772 00b4 0DF12A01 		add	r1, sp, #42
 773 00b8 0022     		movs	r2, #0
 774 00ba 1346     		mov	r3, r2
 775 00bc FFF7FEFF 		bl	xQueueGenericReceive
 776              	.LVL86:
 358:CLCD_control.c ****             
 359:CLCD_control.c ****             xSemaphoreTake(xMutex_RX_BUF, portMAX_DELAY);
 777              		.loc 1 359 0
ARM GAS  C:\Users\koseki\AppData\Local\Temp\ccPCtr5f.s 			page 21


 778 00c0 994B     		ldr	r3, .L97+40
 779 00c2 1868     		ldr	r0, [r3]
 780 00c4 0021     		movs	r1, #0
 781 00c6 4FF0FF32 		mov	r2, #-1
 782 00ca 0B46     		mov	r3, r1
 783 00cc FFF7FEFF 		bl	xQueueGenericReceive
 784              	.LVL87:
 360:CLCD_control.c ****             /* continuous signal for 60ms ? */
 361:CLCD_control.c ****             if (car_flag)
 785              		.loc 1 361 0
 786 00d0 9DF82A30 		ldrb	r3, [sp, #42]	@ zero_extendqisi2
 787 00d4 9BB3     		cbz	r3, .L84
 362:CLCD_control.c ****             {
 363:CLCD_control.c ****                 /*********************************************************
 364:CLCD_control.c ****                 * phase difference between ANT1_buf_f32 and ANT2_buf_f32
 365:CLCD_control.c ****                 **********************************************************/
 366:CLCD_control.c ****                 /* A*sin(theta) * B*sin(theta+phi) -> (A*B/2) * cos(phi)  */
 367:CLCD_control.c ****                 arm_mult_f32(ANT1_buf_f32, ANT2_buf_f32, dst_buf_f32, MAX_BLOCKSIZE);
 788              		.loc 1 367 0
 789 00d6 954E     		ldr	r6, .L97+44
 790              	.LVL88:
 791 00d8 954D     		ldr	r5, .L97+48
 792              	.LVL89:
 793 00da 964C     		ldr	r4, .L97+52
 794              	.LVL90:
 795 00dc 3046     		mov	r0, r6
 796 00de 2946     		mov	r1, r5
 797 00e0 2246     		mov	r2, r4
 798 00e2 8023     		movs	r3, #128
 799 00e4 FFF7FEFF 		bl	arm_mult_f32
 800              	.LVL91:
 368:CLCD_control.c ****                 arm_mean_f32(dst_buf_f32, MAX_BLOCKSIZE, &meanval_cos);
 801              		.loc 1 368 0
 802 00e8 2046     		mov	r0, r4
 803 00ea 8021     		movs	r1, #128
 804 00ec 09AA     		add	r2, sp, #36
 805 00ee FFF7FEFF 		bl	arm_mean_f32
 806              	.LVL92:
 369:CLCD_control.c **** 
 370:CLCD_control.c ****                 /* A*cos(theta) * B*sin(theta+phi) -> (A*B/2) * sin(phi)  */
 371:CLCD_control.c ****                 arm_mult_f32(&ANT1_buf_f32[PHASE_90], ANT2_buf_f32, dst_buf_f32, MAX_BLOCKSIZE);
 807              		.loc 1 371 0
 808 00f2 06F12000 		add	r0, r6, #32
 809 00f6 2946     		mov	r1, r5
 810 00f8 2246     		mov	r2, r4
 811 00fa 8023     		movs	r3, #128
 812 00fc FFF7FEFF 		bl	arm_mult_f32
 813              	.LVL93:
 372:CLCD_control.c ****                 arm_mean_f32(dst_buf_f32, MAX_BLOCKSIZE, &meanval_sin);
 814              		.loc 1 372 0
 815 0100 2046     		mov	r0, r4
 816 0102 8021     		movs	r1, #128
 817 0104 08AA     		add	r2, sp, #32
 818 0106 FFF7FEFF 		bl	arm_mean_f32
 819              	.LVL94:
 373:CLCD_control.c ****                 
 374:CLCD_control.c ****                 phi = atan2(meanval_sin, meanval_cos);
ARM GAS  C:\Users\koseki\AppData\Local\Temp\ccPCtr5f.s 			page 22


 820              		.loc 1 374 0
 821 010a 0898     		ldr	r0, [sp, #32]	@ float
 822 010c FFF7FEFF 		bl	__aeabi_f2d
 823              	.LVL95:
 824 0110 0446     		mov	r4, r0
 825 0112 0D46     		mov	r5, r1
 826 0114 0998     		ldr	r0, [sp, #36]	@ float
 827 0116 FFF7FEFF 		bl	__aeabi_f2d
 828              	.LVL96:
 829 011a 0246     		mov	r2, r0
 830 011c 0B46     		mov	r3, r1
 831 011e 2046     		mov	r0, r4
 832 0120 2946     		mov	r1, r5
 833 0122 FFF7FEFF 		bl	atan2
 834              	.LVL97:
 375:CLCD_control.c ****                 phi_deg = (phi / 3.14159) * 180;
 835              		.loc 1 375 0
 836 0126 76A3     		adr	r3, .L97
 837 0128 D3E90023 		ldrd	r2, [r3]
 838 012c FFF7FEFF 		bl	__aeabi_ddiv
 839              	.LVL98:
 840 0130 0022     		movs	r2, #0
 841 0132 814B     		ldr	r3, .L97+56
 842 0134 FFF7FEFF 		bl	__aeabi_dmul
 843              	.LVL99:
 844 0138 CDE90001 		strd	r0, [sp]
 845              	.LVL100:
 846 013c 03E0     		b	.L46
 847              	.LVL101:
 848              	.L84:
 376:CLCD_control.c ****             }
 377:CLCD_control.c ****             /* continuous null for 1500ms ? */
 378:CLCD_control.c ****             else
 379:CLCD_control.c ****                 phi_deg = 0;
 849              		.loc 1 379 0
 850 013e 0022     		movs	r2, #0
 851 0140 0023     		movs	r3, #0
 852 0142 CDE90023 		strd	r2, [sp]
 853              	.LVL102:
 854              	.L46:
 380:CLCD_control.c **** 
 381:CLCD_control.c ****             /*********************************************************
 382:CLCD_control.c ****             * rms of srcA_buf_f32 and srcB_buf_f32
 383:CLCD_control.c ****             **********************************************************/
 384:CLCD_control.c ****             arm_rms_f32(ANT1_buf_f32, MAX_BLOCKSIZE, &rms[0]);
 855              		.loc 1 384 0
 856 0146 7948     		ldr	r0, .L97+44
 857 0148 8021     		movs	r1, #128
 858 014a 06AA     		add	r2, sp, #24
 859 014c FFF7FEFF 		bl	arm_rms_f32
 860              	.LVL103:
 385:CLCD_control.c ****             arm_rms_f32(ANT2_buf_f32, MAX_BLOCKSIZE, &rms[1]);
 861              		.loc 1 385 0
 862 0150 7748     		ldr	r0, .L97+48
 863 0152 8021     		movs	r1, #128
 864 0154 07AA     		add	r2, sp, #28
 865 0156 FFF7FEFF 		bl	arm_rms_f32
ARM GAS  C:\Users\koseki\AppData\Local\Temp\ccPCtr5f.s 			page 23


 866              	.LVL104:
 386:CLCD_control.c ****             //arm_rms_f32(rms, NUM_ANT, &rms_mixed);
 387:CLCD_control.c ****             arm_sqrt_f32((rms[0]*rms[0]) + (rms[1]*rms[1]), &rms_mixed);
 867              		.loc 1 387 0
 868 015a 0698     		ldr	r0, [sp, #24]	@ float
 869 015c 0146     		mov	r1, r0
 870 015e FFF7FEFF 		bl	__aeabi_fmul
 871              	.LVL105:
 872 0162 0446     		mov	r4, r0
 873 0164 0798     		ldr	r0, [sp, #28]	@ float
 874 0166 0146     		mov	r1, r0
 875 0168 FFF7FEFF 		bl	__aeabi_fmul
 876              	.LVL106:
 877 016c 0146     		mov	r1, r0
 878 016e 2046     		mov	r0, r4
 879 0170 FFF7FEFF 		bl	__aeabi_fadd
 880              	.LVL107:
 881 0174 0446     		mov	r4, r0
 882              	.LVL108:
 883              	.LBB4:
 884              	.LBB5:
 885              		.file 2 "..\\CMSIS_DSP_LIB\\Include/arm_math.h"
   1:..\CMSIS_DSP_LIB\Include/arm_math.h **** /* ----------------------------------------------------------------------
   2:..\CMSIS_DSP_LIB\Include/arm_math.h **** * Copyright (C) 2010-2015 ARM Limited. All rights reserved.
   3:..\CMSIS_DSP_LIB\Include/arm_math.h **** *
   4:..\CMSIS_DSP_LIB\Include/arm_math.h **** * $Date:        20. October 2015
   5:..\CMSIS_DSP_LIB\Include/arm_math.h **** * $Revision:    V1.4.5 b
   6:..\CMSIS_DSP_LIB\Include/arm_math.h **** *
   7:..\CMSIS_DSP_LIB\Include/arm_math.h **** * Project:      CMSIS DSP Library
   8:..\CMSIS_DSP_LIB\Include/arm_math.h **** * Title:        arm_math.h
   9:..\CMSIS_DSP_LIB\Include/arm_math.h **** *
  10:..\CMSIS_DSP_LIB\Include/arm_math.h **** * Description:  Public header file for CMSIS DSP Library
  11:..\CMSIS_DSP_LIB\Include/arm_math.h **** *
  12:..\CMSIS_DSP_LIB\Include/arm_math.h **** * Target Processor: Cortex-M7/Cortex-M4/Cortex-M3/Cortex-M0
  13:..\CMSIS_DSP_LIB\Include/arm_math.h **** *
  14:..\CMSIS_DSP_LIB\Include/arm_math.h **** * Redistribution and use in source and binary forms, with or without
  15:..\CMSIS_DSP_LIB\Include/arm_math.h **** * modification, are permitted provided that the following conditions
  16:..\CMSIS_DSP_LIB\Include/arm_math.h **** * are met:
  17:..\CMSIS_DSP_LIB\Include/arm_math.h **** *   - Redistributions of source code must retain the above copyright
  18:..\CMSIS_DSP_LIB\Include/arm_math.h **** *     notice, this list of conditions and the following disclaimer.
  19:..\CMSIS_DSP_LIB\Include/arm_math.h **** *   - Redistributions in binary form must reproduce the above copyright
  20:..\CMSIS_DSP_LIB\Include/arm_math.h **** *     notice, this list of conditions and the following disclaimer in
  21:..\CMSIS_DSP_LIB\Include/arm_math.h **** *     the documentation and/or other materials provided with the
  22:..\CMSIS_DSP_LIB\Include/arm_math.h **** *     distribution.
  23:..\CMSIS_DSP_LIB\Include/arm_math.h **** *   - Neither the name of ARM LIMITED nor the names of its contributors
  24:..\CMSIS_DSP_LIB\Include/arm_math.h **** *     may be used to endorse or promote products derived from this
  25:..\CMSIS_DSP_LIB\Include/arm_math.h **** *     software without specific prior written permission.
  26:..\CMSIS_DSP_LIB\Include/arm_math.h **** *
  27:..\CMSIS_DSP_LIB\Include/arm_math.h **** * THIS SOFTWARE IS PROVIDED BY THE COPYRIGHT HOLDERS AND CONTRIBUTORS
  28:..\CMSIS_DSP_LIB\Include/arm_math.h **** * "AS IS" AND ANY EXPRESS OR IMPLIED WARRANTIES, INCLUDING, BUT NOT
  29:..\CMSIS_DSP_LIB\Include/arm_math.h **** * LIMITED TO, THE IMPLIED WARRANTIES OF MERCHANTABILITY AND FITNESS
  30:..\CMSIS_DSP_LIB\Include/arm_math.h **** * FOR A PARTICULAR PURPOSE ARE DISCLAIMED. IN NO EVENT SHALL THE
  31:..\CMSIS_DSP_LIB\Include/arm_math.h **** * COPYRIGHT OWNER OR CONTRIBUTORS BE LIABLE FOR ANY DIRECT, INDIRECT,
  32:..\CMSIS_DSP_LIB\Include/arm_math.h **** * INCIDENTAL, SPECIAL, EXEMPLARY, OR CONSEQUENTIAL DAMAGES (INCLUDING,
  33:..\CMSIS_DSP_LIB\Include/arm_math.h **** * BUT NOT LIMITED TO, PROCUREMENT OF SUBSTITUTE GOODS OR SERVICES;
  34:..\CMSIS_DSP_LIB\Include/arm_math.h **** * LOSS OF USE, DATA, OR PROFITS; OR BUSINESS INTERRUPTION) HOWEVER
  35:..\CMSIS_DSP_LIB\Include/arm_math.h **** * CAUSED AND ON ANY THEORY OF LIABILITY, WHETHER IN CONTRACT, STRICT
ARM GAS  C:\Users\koseki\AppData\Local\Temp\ccPCtr5f.s 			page 24


  36:..\CMSIS_DSP_LIB\Include/arm_math.h **** * LIABILITY, OR TORT (INCLUDING NEGLIGENCE OR OTHERWISE) ARISING IN
  37:..\CMSIS_DSP_LIB\Include/arm_math.h **** * ANY WAY OUT OF THE USE OF THIS SOFTWARE, EVEN IF ADVISED OF THE
  38:..\CMSIS_DSP_LIB\Include/arm_math.h **** * POSSIBILITY OF SUCH DAMAGE.
  39:..\CMSIS_DSP_LIB\Include/arm_math.h ****  * -------------------------------------------------------------------- */
  40:..\CMSIS_DSP_LIB\Include/arm_math.h **** 
  41:..\CMSIS_DSP_LIB\Include/arm_math.h **** /**
  42:..\CMSIS_DSP_LIB\Include/arm_math.h ****    \mainpage CMSIS DSP Software Library
  43:..\CMSIS_DSP_LIB\Include/arm_math.h ****    *
  44:..\CMSIS_DSP_LIB\Include/arm_math.h ****    * Introduction
  45:..\CMSIS_DSP_LIB\Include/arm_math.h ****    * ------------
  46:..\CMSIS_DSP_LIB\Include/arm_math.h ****    *
  47:..\CMSIS_DSP_LIB\Include/arm_math.h ****    * This user manual describes the CMSIS DSP software library,
  48:..\CMSIS_DSP_LIB\Include/arm_math.h ****    * a suite of common signal processing functions for use on Cortex-M processor based devices.
  49:..\CMSIS_DSP_LIB\Include/arm_math.h ****    *
  50:..\CMSIS_DSP_LIB\Include/arm_math.h ****    * The library is divided into a number of functions each covering a specific category:
  51:..\CMSIS_DSP_LIB\Include/arm_math.h ****    * - Basic math functions
  52:..\CMSIS_DSP_LIB\Include/arm_math.h ****    * - Fast math functions
  53:..\CMSIS_DSP_LIB\Include/arm_math.h ****    * - Complex math functions
  54:..\CMSIS_DSP_LIB\Include/arm_math.h ****    * - Filters
  55:..\CMSIS_DSP_LIB\Include/arm_math.h ****    * - Matrix functions
  56:..\CMSIS_DSP_LIB\Include/arm_math.h ****    * - Transforms
  57:..\CMSIS_DSP_LIB\Include/arm_math.h ****    * - Motor control functions
  58:..\CMSIS_DSP_LIB\Include/arm_math.h ****    * - Statistical functions
  59:..\CMSIS_DSP_LIB\Include/arm_math.h ****    * - Support functions
  60:..\CMSIS_DSP_LIB\Include/arm_math.h ****    * - Interpolation functions
  61:..\CMSIS_DSP_LIB\Include/arm_math.h ****    *
  62:..\CMSIS_DSP_LIB\Include/arm_math.h ****    * The library has separate functions for operating on 8-bit integers, 16-bit integers,
  63:..\CMSIS_DSP_LIB\Include/arm_math.h ****    * 32-bit integer and 32-bit floating-point values.
  64:..\CMSIS_DSP_LIB\Include/arm_math.h ****    *
  65:..\CMSIS_DSP_LIB\Include/arm_math.h ****    * Using the Library
  66:..\CMSIS_DSP_LIB\Include/arm_math.h ****    * ------------
  67:..\CMSIS_DSP_LIB\Include/arm_math.h ****    *
  68:..\CMSIS_DSP_LIB\Include/arm_math.h ****    * The library installer contains prebuilt versions of the libraries in the <code>Lib</code> fold
  69:..\CMSIS_DSP_LIB\Include/arm_math.h ****    * - arm_cortexM7lfdp_math.lib (Little endian and Double Precision Floating Point Unit on Cortex-
  70:..\CMSIS_DSP_LIB\Include/arm_math.h ****    * - arm_cortexM7bfdp_math.lib (Big endian and Double Precision Floating Point Unit on Cortex-M7)
  71:..\CMSIS_DSP_LIB\Include/arm_math.h ****    * - arm_cortexM7lfsp_math.lib (Little endian and Single Precision Floating Point Unit on Cortex-
  72:..\CMSIS_DSP_LIB\Include/arm_math.h ****    * - arm_cortexM7bfsp_math.lib (Big endian and Single Precision Floating Point Unit on Cortex-M7)
  73:..\CMSIS_DSP_LIB\Include/arm_math.h ****    * - arm_cortexM7l_math.lib (Little endian on Cortex-M7)
  74:..\CMSIS_DSP_LIB\Include/arm_math.h ****    * - arm_cortexM7b_math.lib (Big endian on Cortex-M7)
  75:..\CMSIS_DSP_LIB\Include/arm_math.h ****    * - arm_cortexM4lf_math.lib (Little endian and Floating Point Unit on Cortex-M4)
  76:..\CMSIS_DSP_LIB\Include/arm_math.h ****    * - arm_cortexM4bf_math.lib (Big endian and Floating Point Unit on Cortex-M4)
  77:..\CMSIS_DSP_LIB\Include/arm_math.h ****    * - arm_cortexM4l_math.lib (Little endian on Cortex-M4)
  78:..\CMSIS_DSP_LIB\Include/arm_math.h ****    * - arm_cortexM4b_math.lib (Big endian on Cortex-M4)
  79:..\CMSIS_DSP_LIB\Include/arm_math.h ****    * - arm_cortexM3l_math.lib (Little endian on Cortex-M3)
  80:..\CMSIS_DSP_LIB\Include/arm_math.h ****    * - arm_cortexM3b_math.lib (Big endian on Cortex-M3)
  81:..\CMSIS_DSP_LIB\Include/arm_math.h ****    * - arm_cortexM0l_math.lib (Little endian on Cortex-M0 / CortexM0+)
  82:..\CMSIS_DSP_LIB\Include/arm_math.h ****    * - arm_cortexM0b_math.lib (Big endian on Cortex-M0 / CortexM0+)
  83:..\CMSIS_DSP_LIB\Include/arm_math.h ****    *
  84:..\CMSIS_DSP_LIB\Include/arm_math.h ****    * The library functions are declared in the public file <code>arm_math.h</code> which is placed 
  85:..\CMSIS_DSP_LIB\Include/arm_math.h ****    * Simply include this file and link the appropriate library in the application and begin calling
  86:..\CMSIS_DSP_LIB\Include/arm_math.h ****    * public header file <code> arm_math.h</code> for Cortex-M7/M4/M3/M0/M0+ with little endian and 
  87:..\CMSIS_DSP_LIB\Include/arm_math.h ****    * Define the appropriate pre processor MACRO ARM_MATH_CM7 or ARM_MATH_CM4 or  ARM_MATH_CM3 or
  88:..\CMSIS_DSP_LIB\Include/arm_math.h ****    * ARM_MATH_CM0 or ARM_MATH_CM0PLUS depending on the target processor in the application.
  89:..\CMSIS_DSP_LIB\Include/arm_math.h ****    *
  90:..\CMSIS_DSP_LIB\Include/arm_math.h ****    * Examples
  91:..\CMSIS_DSP_LIB\Include/arm_math.h ****    * --------
  92:..\CMSIS_DSP_LIB\Include/arm_math.h ****    *
ARM GAS  C:\Users\koseki\AppData\Local\Temp\ccPCtr5f.s 			page 25


  93:..\CMSIS_DSP_LIB\Include/arm_math.h ****    * The library ships with a number of examples which demonstrate how to use the library functions
  94:..\CMSIS_DSP_LIB\Include/arm_math.h ****    *
  95:..\CMSIS_DSP_LIB\Include/arm_math.h ****    * Toolchain Support
  96:..\CMSIS_DSP_LIB\Include/arm_math.h ****    * ------------
  97:..\CMSIS_DSP_LIB\Include/arm_math.h ****    *
  98:..\CMSIS_DSP_LIB\Include/arm_math.h ****    * The library has been developed and tested with MDK-ARM version 5.14.0.0
  99:..\CMSIS_DSP_LIB\Include/arm_math.h ****    * The library is being tested in GCC and IAR toolchains and updates on this activity will be mad
 100:..\CMSIS_DSP_LIB\Include/arm_math.h ****    *
 101:..\CMSIS_DSP_LIB\Include/arm_math.h ****    * Building the Library
 102:..\CMSIS_DSP_LIB\Include/arm_math.h ****    * ------------
 103:..\CMSIS_DSP_LIB\Include/arm_math.h ****    *
 104:..\CMSIS_DSP_LIB\Include/arm_math.h ****    * The library installer contains a project file to re build libraries on MDK-ARM Tool chain in t
 105:..\CMSIS_DSP_LIB\Include/arm_math.h ****    * - arm_cortexM_math.uvprojx
 106:..\CMSIS_DSP_LIB\Include/arm_math.h ****    *
 107:..\CMSIS_DSP_LIB\Include/arm_math.h ****    *
 108:..\CMSIS_DSP_LIB\Include/arm_math.h ****    * The libraries can be built by opening the arm_cortexM_math.uvprojx project in MDK-ARM, selecti
 109:..\CMSIS_DSP_LIB\Include/arm_math.h ****    *
 110:..\CMSIS_DSP_LIB\Include/arm_math.h ****    * Pre-processor Macros
 111:..\CMSIS_DSP_LIB\Include/arm_math.h ****    * ------------
 112:..\CMSIS_DSP_LIB\Include/arm_math.h ****    *
 113:..\CMSIS_DSP_LIB\Include/arm_math.h ****    * Each library project have differant pre-processor macros.
 114:..\CMSIS_DSP_LIB\Include/arm_math.h ****    *
 115:..\CMSIS_DSP_LIB\Include/arm_math.h ****    * - UNALIGNED_SUPPORT_DISABLE:
 116:..\CMSIS_DSP_LIB\Include/arm_math.h ****    *
 117:..\CMSIS_DSP_LIB\Include/arm_math.h ****    * Define macro UNALIGNED_SUPPORT_DISABLE, If the silicon does not support unaligned memory acces
 118:..\CMSIS_DSP_LIB\Include/arm_math.h ****    *
 119:..\CMSIS_DSP_LIB\Include/arm_math.h ****    * - ARM_MATH_BIG_ENDIAN:
 120:..\CMSIS_DSP_LIB\Include/arm_math.h ****    *
 121:..\CMSIS_DSP_LIB\Include/arm_math.h ****    * Define macro ARM_MATH_BIG_ENDIAN to build the library for big endian targets. By default libra
 122:..\CMSIS_DSP_LIB\Include/arm_math.h ****    *
 123:..\CMSIS_DSP_LIB\Include/arm_math.h ****    * - ARM_MATH_MATRIX_CHECK:
 124:..\CMSIS_DSP_LIB\Include/arm_math.h ****    *
 125:..\CMSIS_DSP_LIB\Include/arm_math.h ****    * Define macro ARM_MATH_MATRIX_CHECK for checking on the input and output sizes of matrices
 126:..\CMSIS_DSP_LIB\Include/arm_math.h ****    *
 127:..\CMSIS_DSP_LIB\Include/arm_math.h ****    * - ARM_MATH_ROUNDING:
 128:..\CMSIS_DSP_LIB\Include/arm_math.h ****    *
 129:..\CMSIS_DSP_LIB\Include/arm_math.h ****    * Define macro ARM_MATH_ROUNDING for rounding on support functions
 130:..\CMSIS_DSP_LIB\Include/arm_math.h ****    *
 131:..\CMSIS_DSP_LIB\Include/arm_math.h ****    * - ARM_MATH_CMx:
 132:..\CMSIS_DSP_LIB\Include/arm_math.h ****    *
 133:..\CMSIS_DSP_LIB\Include/arm_math.h ****    * Define macro ARM_MATH_CM4 for building the library on Cortex-M4 target, ARM_MATH_CM3 for build
 134:..\CMSIS_DSP_LIB\Include/arm_math.h ****    * and ARM_MATH_CM0 for building library on Cortex-M0 target, ARM_MATH_CM0PLUS for building libra
 135:..\CMSIS_DSP_LIB\Include/arm_math.h ****    * ARM_MATH_CM7 for building the library on cortex-M7.
 136:..\CMSIS_DSP_LIB\Include/arm_math.h ****    *
 137:..\CMSIS_DSP_LIB\Include/arm_math.h ****    * - __FPU_PRESENT:
 138:..\CMSIS_DSP_LIB\Include/arm_math.h ****    *
 139:..\CMSIS_DSP_LIB\Include/arm_math.h ****    * Initialize macro __FPU_PRESENT = 1 when building on FPU supported Targets. Enable this macro f
 140:..\CMSIS_DSP_LIB\Include/arm_math.h ****    *
 141:..\CMSIS_DSP_LIB\Include/arm_math.h ****    * <hr>
 142:..\CMSIS_DSP_LIB\Include/arm_math.h ****    * CMSIS-DSP in ARM::CMSIS Pack
 143:..\CMSIS_DSP_LIB\Include/arm_math.h ****    * -----------------------------
 144:..\CMSIS_DSP_LIB\Include/arm_math.h ****    *
 145:..\CMSIS_DSP_LIB\Include/arm_math.h ****    * The following files relevant to CMSIS-DSP are present in the <b>ARM::CMSIS</b> Pack directorie
 146:..\CMSIS_DSP_LIB\Include/arm_math.h ****    * |File/Folder                   |Content                                                       
 147:..\CMSIS_DSP_LIB\Include/arm_math.h ****    * |------------------------------|--------------------------------------------------------------
 148:..\CMSIS_DSP_LIB\Include/arm_math.h ****    * |\b CMSIS\\Documentation\\DSP  | This documentation                                           
 149:..\CMSIS_DSP_LIB\Include/arm_math.h ****    * |\b CMSIS\\DSP_Lib             | Software license agreement (license.txt)                     
ARM GAS  C:\Users\koseki\AppData\Local\Temp\ccPCtr5f.s 			page 26


 150:..\CMSIS_DSP_LIB\Include/arm_math.h ****    * |\b CMSIS\\DSP_Lib\\Examples   | Example projects demonstrating the usage of the library funct
 151:..\CMSIS_DSP_LIB\Include/arm_math.h ****    * |\b CMSIS\\DSP_Lib\\Source     | Source files for rebuilding the library                      
 152:..\CMSIS_DSP_LIB\Include/arm_math.h ****    *
 153:..\CMSIS_DSP_LIB\Include/arm_math.h ****    * <hr>
 154:..\CMSIS_DSP_LIB\Include/arm_math.h ****    * Revision History of CMSIS-DSP
 155:..\CMSIS_DSP_LIB\Include/arm_math.h ****    * ------------
 156:..\CMSIS_DSP_LIB\Include/arm_math.h ****    * Please refer to \ref ChangeLog_pg.
 157:..\CMSIS_DSP_LIB\Include/arm_math.h ****    *
 158:..\CMSIS_DSP_LIB\Include/arm_math.h ****    * Copyright Notice
 159:..\CMSIS_DSP_LIB\Include/arm_math.h ****    * ------------
 160:..\CMSIS_DSP_LIB\Include/arm_math.h ****    *
 161:..\CMSIS_DSP_LIB\Include/arm_math.h ****    * Copyright (C) 2010-2015 ARM Limited. All rights reserved.
 162:..\CMSIS_DSP_LIB\Include/arm_math.h ****    */
 163:..\CMSIS_DSP_LIB\Include/arm_math.h **** 
 164:..\CMSIS_DSP_LIB\Include/arm_math.h **** 
 165:..\CMSIS_DSP_LIB\Include/arm_math.h **** /**
 166:..\CMSIS_DSP_LIB\Include/arm_math.h ****  * @defgroup groupMath Basic Math Functions
 167:..\CMSIS_DSP_LIB\Include/arm_math.h ****  */
 168:..\CMSIS_DSP_LIB\Include/arm_math.h **** 
 169:..\CMSIS_DSP_LIB\Include/arm_math.h **** /**
 170:..\CMSIS_DSP_LIB\Include/arm_math.h ****  * @defgroup groupFastMath Fast Math Functions
 171:..\CMSIS_DSP_LIB\Include/arm_math.h ****  * This set of functions provides a fast approximation to sine, cosine, and square root.
 172:..\CMSIS_DSP_LIB\Include/arm_math.h ****  * As compared to most of the other functions in the CMSIS math library, the fast math functions
 173:..\CMSIS_DSP_LIB\Include/arm_math.h ****  * operate on individual values and not arrays.
 174:..\CMSIS_DSP_LIB\Include/arm_math.h ****  * There are separate functions for Q15, Q31, and floating-point data.
 175:..\CMSIS_DSP_LIB\Include/arm_math.h ****  *
 176:..\CMSIS_DSP_LIB\Include/arm_math.h ****  */
 177:..\CMSIS_DSP_LIB\Include/arm_math.h **** 
 178:..\CMSIS_DSP_LIB\Include/arm_math.h **** /**
 179:..\CMSIS_DSP_LIB\Include/arm_math.h ****  * @defgroup groupCmplxMath Complex Math Functions
 180:..\CMSIS_DSP_LIB\Include/arm_math.h ****  * This set of functions operates on complex data vectors.
 181:..\CMSIS_DSP_LIB\Include/arm_math.h ****  * The data in the complex arrays is stored in an interleaved fashion
 182:..\CMSIS_DSP_LIB\Include/arm_math.h ****  * (real, imag, real, imag, ...).
 183:..\CMSIS_DSP_LIB\Include/arm_math.h ****  * In the API functions, the number of samples in a complex array refers
 184:..\CMSIS_DSP_LIB\Include/arm_math.h ****  * to the number of complex values; the array contains twice this number of
 185:..\CMSIS_DSP_LIB\Include/arm_math.h ****  * real values.
 186:..\CMSIS_DSP_LIB\Include/arm_math.h ****  */
 187:..\CMSIS_DSP_LIB\Include/arm_math.h **** 
 188:..\CMSIS_DSP_LIB\Include/arm_math.h **** /**
 189:..\CMSIS_DSP_LIB\Include/arm_math.h ****  * @defgroup groupFilters Filtering Functions
 190:..\CMSIS_DSP_LIB\Include/arm_math.h ****  */
 191:..\CMSIS_DSP_LIB\Include/arm_math.h **** 
 192:..\CMSIS_DSP_LIB\Include/arm_math.h **** /**
 193:..\CMSIS_DSP_LIB\Include/arm_math.h ****  * @defgroup groupMatrix Matrix Functions
 194:..\CMSIS_DSP_LIB\Include/arm_math.h ****  *
 195:..\CMSIS_DSP_LIB\Include/arm_math.h ****  * This set of functions provides basic matrix math operations.
 196:..\CMSIS_DSP_LIB\Include/arm_math.h ****  * The functions operate on matrix data structures.  For example,
 197:..\CMSIS_DSP_LIB\Include/arm_math.h ****  * the type
 198:..\CMSIS_DSP_LIB\Include/arm_math.h ****  * definition for the floating-point matrix structure is shown
 199:..\CMSIS_DSP_LIB\Include/arm_math.h ****  * below:
 200:..\CMSIS_DSP_LIB\Include/arm_math.h ****  * <pre>
 201:..\CMSIS_DSP_LIB\Include/arm_math.h ****  *     typedef struct
 202:..\CMSIS_DSP_LIB\Include/arm_math.h ****  *     {
 203:..\CMSIS_DSP_LIB\Include/arm_math.h ****  *       uint16_t numRows;     // number of rows of the matrix.
 204:..\CMSIS_DSP_LIB\Include/arm_math.h ****  *       uint16_t numCols;     // number of columns of the matrix.
 205:..\CMSIS_DSP_LIB\Include/arm_math.h ****  *       float32_t *pData;     // points to the data of the matrix.
 206:..\CMSIS_DSP_LIB\Include/arm_math.h ****  *     } arm_matrix_instance_f32;
ARM GAS  C:\Users\koseki\AppData\Local\Temp\ccPCtr5f.s 			page 27


 207:..\CMSIS_DSP_LIB\Include/arm_math.h ****  * </pre>
 208:..\CMSIS_DSP_LIB\Include/arm_math.h ****  * There are similar definitions for Q15 and Q31 data types.
 209:..\CMSIS_DSP_LIB\Include/arm_math.h ****  *
 210:..\CMSIS_DSP_LIB\Include/arm_math.h ****  * The structure specifies the size of the matrix and then points to
 211:..\CMSIS_DSP_LIB\Include/arm_math.h ****  * an array of data.  The array is of size <code>numRows X numCols</code>
 212:..\CMSIS_DSP_LIB\Include/arm_math.h ****  * and the values are arranged in row order.  That is, the
 213:..\CMSIS_DSP_LIB\Include/arm_math.h ****  * matrix element (i, j) is stored at:
 214:..\CMSIS_DSP_LIB\Include/arm_math.h ****  * <pre>
 215:..\CMSIS_DSP_LIB\Include/arm_math.h ****  *     pData[i*numCols + j]
 216:..\CMSIS_DSP_LIB\Include/arm_math.h ****  * </pre>
 217:..\CMSIS_DSP_LIB\Include/arm_math.h ****  *
 218:..\CMSIS_DSP_LIB\Include/arm_math.h ****  * \par Init Functions
 219:..\CMSIS_DSP_LIB\Include/arm_math.h ****  * There is an associated initialization function for each type of matrix
 220:..\CMSIS_DSP_LIB\Include/arm_math.h ****  * data structure.
 221:..\CMSIS_DSP_LIB\Include/arm_math.h ****  * The initialization function sets the values of the internal structure fields.
 222:..\CMSIS_DSP_LIB\Include/arm_math.h ****  * Refer to the function <code>arm_mat_init_f32()</code>, <code>arm_mat_init_q31()</code>
 223:..\CMSIS_DSP_LIB\Include/arm_math.h ****  * and <code>arm_mat_init_q15()</code> for floating-point, Q31 and Q15 types,  respectively.
 224:..\CMSIS_DSP_LIB\Include/arm_math.h ****  *
 225:..\CMSIS_DSP_LIB\Include/arm_math.h ****  * \par
 226:..\CMSIS_DSP_LIB\Include/arm_math.h ****  * Use of the initialization function is optional. However, if initialization function is used
 227:..\CMSIS_DSP_LIB\Include/arm_math.h ****  * then the instance structure cannot be placed into a const data section.
 228:..\CMSIS_DSP_LIB\Include/arm_math.h ****  * To place the instance structure in a const data
 229:..\CMSIS_DSP_LIB\Include/arm_math.h ****  * section, manually initialize the data structure.  For example:
 230:..\CMSIS_DSP_LIB\Include/arm_math.h ****  * <pre>
 231:..\CMSIS_DSP_LIB\Include/arm_math.h ****  * <code>arm_matrix_instance_f32 S = {nRows, nColumns, pData};</code>
 232:..\CMSIS_DSP_LIB\Include/arm_math.h ****  * <code>arm_matrix_instance_q31 S = {nRows, nColumns, pData};</code>
 233:..\CMSIS_DSP_LIB\Include/arm_math.h ****  * <code>arm_matrix_instance_q15 S = {nRows, nColumns, pData};</code>
 234:..\CMSIS_DSP_LIB\Include/arm_math.h ****  * </pre>
 235:..\CMSIS_DSP_LIB\Include/arm_math.h ****  * where <code>nRows</code> specifies the number of rows, <code>nColumns</code>
 236:..\CMSIS_DSP_LIB\Include/arm_math.h ****  * specifies the number of columns, and <code>pData</code> points to the
 237:..\CMSIS_DSP_LIB\Include/arm_math.h ****  * data array.
 238:..\CMSIS_DSP_LIB\Include/arm_math.h ****  *
 239:..\CMSIS_DSP_LIB\Include/arm_math.h ****  * \par Size Checking
 240:..\CMSIS_DSP_LIB\Include/arm_math.h ****  * By default all of the matrix functions perform size checking on the input and
 241:..\CMSIS_DSP_LIB\Include/arm_math.h ****  * output matrices.  For example, the matrix addition function verifies that the
 242:..\CMSIS_DSP_LIB\Include/arm_math.h ****  * two input matrices and the output matrix all have the same number of rows and
 243:..\CMSIS_DSP_LIB\Include/arm_math.h ****  * columns.  If the size check fails the functions return:
 244:..\CMSIS_DSP_LIB\Include/arm_math.h ****  * <pre>
 245:..\CMSIS_DSP_LIB\Include/arm_math.h ****  *     ARM_MATH_SIZE_MISMATCH
 246:..\CMSIS_DSP_LIB\Include/arm_math.h ****  * </pre>
 247:..\CMSIS_DSP_LIB\Include/arm_math.h ****  * Otherwise the functions return
 248:..\CMSIS_DSP_LIB\Include/arm_math.h ****  * <pre>
 249:..\CMSIS_DSP_LIB\Include/arm_math.h ****  *     ARM_MATH_SUCCESS
 250:..\CMSIS_DSP_LIB\Include/arm_math.h ****  * </pre>
 251:..\CMSIS_DSP_LIB\Include/arm_math.h ****  * There is some overhead associated with this matrix size checking.
 252:..\CMSIS_DSP_LIB\Include/arm_math.h ****  * The matrix size checking is enabled via the \#define
 253:..\CMSIS_DSP_LIB\Include/arm_math.h ****  * <pre>
 254:..\CMSIS_DSP_LIB\Include/arm_math.h ****  *     ARM_MATH_MATRIX_CHECK
 255:..\CMSIS_DSP_LIB\Include/arm_math.h ****  * </pre>
 256:..\CMSIS_DSP_LIB\Include/arm_math.h ****  * within the library project settings.  By default this macro is defined
 257:..\CMSIS_DSP_LIB\Include/arm_math.h ****  * and size checking is enabled.  By changing the project settings and
 258:..\CMSIS_DSP_LIB\Include/arm_math.h ****  * undefining this macro size checking is eliminated and the functions
 259:..\CMSIS_DSP_LIB\Include/arm_math.h ****  * run a bit faster.  With size checking disabled the functions always
 260:..\CMSIS_DSP_LIB\Include/arm_math.h ****  * return <code>ARM_MATH_SUCCESS</code>.
 261:..\CMSIS_DSP_LIB\Include/arm_math.h ****  */
 262:..\CMSIS_DSP_LIB\Include/arm_math.h **** 
 263:..\CMSIS_DSP_LIB\Include/arm_math.h **** /**
ARM GAS  C:\Users\koseki\AppData\Local\Temp\ccPCtr5f.s 			page 28


 264:..\CMSIS_DSP_LIB\Include/arm_math.h ****  * @defgroup groupTransforms Transform Functions
 265:..\CMSIS_DSP_LIB\Include/arm_math.h ****  */
 266:..\CMSIS_DSP_LIB\Include/arm_math.h **** 
 267:..\CMSIS_DSP_LIB\Include/arm_math.h **** /**
 268:..\CMSIS_DSP_LIB\Include/arm_math.h ****  * @defgroup groupController Controller Functions
 269:..\CMSIS_DSP_LIB\Include/arm_math.h ****  */
 270:..\CMSIS_DSP_LIB\Include/arm_math.h **** 
 271:..\CMSIS_DSP_LIB\Include/arm_math.h **** /**
 272:..\CMSIS_DSP_LIB\Include/arm_math.h ****  * @defgroup groupStats Statistics Functions
 273:..\CMSIS_DSP_LIB\Include/arm_math.h ****  */
 274:..\CMSIS_DSP_LIB\Include/arm_math.h **** /**
 275:..\CMSIS_DSP_LIB\Include/arm_math.h ****  * @defgroup groupSupport Support Functions
 276:..\CMSIS_DSP_LIB\Include/arm_math.h ****  */
 277:..\CMSIS_DSP_LIB\Include/arm_math.h **** 
 278:..\CMSIS_DSP_LIB\Include/arm_math.h **** /**
 279:..\CMSIS_DSP_LIB\Include/arm_math.h ****  * @defgroup groupInterpolation Interpolation Functions
 280:..\CMSIS_DSP_LIB\Include/arm_math.h ****  * These functions perform 1- and 2-dimensional interpolation of data.
 281:..\CMSIS_DSP_LIB\Include/arm_math.h ****  * Linear interpolation is used for 1-dimensional data and
 282:..\CMSIS_DSP_LIB\Include/arm_math.h ****  * bilinear interpolation is used for 2-dimensional data.
 283:..\CMSIS_DSP_LIB\Include/arm_math.h ****  */
 284:..\CMSIS_DSP_LIB\Include/arm_math.h **** 
 285:..\CMSIS_DSP_LIB\Include/arm_math.h **** /**
 286:..\CMSIS_DSP_LIB\Include/arm_math.h ****  * @defgroup groupExamples Examples
 287:..\CMSIS_DSP_LIB\Include/arm_math.h ****  */
 288:..\CMSIS_DSP_LIB\Include/arm_math.h **** #ifndef _ARM_MATH_H
 289:..\CMSIS_DSP_LIB\Include/arm_math.h **** #define _ARM_MATH_H
 290:..\CMSIS_DSP_LIB\Include/arm_math.h **** 
 291:..\CMSIS_DSP_LIB\Include/arm_math.h **** /* ignore some GCC warnings */
 292:..\CMSIS_DSP_LIB\Include/arm_math.h **** #if defined ( __GNUC__ )
 293:..\CMSIS_DSP_LIB\Include/arm_math.h **** #pragma GCC diagnostic push
 294:..\CMSIS_DSP_LIB\Include/arm_math.h **** #pragma GCC diagnostic ignored "-Wsign-conversion"
 295:..\CMSIS_DSP_LIB\Include/arm_math.h **** #pragma GCC diagnostic ignored "-Wconversion"
 296:..\CMSIS_DSP_LIB\Include/arm_math.h **** #pragma GCC diagnostic ignored "-Wunused-parameter"
 297:..\CMSIS_DSP_LIB\Include/arm_math.h **** #endif
 298:..\CMSIS_DSP_LIB\Include/arm_math.h **** 
 299:..\CMSIS_DSP_LIB\Include/arm_math.h **** #define __CMSIS_GENERIC         /* disable NVIC and Systick functions */
 300:..\CMSIS_DSP_LIB\Include/arm_math.h **** 
 301:..\CMSIS_DSP_LIB\Include/arm_math.h **** #if defined(ARM_MATH_CM7)
 302:..\CMSIS_DSP_LIB\Include/arm_math.h ****   #include "core_cm7.h"
 303:..\CMSIS_DSP_LIB\Include/arm_math.h **** #elif defined (ARM_MATH_CM4)
 304:..\CMSIS_DSP_LIB\Include/arm_math.h ****   #include "core_cm4.h"
 305:..\CMSIS_DSP_LIB\Include/arm_math.h **** #elif defined (ARM_MATH_CM3)
 306:..\CMSIS_DSP_LIB\Include/arm_math.h ****   #include "core_cm3.h"
 307:..\CMSIS_DSP_LIB\Include/arm_math.h **** #elif defined (ARM_MATH_CM0)
 308:..\CMSIS_DSP_LIB\Include/arm_math.h ****   #include "core_cm0.h"
 309:..\CMSIS_DSP_LIB\Include/arm_math.h ****   #define ARM_MATH_CM0_FAMILY
 310:..\CMSIS_DSP_LIB\Include/arm_math.h **** #elif defined (ARM_MATH_CM0PLUS)
 311:..\CMSIS_DSP_LIB\Include/arm_math.h ****   #include "core_cm0plus.h"
 312:..\CMSIS_DSP_LIB\Include/arm_math.h ****   #define ARM_MATH_CM0_FAMILY
 313:..\CMSIS_DSP_LIB\Include/arm_math.h **** #else
 314:..\CMSIS_DSP_LIB\Include/arm_math.h ****   #error "Define according the used Cortex core ARM_MATH_CM7, ARM_MATH_CM4, ARM_MATH_CM3, ARM_MATH_
 315:..\CMSIS_DSP_LIB\Include/arm_math.h **** #endif
 316:..\CMSIS_DSP_LIB\Include/arm_math.h **** 
 317:..\CMSIS_DSP_LIB\Include/arm_math.h **** #undef  __CMSIS_GENERIC         /* enable NVIC and Systick functions */
 318:..\CMSIS_DSP_LIB\Include/arm_math.h **** #include "string.h"
 319:..\CMSIS_DSP_LIB\Include/arm_math.h **** #include "math.h"
 320:..\CMSIS_DSP_LIB\Include/arm_math.h **** #include <project.h>			/* for PSoC Creator 3.x */
ARM GAS  C:\Users\koseki\AppData\Local\Temp\ccPCtr5f.s 			page 29


 321:..\CMSIS_DSP_LIB\Include/arm_math.h **** 
 322:..\CMSIS_DSP_LIB\Include/arm_math.h **** #ifdef   __cplusplus
 323:..\CMSIS_DSP_LIB\Include/arm_math.h **** extern "C"
 324:..\CMSIS_DSP_LIB\Include/arm_math.h **** {
 325:..\CMSIS_DSP_LIB\Include/arm_math.h **** #endif
 326:..\CMSIS_DSP_LIB\Include/arm_math.h **** 
 327:..\CMSIS_DSP_LIB\Include/arm_math.h **** 
 328:..\CMSIS_DSP_LIB\Include/arm_math.h ****   /**
 329:..\CMSIS_DSP_LIB\Include/arm_math.h ****    * @brief Macros required for reciprocal calculation in Normalized LMS
 330:..\CMSIS_DSP_LIB\Include/arm_math.h ****    */
 331:..\CMSIS_DSP_LIB\Include/arm_math.h **** 
 332:..\CMSIS_DSP_LIB\Include/arm_math.h **** #define DELTA_Q31          (0x100)
 333:..\CMSIS_DSP_LIB\Include/arm_math.h **** #define DELTA_Q15          0x5
 334:..\CMSIS_DSP_LIB\Include/arm_math.h **** #define INDEX_MASK         0x0000003F
 335:..\CMSIS_DSP_LIB\Include/arm_math.h **** #ifndef PI
 336:..\CMSIS_DSP_LIB\Include/arm_math.h **** #define PI                 3.14159265358979f
 337:..\CMSIS_DSP_LIB\Include/arm_math.h **** #endif
 338:..\CMSIS_DSP_LIB\Include/arm_math.h **** 
 339:..\CMSIS_DSP_LIB\Include/arm_math.h ****   /**
 340:..\CMSIS_DSP_LIB\Include/arm_math.h ****    * @brief Macros required for SINE and COSINE Fast math approximations
 341:..\CMSIS_DSP_LIB\Include/arm_math.h ****    */
 342:..\CMSIS_DSP_LIB\Include/arm_math.h **** 
 343:..\CMSIS_DSP_LIB\Include/arm_math.h **** #define FAST_MATH_TABLE_SIZE  512
 344:..\CMSIS_DSP_LIB\Include/arm_math.h **** #define FAST_MATH_Q31_SHIFT   (32 - 10)
 345:..\CMSIS_DSP_LIB\Include/arm_math.h **** #define FAST_MATH_Q15_SHIFT   (16 - 10)
 346:..\CMSIS_DSP_LIB\Include/arm_math.h **** #define CONTROLLER_Q31_SHIFT  (32 - 9)
 347:..\CMSIS_DSP_LIB\Include/arm_math.h **** #define TABLE_SIZE  256
 348:..\CMSIS_DSP_LIB\Include/arm_math.h **** #define TABLE_SPACING_Q31     0x400000
 349:..\CMSIS_DSP_LIB\Include/arm_math.h **** #define TABLE_SPACING_Q15     0x80
 350:..\CMSIS_DSP_LIB\Include/arm_math.h **** 
 351:..\CMSIS_DSP_LIB\Include/arm_math.h ****   /**
 352:..\CMSIS_DSP_LIB\Include/arm_math.h ****    * @brief Macros required for SINE and COSINE Controller functions
 353:..\CMSIS_DSP_LIB\Include/arm_math.h ****    */
 354:..\CMSIS_DSP_LIB\Include/arm_math.h ****   /* 1.31(q31) Fixed value of 2/360 */
 355:..\CMSIS_DSP_LIB\Include/arm_math.h ****   /* -1 to +1 is divided into 360 values so total spacing is (2/360) */
 356:..\CMSIS_DSP_LIB\Include/arm_math.h **** #define INPUT_SPACING         0xB60B61
 357:..\CMSIS_DSP_LIB\Include/arm_math.h **** 
 358:..\CMSIS_DSP_LIB\Include/arm_math.h ****   /**
 359:..\CMSIS_DSP_LIB\Include/arm_math.h ****    * @brief Macro for Unaligned Support
 360:..\CMSIS_DSP_LIB\Include/arm_math.h ****    */
 361:..\CMSIS_DSP_LIB\Include/arm_math.h **** #ifndef UNALIGNED_SUPPORT_DISABLE
 362:..\CMSIS_DSP_LIB\Include/arm_math.h ****     #define ALIGN4
 363:..\CMSIS_DSP_LIB\Include/arm_math.h **** #else
 364:..\CMSIS_DSP_LIB\Include/arm_math.h ****   #if defined  (__GNUC__)
 365:..\CMSIS_DSP_LIB\Include/arm_math.h ****     #define ALIGN4 __attribute__((aligned(4)))
 366:..\CMSIS_DSP_LIB\Include/arm_math.h ****   #else
 367:..\CMSIS_DSP_LIB\Include/arm_math.h ****     #define ALIGN4 __align(4)
 368:..\CMSIS_DSP_LIB\Include/arm_math.h ****   #endif
 369:..\CMSIS_DSP_LIB\Include/arm_math.h **** #endif   /* #ifndef UNALIGNED_SUPPORT_DISABLE */
 370:..\CMSIS_DSP_LIB\Include/arm_math.h **** 
 371:..\CMSIS_DSP_LIB\Include/arm_math.h ****   /**
 372:..\CMSIS_DSP_LIB\Include/arm_math.h ****    * @brief Error status returned by some functions in the library.
 373:..\CMSIS_DSP_LIB\Include/arm_math.h ****    */
 374:..\CMSIS_DSP_LIB\Include/arm_math.h **** 
 375:..\CMSIS_DSP_LIB\Include/arm_math.h ****   typedef enum
 376:..\CMSIS_DSP_LIB\Include/arm_math.h ****   {
 377:..\CMSIS_DSP_LIB\Include/arm_math.h ****     ARM_MATH_SUCCESS = 0,                /**< No error */
ARM GAS  C:\Users\koseki\AppData\Local\Temp\ccPCtr5f.s 			page 30


 378:..\CMSIS_DSP_LIB\Include/arm_math.h ****     ARM_MATH_ARGUMENT_ERROR = -1,        /**< One or more arguments are incorrect */
 379:..\CMSIS_DSP_LIB\Include/arm_math.h ****     ARM_MATH_LENGTH_ERROR = -2,          /**< Length of data buffer is incorrect */
 380:..\CMSIS_DSP_LIB\Include/arm_math.h ****     ARM_MATH_SIZE_MISMATCH = -3,         /**< Size of matrices is not compatible with the operation
 381:..\CMSIS_DSP_LIB\Include/arm_math.h ****     ARM_MATH_NANINF = -4,                /**< Not-a-number (NaN) or infinity is generated */
 382:..\CMSIS_DSP_LIB\Include/arm_math.h ****     ARM_MATH_SINGULAR = -5,              /**< Generated by matrix inversion if the input matrix is 
 383:..\CMSIS_DSP_LIB\Include/arm_math.h ****     ARM_MATH_TEST_FAILURE = -6           /**< Test Failed  */
 384:..\CMSIS_DSP_LIB\Include/arm_math.h ****   } arm_status;
 385:..\CMSIS_DSP_LIB\Include/arm_math.h **** 
 386:..\CMSIS_DSP_LIB\Include/arm_math.h ****   /**
 387:..\CMSIS_DSP_LIB\Include/arm_math.h ****    * @brief 8-bit fractional data type in 1.7 format.
 388:..\CMSIS_DSP_LIB\Include/arm_math.h ****    */
 389:..\CMSIS_DSP_LIB\Include/arm_math.h ****   typedef int8_t q7_t;
 390:..\CMSIS_DSP_LIB\Include/arm_math.h **** 
 391:..\CMSIS_DSP_LIB\Include/arm_math.h ****   /**
 392:..\CMSIS_DSP_LIB\Include/arm_math.h ****    * @brief 16-bit fractional data type in 1.15 format.
 393:..\CMSIS_DSP_LIB\Include/arm_math.h ****    */
 394:..\CMSIS_DSP_LIB\Include/arm_math.h ****   typedef int16_t q15_t;
 395:..\CMSIS_DSP_LIB\Include/arm_math.h **** 
 396:..\CMSIS_DSP_LIB\Include/arm_math.h ****   /**
 397:..\CMSIS_DSP_LIB\Include/arm_math.h ****    * @brief 32-bit fractional data type in 1.31 format.
 398:..\CMSIS_DSP_LIB\Include/arm_math.h ****    */
 399:..\CMSIS_DSP_LIB\Include/arm_math.h ****   typedef int32_t q31_t;
 400:..\CMSIS_DSP_LIB\Include/arm_math.h **** 
 401:..\CMSIS_DSP_LIB\Include/arm_math.h ****   /**
 402:..\CMSIS_DSP_LIB\Include/arm_math.h ****    * @brief 64-bit fractional data type in 1.63 format.
 403:..\CMSIS_DSP_LIB\Include/arm_math.h ****    */
 404:..\CMSIS_DSP_LIB\Include/arm_math.h ****   typedef int64_t q63_t;
 405:..\CMSIS_DSP_LIB\Include/arm_math.h **** 
 406:..\CMSIS_DSP_LIB\Include/arm_math.h ****   /**
 407:..\CMSIS_DSP_LIB\Include/arm_math.h ****    * @brief 32-bit floating-point type definition.
 408:..\CMSIS_DSP_LIB\Include/arm_math.h ****    */
 409:..\CMSIS_DSP_LIB\Include/arm_math.h ****   typedef float float32_t;
 410:..\CMSIS_DSP_LIB\Include/arm_math.h **** 
 411:..\CMSIS_DSP_LIB\Include/arm_math.h ****   /**
 412:..\CMSIS_DSP_LIB\Include/arm_math.h ****    * @brief 64-bit floating-point type definition.
 413:..\CMSIS_DSP_LIB\Include/arm_math.h ****    */
 414:..\CMSIS_DSP_LIB\Include/arm_math.h ****   typedef double float64_t;
 415:..\CMSIS_DSP_LIB\Include/arm_math.h **** 
 416:..\CMSIS_DSP_LIB\Include/arm_math.h ****   /**
 417:..\CMSIS_DSP_LIB\Include/arm_math.h ****    * @brief definition to read/write two 16 bit values.
 418:..\CMSIS_DSP_LIB\Include/arm_math.h ****    */
 419:..\CMSIS_DSP_LIB\Include/arm_math.h **** #if defined __CC_ARM
 420:..\CMSIS_DSP_LIB\Include/arm_math.h ****   #define __SIMD32_TYPE int32_t __packed
 421:..\CMSIS_DSP_LIB\Include/arm_math.h ****   #define CMSIS_UNUSED __attribute__((unused))
 422:..\CMSIS_DSP_LIB\Include/arm_math.h **** 
 423:..\CMSIS_DSP_LIB\Include/arm_math.h **** #elif defined(__ARMCC_VERSION) && (__ARMCC_VERSION >= 6010050)
 424:..\CMSIS_DSP_LIB\Include/arm_math.h ****   #define __SIMD32_TYPE int32_t
 425:..\CMSIS_DSP_LIB\Include/arm_math.h ****   #define CMSIS_UNUSED __attribute__((unused))
 426:..\CMSIS_DSP_LIB\Include/arm_math.h **** 
 427:..\CMSIS_DSP_LIB\Include/arm_math.h **** #elif defined __GNUC__
 428:..\CMSIS_DSP_LIB\Include/arm_math.h ****   #define __SIMD32_TYPE int32_t
 429:..\CMSIS_DSP_LIB\Include/arm_math.h ****   #define CMSIS_UNUSED __attribute__((unused))
 430:..\CMSIS_DSP_LIB\Include/arm_math.h **** 
 431:..\CMSIS_DSP_LIB\Include/arm_math.h **** #elif defined __ICCARM__
 432:..\CMSIS_DSP_LIB\Include/arm_math.h ****   #define __SIMD32_TYPE int32_t __packed
 433:..\CMSIS_DSP_LIB\Include/arm_math.h ****   #define CMSIS_UNUSED
 434:..\CMSIS_DSP_LIB\Include/arm_math.h **** 
ARM GAS  C:\Users\koseki\AppData\Local\Temp\ccPCtr5f.s 			page 31


 435:..\CMSIS_DSP_LIB\Include/arm_math.h **** #elif defined __CSMC__
 436:..\CMSIS_DSP_LIB\Include/arm_math.h ****   #define __SIMD32_TYPE int32_t
 437:..\CMSIS_DSP_LIB\Include/arm_math.h ****   #define CMSIS_UNUSED
 438:..\CMSIS_DSP_LIB\Include/arm_math.h **** 
 439:..\CMSIS_DSP_LIB\Include/arm_math.h **** #elif defined __TASKING__
 440:..\CMSIS_DSP_LIB\Include/arm_math.h ****   #define __SIMD32_TYPE __unaligned int32_t
 441:..\CMSIS_DSP_LIB\Include/arm_math.h ****   #define CMSIS_UNUSED
 442:..\CMSIS_DSP_LIB\Include/arm_math.h **** 
 443:..\CMSIS_DSP_LIB\Include/arm_math.h **** #else
 444:..\CMSIS_DSP_LIB\Include/arm_math.h ****   #error Unknown compiler
 445:..\CMSIS_DSP_LIB\Include/arm_math.h **** #endif
 446:..\CMSIS_DSP_LIB\Include/arm_math.h **** 
 447:..\CMSIS_DSP_LIB\Include/arm_math.h **** #define __SIMD32(addr)        (*(__SIMD32_TYPE **) & (addr))
 448:..\CMSIS_DSP_LIB\Include/arm_math.h **** #define __SIMD32_CONST(addr)  ((__SIMD32_TYPE *)(addr))
 449:..\CMSIS_DSP_LIB\Include/arm_math.h **** #define _SIMD32_OFFSET(addr)  (*(__SIMD32_TYPE *)  (addr))
 450:..\CMSIS_DSP_LIB\Include/arm_math.h **** #define __SIMD64(addr)        (*(int64_t **) & (addr))
 451:..\CMSIS_DSP_LIB\Include/arm_math.h **** 
 452:..\CMSIS_DSP_LIB\Include/arm_math.h **** #if defined (ARM_MATH_CM3) || defined (ARM_MATH_CM0_FAMILY)
 453:..\CMSIS_DSP_LIB\Include/arm_math.h ****   /**
 454:..\CMSIS_DSP_LIB\Include/arm_math.h ****    * @brief definition to pack two 16 bit values.
 455:..\CMSIS_DSP_LIB\Include/arm_math.h ****    */
 456:..\CMSIS_DSP_LIB\Include/arm_math.h **** #define __PKHBT(ARG1, ARG2, ARG3)      ( (((int32_t)(ARG1) <<  0) & (int32_t)0x0000FFFF) | \
 457:..\CMSIS_DSP_LIB\Include/arm_math.h ****                                          (((int32_t)(ARG2) << ARG3) & (int32_t)0xFFFF0000)  )
 458:..\CMSIS_DSP_LIB\Include/arm_math.h **** #define __PKHTB(ARG1, ARG2, ARG3)      ( (((int32_t)(ARG1) <<  0) & (int32_t)0xFFFF0000) | \
 459:..\CMSIS_DSP_LIB\Include/arm_math.h ****                                          (((int32_t)(ARG2) >> ARG3) & (int32_t)0x0000FFFF)  )
 460:..\CMSIS_DSP_LIB\Include/arm_math.h **** 
 461:..\CMSIS_DSP_LIB\Include/arm_math.h **** #endif
 462:..\CMSIS_DSP_LIB\Include/arm_math.h **** 
 463:..\CMSIS_DSP_LIB\Include/arm_math.h **** 
 464:..\CMSIS_DSP_LIB\Include/arm_math.h ****    /**
 465:..\CMSIS_DSP_LIB\Include/arm_math.h ****    * @brief definition to pack four 8 bit values.
 466:..\CMSIS_DSP_LIB\Include/arm_math.h ****    */
 467:..\CMSIS_DSP_LIB\Include/arm_math.h **** #ifndef ARM_MATH_BIG_ENDIAN
 468:..\CMSIS_DSP_LIB\Include/arm_math.h **** 
 469:..\CMSIS_DSP_LIB\Include/arm_math.h **** #define __PACKq7(v0,v1,v2,v3) ( (((int32_t)(v0) <<  0) & (int32_t)0x000000FF) | \
 470:..\CMSIS_DSP_LIB\Include/arm_math.h ****                                 (((int32_t)(v1) <<  8) & (int32_t)0x0000FF00) | \
 471:..\CMSIS_DSP_LIB\Include/arm_math.h ****                                 (((int32_t)(v2) << 16) & (int32_t)0x00FF0000) | \
 472:..\CMSIS_DSP_LIB\Include/arm_math.h ****                                 (((int32_t)(v3) << 24) & (int32_t)0xFF000000)  )
 473:..\CMSIS_DSP_LIB\Include/arm_math.h **** #else
 474:..\CMSIS_DSP_LIB\Include/arm_math.h **** 
 475:..\CMSIS_DSP_LIB\Include/arm_math.h **** #define __PACKq7(v0,v1,v2,v3) ( (((int32_t)(v3) <<  0) & (int32_t)0x000000FF) | \
 476:..\CMSIS_DSP_LIB\Include/arm_math.h ****                                 (((int32_t)(v2) <<  8) & (int32_t)0x0000FF00) | \
 477:..\CMSIS_DSP_LIB\Include/arm_math.h ****                                 (((int32_t)(v1) << 16) & (int32_t)0x00FF0000) | \
 478:..\CMSIS_DSP_LIB\Include/arm_math.h ****                                 (((int32_t)(v0) << 24) & (int32_t)0xFF000000)  )
 479:..\CMSIS_DSP_LIB\Include/arm_math.h **** 
 480:..\CMSIS_DSP_LIB\Include/arm_math.h **** #endif
 481:..\CMSIS_DSP_LIB\Include/arm_math.h **** 
 482:..\CMSIS_DSP_LIB\Include/arm_math.h **** 
 483:..\CMSIS_DSP_LIB\Include/arm_math.h ****   /**
 484:..\CMSIS_DSP_LIB\Include/arm_math.h ****    * @brief Clips Q63 to Q31 values.
 485:..\CMSIS_DSP_LIB\Include/arm_math.h ****    */
 486:..\CMSIS_DSP_LIB\Include/arm_math.h ****   static __INLINE q31_t clip_q63_to_q31(
 487:..\CMSIS_DSP_LIB\Include/arm_math.h ****   q63_t x)
 488:..\CMSIS_DSP_LIB\Include/arm_math.h ****   {
 489:..\CMSIS_DSP_LIB\Include/arm_math.h ****     return ((q31_t) (x >> 32) != ((q31_t) x >> 31)) ?
 490:..\CMSIS_DSP_LIB\Include/arm_math.h ****       ((0x7FFFFFFF ^ ((q31_t) (x >> 63)))) : (q31_t) x;
 491:..\CMSIS_DSP_LIB\Include/arm_math.h ****   }
ARM GAS  C:\Users\koseki\AppData\Local\Temp\ccPCtr5f.s 			page 32


 492:..\CMSIS_DSP_LIB\Include/arm_math.h **** 
 493:..\CMSIS_DSP_LIB\Include/arm_math.h ****   /**
 494:..\CMSIS_DSP_LIB\Include/arm_math.h ****    * @brief Clips Q63 to Q15 values.
 495:..\CMSIS_DSP_LIB\Include/arm_math.h ****    */
 496:..\CMSIS_DSP_LIB\Include/arm_math.h ****   static __INLINE q15_t clip_q63_to_q15(
 497:..\CMSIS_DSP_LIB\Include/arm_math.h ****   q63_t x)
 498:..\CMSIS_DSP_LIB\Include/arm_math.h ****   {
 499:..\CMSIS_DSP_LIB\Include/arm_math.h ****     return ((q31_t) (x >> 32) != ((q31_t) x >> 31)) ?
 500:..\CMSIS_DSP_LIB\Include/arm_math.h ****       ((0x7FFF ^ ((q15_t) (x >> 63)))) : (q15_t) (x >> 15);
 501:..\CMSIS_DSP_LIB\Include/arm_math.h ****   }
 502:..\CMSIS_DSP_LIB\Include/arm_math.h **** 
 503:..\CMSIS_DSP_LIB\Include/arm_math.h ****   /**
 504:..\CMSIS_DSP_LIB\Include/arm_math.h ****    * @brief Clips Q31 to Q7 values.
 505:..\CMSIS_DSP_LIB\Include/arm_math.h ****    */
 506:..\CMSIS_DSP_LIB\Include/arm_math.h ****   static __INLINE q7_t clip_q31_to_q7(
 507:..\CMSIS_DSP_LIB\Include/arm_math.h ****   q31_t x)
 508:..\CMSIS_DSP_LIB\Include/arm_math.h ****   {
 509:..\CMSIS_DSP_LIB\Include/arm_math.h ****     return ((q31_t) (x >> 24) != ((q31_t) x >> 23)) ?
 510:..\CMSIS_DSP_LIB\Include/arm_math.h ****       ((0x7F ^ ((q7_t) (x >> 31)))) : (q7_t) x;
 511:..\CMSIS_DSP_LIB\Include/arm_math.h ****   }
 512:..\CMSIS_DSP_LIB\Include/arm_math.h **** 
 513:..\CMSIS_DSP_LIB\Include/arm_math.h ****   /**
 514:..\CMSIS_DSP_LIB\Include/arm_math.h ****    * @brief Clips Q31 to Q15 values.
 515:..\CMSIS_DSP_LIB\Include/arm_math.h ****    */
 516:..\CMSIS_DSP_LIB\Include/arm_math.h ****   static __INLINE q15_t clip_q31_to_q15(
 517:..\CMSIS_DSP_LIB\Include/arm_math.h ****   q31_t x)
 518:..\CMSIS_DSP_LIB\Include/arm_math.h ****   {
 519:..\CMSIS_DSP_LIB\Include/arm_math.h ****     return ((q31_t) (x >> 16) != ((q31_t) x >> 15)) ?
 520:..\CMSIS_DSP_LIB\Include/arm_math.h ****       ((0x7FFF ^ ((q15_t) (x >> 31)))) : (q15_t) x;
 521:..\CMSIS_DSP_LIB\Include/arm_math.h ****   }
 522:..\CMSIS_DSP_LIB\Include/arm_math.h **** 
 523:..\CMSIS_DSP_LIB\Include/arm_math.h ****   /**
 524:..\CMSIS_DSP_LIB\Include/arm_math.h ****    * @brief Multiplies 32 X 64 and returns 32 bit result in 2.30 format.
 525:..\CMSIS_DSP_LIB\Include/arm_math.h ****    */
 526:..\CMSIS_DSP_LIB\Include/arm_math.h **** 
 527:..\CMSIS_DSP_LIB\Include/arm_math.h ****   static __INLINE q63_t mult32x64(
 528:..\CMSIS_DSP_LIB\Include/arm_math.h ****   q63_t x,
 529:..\CMSIS_DSP_LIB\Include/arm_math.h ****   q31_t y)
 530:..\CMSIS_DSP_LIB\Include/arm_math.h ****   {
 531:..\CMSIS_DSP_LIB\Include/arm_math.h ****     return ((((q63_t) (x & 0x00000000FFFFFFFF) * y) >> 32) +
 532:..\CMSIS_DSP_LIB\Include/arm_math.h ****             (((q63_t) (x >> 32) * y)));
 533:..\CMSIS_DSP_LIB\Include/arm_math.h ****   }
 534:..\CMSIS_DSP_LIB\Include/arm_math.h **** 
 535:..\CMSIS_DSP_LIB\Include/arm_math.h **** /*
 536:..\CMSIS_DSP_LIB\Include/arm_math.h ****   #if defined (ARM_MATH_CM0_FAMILY) && defined ( __CC_ARM   )
 537:..\CMSIS_DSP_LIB\Include/arm_math.h ****   #define __CLZ __clz
 538:..\CMSIS_DSP_LIB\Include/arm_math.h ****   #endif
 539:..\CMSIS_DSP_LIB\Include/arm_math.h ****  */
 540:..\CMSIS_DSP_LIB\Include/arm_math.h **** /* note: function can be removed when all toolchain support __CLZ for Cortex-M0 */
 541:..\CMSIS_DSP_LIB\Include/arm_math.h **** #if defined (ARM_MATH_CM0_FAMILY) && ((defined (__ICCARM__))  )
 542:..\CMSIS_DSP_LIB\Include/arm_math.h ****   static __INLINE uint32_t __CLZ(
 543:..\CMSIS_DSP_LIB\Include/arm_math.h ****   q31_t data);
 544:..\CMSIS_DSP_LIB\Include/arm_math.h **** 
 545:..\CMSIS_DSP_LIB\Include/arm_math.h ****   static __INLINE uint32_t __CLZ(
 546:..\CMSIS_DSP_LIB\Include/arm_math.h ****   q31_t data)
 547:..\CMSIS_DSP_LIB\Include/arm_math.h ****   {
 548:..\CMSIS_DSP_LIB\Include/arm_math.h ****     uint32_t count = 0;
ARM GAS  C:\Users\koseki\AppData\Local\Temp\ccPCtr5f.s 			page 33


 549:..\CMSIS_DSP_LIB\Include/arm_math.h ****     uint32_t mask = 0x80000000;
 550:..\CMSIS_DSP_LIB\Include/arm_math.h **** 
 551:..\CMSIS_DSP_LIB\Include/arm_math.h ****     while((data & mask) == 0)
 552:..\CMSIS_DSP_LIB\Include/arm_math.h ****     {
 553:..\CMSIS_DSP_LIB\Include/arm_math.h ****       count += 1u;
 554:..\CMSIS_DSP_LIB\Include/arm_math.h ****       mask = mask >> 1u;
 555:..\CMSIS_DSP_LIB\Include/arm_math.h ****     }
 556:..\CMSIS_DSP_LIB\Include/arm_math.h **** 
 557:..\CMSIS_DSP_LIB\Include/arm_math.h ****     return (count);
 558:..\CMSIS_DSP_LIB\Include/arm_math.h ****   }
 559:..\CMSIS_DSP_LIB\Include/arm_math.h **** #endif
 560:..\CMSIS_DSP_LIB\Include/arm_math.h **** 
 561:..\CMSIS_DSP_LIB\Include/arm_math.h ****   /**
 562:..\CMSIS_DSP_LIB\Include/arm_math.h ****    * @brief Function to Calculates 1/in (reciprocal) value of Q31 Data type.
 563:..\CMSIS_DSP_LIB\Include/arm_math.h ****    */
 564:..\CMSIS_DSP_LIB\Include/arm_math.h **** 
 565:..\CMSIS_DSP_LIB\Include/arm_math.h ****   static __INLINE uint32_t arm_recip_q31(
 566:..\CMSIS_DSP_LIB\Include/arm_math.h ****   q31_t in,
 567:..\CMSIS_DSP_LIB\Include/arm_math.h ****   q31_t * dst,
 568:..\CMSIS_DSP_LIB\Include/arm_math.h ****   q31_t * pRecipTable)
 569:..\CMSIS_DSP_LIB\Include/arm_math.h ****   {
 570:..\CMSIS_DSP_LIB\Include/arm_math.h ****     q31_t out;
 571:..\CMSIS_DSP_LIB\Include/arm_math.h ****     uint32_t tempVal;
 572:..\CMSIS_DSP_LIB\Include/arm_math.h ****     uint32_t index, i;
 573:..\CMSIS_DSP_LIB\Include/arm_math.h ****     uint32_t signBits;
 574:..\CMSIS_DSP_LIB\Include/arm_math.h **** 
 575:..\CMSIS_DSP_LIB\Include/arm_math.h ****     if(in > 0)
 576:..\CMSIS_DSP_LIB\Include/arm_math.h ****     {
 577:..\CMSIS_DSP_LIB\Include/arm_math.h ****       signBits = ((uint32_t) (__CLZ( in) - 1));
 578:..\CMSIS_DSP_LIB\Include/arm_math.h ****     }
 579:..\CMSIS_DSP_LIB\Include/arm_math.h ****     else
 580:..\CMSIS_DSP_LIB\Include/arm_math.h ****     {
 581:..\CMSIS_DSP_LIB\Include/arm_math.h ****       signBits = ((uint32_t) (__CLZ(-in) - 1));
 582:..\CMSIS_DSP_LIB\Include/arm_math.h ****     }
 583:..\CMSIS_DSP_LIB\Include/arm_math.h **** 
 584:..\CMSIS_DSP_LIB\Include/arm_math.h ****     /* Convert input sample to 1.31 format */
 585:..\CMSIS_DSP_LIB\Include/arm_math.h ****     in = (in << signBits);
 586:..\CMSIS_DSP_LIB\Include/arm_math.h **** 
 587:..\CMSIS_DSP_LIB\Include/arm_math.h ****     /* calculation of index for initial approximated Val */
 588:..\CMSIS_DSP_LIB\Include/arm_math.h ****     index = (uint32_t)(in >> 24);
 589:..\CMSIS_DSP_LIB\Include/arm_math.h ****     index = (index & INDEX_MASK);
 590:..\CMSIS_DSP_LIB\Include/arm_math.h **** 
 591:..\CMSIS_DSP_LIB\Include/arm_math.h ****     /* 1.31 with exp 1 */
 592:..\CMSIS_DSP_LIB\Include/arm_math.h ****     out = pRecipTable[index];
 593:..\CMSIS_DSP_LIB\Include/arm_math.h **** 
 594:..\CMSIS_DSP_LIB\Include/arm_math.h ****     /* calculation of reciprocal value */
 595:..\CMSIS_DSP_LIB\Include/arm_math.h ****     /* running approximation for two iterations */
 596:..\CMSIS_DSP_LIB\Include/arm_math.h ****     for (i = 0u; i < 2u; i++)
 597:..\CMSIS_DSP_LIB\Include/arm_math.h ****     {
 598:..\CMSIS_DSP_LIB\Include/arm_math.h ****       tempVal = (uint32_t) (((q63_t) in * out) >> 31);
 599:..\CMSIS_DSP_LIB\Include/arm_math.h ****       tempVal = 0x7FFFFFFFu - tempVal;
 600:..\CMSIS_DSP_LIB\Include/arm_math.h ****       /*      1.31 with exp 1 */
 601:..\CMSIS_DSP_LIB\Include/arm_math.h ****       /* out = (q31_t) (((q63_t) out * tempVal) >> 30); */
 602:..\CMSIS_DSP_LIB\Include/arm_math.h ****       out = clip_q63_to_q31(((q63_t) out * tempVal) >> 30);
 603:..\CMSIS_DSP_LIB\Include/arm_math.h ****     }
 604:..\CMSIS_DSP_LIB\Include/arm_math.h **** 
 605:..\CMSIS_DSP_LIB\Include/arm_math.h ****     /* write output */
ARM GAS  C:\Users\koseki\AppData\Local\Temp\ccPCtr5f.s 			page 34


 606:..\CMSIS_DSP_LIB\Include/arm_math.h ****     *dst = out;
 607:..\CMSIS_DSP_LIB\Include/arm_math.h **** 
 608:..\CMSIS_DSP_LIB\Include/arm_math.h ****     /* return num of signbits of out = 1/in value */
 609:..\CMSIS_DSP_LIB\Include/arm_math.h ****     return (signBits + 1u);
 610:..\CMSIS_DSP_LIB\Include/arm_math.h ****   }
 611:..\CMSIS_DSP_LIB\Include/arm_math.h **** 
 612:..\CMSIS_DSP_LIB\Include/arm_math.h **** 
 613:..\CMSIS_DSP_LIB\Include/arm_math.h ****   /**
 614:..\CMSIS_DSP_LIB\Include/arm_math.h ****    * @brief Function to Calculates 1/in (reciprocal) value of Q15 Data type.
 615:..\CMSIS_DSP_LIB\Include/arm_math.h ****    */
 616:..\CMSIS_DSP_LIB\Include/arm_math.h ****   static __INLINE uint32_t arm_recip_q15(
 617:..\CMSIS_DSP_LIB\Include/arm_math.h ****   q15_t in,
 618:..\CMSIS_DSP_LIB\Include/arm_math.h ****   q15_t * dst,
 619:..\CMSIS_DSP_LIB\Include/arm_math.h ****   q15_t * pRecipTable)
 620:..\CMSIS_DSP_LIB\Include/arm_math.h ****   {
 621:..\CMSIS_DSP_LIB\Include/arm_math.h ****     q15_t out = 0;
 622:..\CMSIS_DSP_LIB\Include/arm_math.h ****     uint32_t tempVal = 0;
 623:..\CMSIS_DSP_LIB\Include/arm_math.h ****     uint32_t index = 0, i = 0;
 624:..\CMSIS_DSP_LIB\Include/arm_math.h ****     uint32_t signBits = 0;
 625:..\CMSIS_DSP_LIB\Include/arm_math.h **** 
 626:..\CMSIS_DSP_LIB\Include/arm_math.h ****     if(in > 0)
 627:..\CMSIS_DSP_LIB\Include/arm_math.h ****     {
 628:..\CMSIS_DSP_LIB\Include/arm_math.h ****       signBits = ((uint32_t)(__CLZ( in) - 17));
 629:..\CMSIS_DSP_LIB\Include/arm_math.h ****     }
 630:..\CMSIS_DSP_LIB\Include/arm_math.h ****     else
 631:..\CMSIS_DSP_LIB\Include/arm_math.h ****     {
 632:..\CMSIS_DSP_LIB\Include/arm_math.h ****       signBits = ((uint32_t)(__CLZ(-in) - 17));
 633:..\CMSIS_DSP_LIB\Include/arm_math.h ****     }
 634:..\CMSIS_DSP_LIB\Include/arm_math.h **** 
 635:..\CMSIS_DSP_LIB\Include/arm_math.h ****     /* Convert input sample to 1.15 format */
 636:..\CMSIS_DSP_LIB\Include/arm_math.h ****     in = (in << signBits);
 637:..\CMSIS_DSP_LIB\Include/arm_math.h **** 
 638:..\CMSIS_DSP_LIB\Include/arm_math.h ****     /* calculation of index for initial approximated Val */
 639:..\CMSIS_DSP_LIB\Include/arm_math.h ****     index = (uint32_t)(in >>  8);
 640:..\CMSIS_DSP_LIB\Include/arm_math.h ****     index = (index & INDEX_MASK);
 641:..\CMSIS_DSP_LIB\Include/arm_math.h **** 
 642:..\CMSIS_DSP_LIB\Include/arm_math.h ****     /*      1.15 with exp 1  */
 643:..\CMSIS_DSP_LIB\Include/arm_math.h ****     out = pRecipTable[index];
 644:..\CMSIS_DSP_LIB\Include/arm_math.h **** 
 645:..\CMSIS_DSP_LIB\Include/arm_math.h ****     /* calculation of reciprocal value */
 646:..\CMSIS_DSP_LIB\Include/arm_math.h ****     /* running approximation for two iterations */
 647:..\CMSIS_DSP_LIB\Include/arm_math.h ****     for (i = 0u; i < 2u; i++)
 648:..\CMSIS_DSP_LIB\Include/arm_math.h ****     {
 649:..\CMSIS_DSP_LIB\Include/arm_math.h ****       tempVal = (uint32_t) (((q31_t) in * out) >> 15);
 650:..\CMSIS_DSP_LIB\Include/arm_math.h ****       tempVal = 0x7FFFu - tempVal;
 651:..\CMSIS_DSP_LIB\Include/arm_math.h ****       /*      1.15 with exp 1 */
 652:..\CMSIS_DSP_LIB\Include/arm_math.h ****       out = (q15_t) (((q31_t) out * tempVal) >> 14);
 653:..\CMSIS_DSP_LIB\Include/arm_math.h ****       /* out = clip_q31_to_q15(((q31_t) out * tempVal) >> 14); */
 654:..\CMSIS_DSP_LIB\Include/arm_math.h ****     }
 655:..\CMSIS_DSP_LIB\Include/arm_math.h **** 
 656:..\CMSIS_DSP_LIB\Include/arm_math.h ****     /* write output */
 657:..\CMSIS_DSP_LIB\Include/arm_math.h ****     *dst = out;
 658:..\CMSIS_DSP_LIB\Include/arm_math.h **** 
 659:..\CMSIS_DSP_LIB\Include/arm_math.h ****     /* return num of signbits of out = 1/in value */
 660:..\CMSIS_DSP_LIB\Include/arm_math.h ****     return (signBits + 1);
 661:..\CMSIS_DSP_LIB\Include/arm_math.h ****   }
 662:..\CMSIS_DSP_LIB\Include/arm_math.h **** 
ARM GAS  C:\Users\koseki\AppData\Local\Temp\ccPCtr5f.s 			page 35


 663:..\CMSIS_DSP_LIB\Include/arm_math.h **** 
 664:..\CMSIS_DSP_LIB\Include/arm_math.h ****   /*
 665:..\CMSIS_DSP_LIB\Include/arm_math.h ****    * @brief C custom defined intrinisic function for only M0 processors
 666:..\CMSIS_DSP_LIB\Include/arm_math.h ****    */
 667:..\CMSIS_DSP_LIB\Include/arm_math.h **** #if defined(ARM_MATH_CM0_FAMILY)
 668:..\CMSIS_DSP_LIB\Include/arm_math.h ****   static __INLINE q31_t __SSAT(
 669:..\CMSIS_DSP_LIB\Include/arm_math.h ****   q31_t x,
 670:..\CMSIS_DSP_LIB\Include/arm_math.h ****   uint32_t y)
 671:..\CMSIS_DSP_LIB\Include/arm_math.h ****   {
 672:..\CMSIS_DSP_LIB\Include/arm_math.h ****     int32_t posMax, negMin;
 673:..\CMSIS_DSP_LIB\Include/arm_math.h ****     uint32_t i;
 674:..\CMSIS_DSP_LIB\Include/arm_math.h **** 
 675:..\CMSIS_DSP_LIB\Include/arm_math.h ****     posMax = 1;
 676:..\CMSIS_DSP_LIB\Include/arm_math.h ****     for (i = 0; i < (y - 1); i++)
 677:..\CMSIS_DSP_LIB\Include/arm_math.h ****     {
 678:..\CMSIS_DSP_LIB\Include/arm_math.h ****       posMax = posMax * 2;
 679:..\CMSIS_DSP_LIB\Include/arm_math.h ****     }
 680:..\CMSIS_DSP_LIB\Include/arm_math.h **** 
 681:..\CMSIS_DSP_LIB\Include/arm_math.h ****     if(x > 0)
 682:..\CMSIS_DSP_LIB\Include/arm_math.h ****     {
 683:..\CMSIS_DSP_LIB\Include/arm_math.h ****       posMax = (posMax - 1);
 684:..\CMSIS_DSP_LIB\Include/arm_math.h **** 
 685:..\CMSIS_DSP_LIB\Include/arm_math.h ****       if(x > posMax)
 686:..\CMSIS_DSP_LIB\Include/arm_math.h ****       {
 687:..\CMSIS_DSP_LIB\Include/arm_math.h ****         x = posMax;
 688:..\CMSIS_DSP_LIB\Include/arm_math.h ****       }
 689:..\CMSIS_DSP_LIB\Include/arm_math.h ****     }
 690:..\CMSIS_DSP_LIB\Include/arm_math.h ****     else
 691:..\CMSIS_DSP_LIB\Include/arm_math.h ****     {
 692:..\CMSIS_DSP_LIB\Include/arm_math.h ****       negMin = -posMax;
 693:..\CMSIS_DSP_LIB\Include/arm_math.h **** 
 694:..\CMSIS_DSP_LIB\Include/arm_math.h ****       if(x < negMin)
 695:..\CMSIS_DSP_LIB\Include/arm_math.h ****       {
 696:..\CMSIS_DSP_LIB\Include/arm_math.h ****         x = negMin;
 697:..\CMSIS_DSP_LIB\Include/arm_math.h ****       }
 698:..\CMSIS_DSP_LIB\Include/arm_math.h ****     }
 699:..\CMSIS_DSP_LIB\Include/arm_math.h ****     return (x);
 700:..\CMSIS_DSP_LIB\Include/arm_math.h ****   }
 701:..\CMSIS_DSP_LIB\Include/arm_math.h **** #endif /* end of ARM_MATH_CM0_FAMILY */
 702:..\CMSIS_DSP_LIB\Include/arm_math.h **** 
 703:..\CMSIS_DSP_LIB\Include/arm_math.h **** 
 704:..\CMSIS_DSP_LIB\Include/arm_math.h ****   /*
 705:..\CMSIS_DSP_LIB\Include/arm_math.h ****    * @brief C custom defined intrinsic function for M3 and M0 processors
 706:..\CMSIS_DSP_LIB\Include/arm_math.h ****    */
 707:..\CMSIS_DSP_LIB\Include/arm_math.h **** #if defined (ARM_MATH_CM3) || defined (ARM_MATH_CM0_FAMILY)
 708:..\CMSIS_DSP_LIB\Include/arm_math.h **** 
 709:..\CMSIS_DSP_LIB\Include/arm_math.h ****   /*
 710:..\CMSIS_DSP_LIB\Include/arm_math.h ****    * @brief C custom defined QADD8 for M3 and M0 processors
 711:..\CMSIS_DSP_LIB\Include/arm_math.h ****    */
 712:..\CMSIS_DSP_LIB\Include/arm_math.h ****   static __INLINE uint32_t __QADD8(
 713:..\CMSIS_DSP_LIB\Include/arm_math.h ****   uint32_t x,
 714:..\CMSIS_DSP_LIB\Include/arm_math.h ****   uint32_t y)
 715:..\CMSIS_DSP_LIB\Include/arm_math.h ****   {
 716:..\CMSIS_DSP_LIB\Include/arm_math.h ****     q31_t r, s, t, u;
 717:..\CMSIS_DSP_LIB\Include/arm_math.h **** 
 718:..\CMSIS_DSP_LIB\Include/arm_math.h ****     r = __SSAT(((((q31_t)x << 24) >> 24) + (((q31_t)y << 24) >> 24)), 8) & (int32_t)0x000000FF;
 719:..\CMSIS_DSP_LIB\Include/arm_math.h ****     s = __SSAT(((((q31_t)x << 16) >> 24) + (((q31_t)y << 16) >> 24)), 8) & (int32_t)0x000000FF;
ARM GAS  C:\Users\koseki\AppData\Local\Temp\ccPCtr5f.s 			page 36


 720:..\CMSIS_DSP_LIB\Include/arm_math.h ****     t = __SSAT(((((q31_t)x <<  8) >> 24) + (((q31_t)y <<  8) >> 24)), 8) & (int32_t)0x000000FF;
 721:..\CMSIS_DSP_LIB\Include/arm_math.h ****     u = __SSAT(((((q31_t)x      ) >> 24) + (((q31_t)y      ) >> 24)), 8) & (int32_t)0x000000FF;
 722:..\CMSIS_DSP_LIB\Include/arm_math.h **** 
 723:..\CMSIS_DSP_LIB\Include/arm_math.h ****     return ((uint32_t)((u << 24) | (t << 16) | (s <<  8) | (r      )));
 724:..\CMSIS_DSP_LIB\Include/arm_math.h ****   }
 725:..\CMSIS_DSP_LIB\Include/arm_math.h **** 
 726:..\CMSIS_DSP_LIB\Include/arm_math.h **** 
 727:..\CMSIS_DSP_LIB\Include/arm_math.h ****   /*
 728:..\CMSIS_DSP_LIB\Include/arm_math.h ****    * @brief C custom defined QSUB8 for M3 and M0 processors
 729:..\CMSIS_DSP_LIB\Include/arm_math.h ****    */
 730:..\CMSIS_DSP_LIB\Include/arm_math.h ****   static __INLINE uint32_t __QSUB8(
 731:..\CMSIS_DSP_LIB\Include/arm_math.h ****   uint32_t x,
 732:..\CMSIS_DSP_LIB\Include/arm_math.h ****   uint32_t y)
 733:..\CMSIS_DSP_LIB\Include/arm_math.h ****   {
 734:..\CMSIS_DSP_LIB\Include/arm_math.h ****     q31_t r, s, t, u;
 735:..\CMSIS_DSP_LIB\Include/arm_math.h **** 
 736:..\CMSIS_DSP_LIB\Include/arm_math.h ****     r = __SSAT(((((q31_t)x << 24) >> 24) - (((q31_t)y << 24) >> 24)), 8) & (int32_t)0x000000FF;
 737:..\CMSIS_DSP_LIB\Include/arm_math.h ****     s = __SSAT(((((q31_t)x << 16) >> 24) - (((q31_t)y << 16) >> 24)), 8) & (int32_t)0x000000FF;
 738:..\CMSIS_DSP_LIB\Include/arm_math.h ****     t = __SSAT(((((q31_t)x <<  8) >> 24) - (((q31_t)y <<  8) >> 24)), 8) & (int32_t)0x000000FF;
 739:..\CMSIS_DSP_LIB\Include/arm_math.h ****     u = __SSAT(((((q31_t)x      ) >> 24) - (((q31_t)y      ) >> 24)), 8) & (int32_t)0x000000FF;
 740:..\CMSIS_DSP_LIB\Include/arm_math.h **** 
 741:..\CMSIS_DSP_LIB\Include/arm_math.h ****     return ((uint32_t)((u << 24) | (t << 16) | (s <<  8) | (r      )));
 742:..\CMSIS_DSP_LIB\Include/arm_math.h ****   }
 743:..\CMSIS_DSP_LIB\Include/arm_math.h **** 
 744:..\CMSIS_DSP_LIB\Include/arm_math.h **** 
 745:..\CMSIS_DSP_LIB\Include/arm_math.h ****   /*
 746:..\CMSIS_DSP_LIB\Include/arm_math.h ****    * @brief C custom defined QADD16 for M3 and M0 processors
 747:..\CMSIS_DSP_LIB\Include/arm_math.h ****    */
 748:..\CMSIS_DSP_LIB\Include/arm_math.h ****   static __INLINE uint32_t __QADD16(
 749:..\CMSIS_DSP_LIB\Include/arm_math.h ****   uint32_t x,
 750:..\CMSIS_DSP_LIB\Include/arm_math.h ****   uint32_t y)
 751:..\CMSIS_DSP_LIB\Include/arm_math.h ****   {
 752:..\CMSIS_DSP_LIB\Include/arm_math.h **** /*  q31_t r,     s;  without initialisation 'arm_offset_q15 test' fails  but 'intrinsic' tests pass
 753:..\CMSIS_DSP_LIB\Include/arm_math.h ****     q31_t r = 0, s = 0;
 754:..\CMSIS_DSP_LIB\Include/arm_math.h **** 
 755:..\CMSIS_DSP_LIB\Include/arm_math.h ****     r = __SSAT(((((q31_t)x << 16) >> 16) + (((q31_t)y << 16) >> 16)), 16) & (int32_t)0x0000FFFF;
 756:..\CMSIS_DSP_LIB\Include/arm_math.h ****     s = __SSAT(((((q31_t)x      ) >> 16) + (((q31_t)y      ) >> 16)), 16) & (int32_t)0x0000FFFF;
 757:..\CMSIS_DSP_LIB\Include/arm_math.h **** 
 758:..\CMSIS_DSP_LIB\Include/arm_math.h ****     return ((uint32_t)((s << 16) | (r      )));
 759:..\CMSIS_DSP_LIB\Include/arm_math.h ****   }
 760:..\CMSIS_DSP_LIB\Include/arm_math.h **** 
 761:..\CMSIS_DSP_LIB\Include/arm_math.h **** 
 762:..\CMSIS_DSP_LIB\Include/arm_math.h ****   /*
 763:..\CMSIS_DSP_LIB\Include/arm_math.h ****    * @brief C custom defined SHADD16 for M3 and M0 processors
 764:..\CMSIS_DSP_LIB\Include/arm_math.h ****    */
 765:..\CMSIS_DSP_LIB\Include/arm_math.h ****   static __INLINE uint32_t __SHADD16(
 766:..\CMSIS_DSP_LIB\Include/arm_math.h ****   uint32_t x,
 767:..\CMSIS_DSP_LIB\Include/arm_math.h ****   uint32_t y)
 768:..\CMSIS_DSP_LIB\Include/arm_math.h ****   {
 769:..\CMSIS_DSP_LIB\Include/arm_math.h ****     q31_t r, s;
 770:..\CMSIS_DSP_LIB\Include/arm_math.h **** 
 771:..\CMSIS_DSP_LIB\Include/arm_math.h ****     r = (((((q31_t)x << 16) >> 16) + (((q31_t)y << 16) >> 16)) >> 1) & (int32_t)0x0000FFFF;
 772:..\CMSIS_DSP_LIB\Include/arm_math.h ****     s = (((((q31_t)x      ) >> 16) + (((q31_t)y      ) >> 16)) >> 1) & (int32_t)0x0000FFFF;
 773:..\CMSIS_DSP_LIB\Include/arm_math.h **** 
 774:..\CMSIS_DSP_LIB\Include/arm_math.h ****     return ((uint32_t)((s << 16) | (r      )));
 775:..\CMSIS_DSP_LIB\Include/arm_math.h ****   }
 776:..\CMSIS_DSP_LIB\Include/arm_math.h **** 
ARM GAS  C:\Users\koseki\AppData\Local\Temp\ccPCtr5f.s 			page 37


 777:..\CMSIS_DSP_LIB\Include/arm_math.h **** 
 778:..\CMSIS_DSP_LIB\Include/arm_math.h ****   /*
 779:..\CMSIS_DSP_LIB\Include/arm_math.h ****    * @brief C custom defined QSUB16 for M3 and M0 processors
 780:..\CMSIS_DSP_LIB\Include/arm_math.h ****    */
 781:..\CMSIS_DSP_LIB\Include/arm_math.h ****   static __INLINE uint32_t __QSUB16(
 782:..\CMSIS_DSP_LIB\Include/arm_math.h ****   uint32_t x,
 783:..\CMSIS_DSP_LIB\Include/arm_math.h ****   uint32_t y)
 784:..\CMSIS_DSP_LIB\Include/arm_math.h ****   {
 785:..\CMSIS_DSP_LIB\Include/arm_math.h ****     q31_t r, s;
 786:..\CMSIS_DSP_LIB\Include/arm_math.h **** 
 787:..\CMSIS_DSP_LIB\Include/arm_math.h ****     r = __SSAT(((((q31_t)x << 16) >> 16) - (((q31_t)y << 16) >> 16)), 16) & (int32_t)0x0000FFFF;
 788:..\CMSIS_DSP_LIB\Include/arm_math.h ****     s = __SSAT(((((q31_t)x      ) >> 16) - (((q31_t)y      ) >> 16)), 16) & (int32_t)0x0000FFFF;
 789:..\CMSIS_DSP_LIB\Include/arm_math.h **** 
 790:..\CMSIS_DSP_LIB\Include/arm_math.h ****     return ((uint32_t)((s << 16) | (r      )));
 791:..\CMSIS_DSP_LIB\Include/arm_math.h ****   }
 792:..\CMSIS_DSP_LIB\Include/arm_math.h **** 
 793:..\CMSIS_DSP_LIB\Include/arm_math.h **** 
 794:..\CMSIS_DSP_LIB\Include/arm_math.h ****   /*
 795:..\CMSIS_DSP_LIB\Include/arm_math.h ****    * @brief C custom defined SHSUB16 for M3 and M0 processors
 796:..\CMSIS_DSP_LIB\Include/arm_math.h ****    */
 797:..\CMSIS_DSP_LIB\Include/arm_math.h ****   static __INLINE uint32_t __SHSUB16(
 798:..\CMSIS_DSP_LIB\Include/arm_math.h ****   uint32_t x,
 799:..\CMSIS_DSP_LIB\Include/arm_math.h ****   uint32_t y)
 800:..\CMSIS_DSP_LIB\Include/arm_math.h ****   {
 801:..\CMSIS_DSP_LIB\Include/arm_math.h ****     q31_t r, s;
 802:..\CMSIS_DSP_LIB\Include/arm_math.h **** 
 803:..\CMSIS_DSP_LIB\Include/arm_math.h ****     r = (((((q31_t)x << 16) >> 16) - (((q31_t)y << 16) >> 16)) >> 1) & (int32_t)0x0000FFFF;
 804:..\CMSIS_DSP_LIB\Include/arm_math.h ****     s = (((((q31_t)x      ) >> 16) - (((q31_t)y      ) >> 16)) >> 1) & (int32_t)0x0000FFFF;
 805:..\CMSIS_DSP_LIB\Include/arm_math.h **** 
 806:..\CMSIS_DSP_LIB\Include/arm_math.h ****     return ((uint32_t)((s << 16) | (r      )));
 807:..\CMSIS_DSP_LIB\Include/arm_math.h ****   }
 808:..\CMSIS_DSP_LIB\Include/arm_math.h **** 
 809:..\CMSIS_DSP_LIB\Include/arm_math.h **** 
 810:..\CMSIS_DSP_LIB\Include/arm_math.h ****   /*
 811:..\CMSIS_DSP_LIB\Include/arm_math.h ****    * @brief C custom defined QASX for M3 and M0 processors
 812:..\CMSIS_DSP_LIB\Include/arm_math.h ****    */
 813:..\CMSIS_DSP_LIB\Include/arm_math.h ****   static __INLINE uint32_t __QASX(
 814:..\CMSIS_DSP_LIB\Include/arm_math.h ****   uint32_t x,
 815:..\CMSIS_DSP_LIB\Include/arm_math.h ****   uint32_t y)
 816:..\CMSIS_DSP_LIB\Include/arm_math.h ****   {
 817:..\CMSIS_DSP_LIB\Include/arm_math.h ****     q31_t r, s;
 818:..\CMSIS_DSP_LIB\Include/arm_math.h **** 
 819:..\CMSIS_DSP_LIB\Include/arm_math.h ****     r = __SSAT(((((q31_t)x << 16) >> 16) - (((q31_t)y      ) >> 16)), 16) & (int32_t)0x0000FFFF;
 820:..\CMSIS_DSP_LIB\Include/arm_math.h ****     s = __SSAT(((((q31_t)x      ) >> 16) + (((q31_t)y << 16) >> 16)), 16) & (int32_t)0x0000FFFF;
 821:..\CMSIS_DSP_LIB\Include/arm_math.h **** 
 822:..\CMSIS_DSP_LIB\Include/arm_math.h ****     return ((uint32_t)((s << 16) | (r      )));
 823:..\CMSIS_DSP_LIB\Include/arm_math.h ****   }
 824:..\CMSIS_DSP_LIB\Include/arm_math.h **** 
 825:..\CMSIS_DSP_LIB\Include/arm_math.h **** 
 826:..\CMSIS_DSP_LIB\Include/arm_math.h ****   /*
 827:..\CMSIS_DSP_LIB\Include/arm_math.h ****    * @brief C custom defined SHASX for M3 and M0 processors
 828:..\CMSIS_DSP_LIB\Include/arm_math.h ****    */
 829:..\CMSIS_DSP_LIB\Include/arm_math.h ****   static __INLINE uint32_t __SHASX(
 830:..\CMSIS_DSP_LIB\Include/arm_math.h ****   uint32_t x,
 831:..\CMSIS_DSP_LIB\Include/arm_math.h ****   uint32_t y)
 832:..\CMSIS_DSP_LIB\Include/arm_math.h ****   {
 833:..\CMSIS_DSP_LIB\Include/arm_math.h ****     q31_t r, s;
ARM GAS  C:\Users\koseki\AppData\Local\Temp\ccPCtr5f.s 			page 38


 834:..\CMSIS_DSP_LIB\Include/arm_math.h **** 
 835:..\CMSIS_DSP_LIB\Include/arm_math.h ****     r = (((((q31_t)x << 16) >> 16) - (((q31_t)y      ) >> 16)) >> 1) & (int32_t)0x0000FFFF;
 836:..\CMSIS_DSP_LIB\Include/arm_math.h ****     s = (((((q31_t)x      ) >> 16) + (((q31_t)y << 16) >> 16)) >> 1) & (int32_t)0x0000FFFF;
 837:..\CMSIS_DSP_LIB\Include/arm_math.h **** 
 838:..\CMSIS_DSP_LIB\Include/arm_math.h ****     return ((uint32_t)((s << 16) | (r      )));
 839:..\CMSIS_DSP_LIB\Include/arm_math.h ****   }
 840:..\CMSIS_DSP_LIB\Include/arm_math.h **** 
 841:..\CMSIS_DSP_LIB\Include/arm_math.h **** 
 842:..\CMSIS_DSP_LIB\Include/arm_math.h ****   /*
 843:..\CMSIS_DSP_LIB\Include/arm_math.h ****    * @brief C custom defined QSAX for M3 and M0 processors
 844:..\CMSIS_DSP_LIB\Include/arm_math.h ****    */
 845:..\CMSIS_DSP_LIB\Include/arm_math.h ****   static __INLINE uint32_t __QSAX(
 846:..\CMSIS_DSP_LIB\Include/arm_math.h ****   uint32_t x,
 847:..\CMSIS_DSP_LIB\Include/arm_math.h ****   uint32_t y)
 848:..\CMSIS_DSP_LIB\Include/arm_math.h ****   {
 849:..\CMSIS_DSP_LIB\Include/arm_math.h ****     q31_t r, s;
 850:..\CMSIS_DSP_LIB\Include/arm_math.h **** 
 851:..\CMSIS_DSP_LIB\Include/arm_math.h ****     r = __SSAT(((((q31_t)x << 16) >> 16) + (((q31_t)y      ) >> 16)), 16) & (int32_t)0x0000FFFF;
 852:..\CMSIS_DSP_LIB\Include/arm_math.h ****     s = __SSAT(((((q31_t)x      ) >> 16) - (((q31_t)y << 16) >> 16)), 16) & (int32_t)0x0000FFFF;
 853:..\CMSIS_DSP_LIB\Include/arm_math.h **** 
 854:..\CMSIS_DSP_LIB\Include/arm_math.h ****     return ((uint32_t)((s << 16) | (r      )));
 855:..\CMSIS_DSP_LIB\Include/arm_math.h ****   }
 856:..\CMSIS_DSP_LIB\Include/arm_math.h **** 
 857:..\CMSIS_DSP_LIB\Include/arm_math.h **** 
 858:..\CMSIS_DSP_LIB\Include/arm_math.h ****   /*
 859:..\CMSIS_DSP_LIB\Include/arm_math.h ****    * @brief C custom defined SHSAX for M3 and M0 processors
 860:..\CMSIS_DSP_LIB\Include/arm_math.h ****    */
 861:..\CMSIS_DSP_LIB\Include/arm_math.h ****   static __INLINE uint32_t __SHSAX(
 862:..\CMSIS_DSP_LIB\Include/arm_math.h ****   uint32_t x,
 863:..\CMSIS_DSP_LIB\Include/arm_math.h ****   uint32_t y)
 864:..\CMSIS_DSP_LIB\Include/arm_math.h ****   {
 865:..\CMSIS_DSP_LIB\Include/arm_math.h ****     q31_t r, s;
 866:..\CMSIS_DSP_LIB\Include/arm_math.h **** 
 867:..\CMSIS_DSP_LIB\Include/arm_math.h ****     r = (((((q31_t)x << 16) >> 16) + (((q31_t)y      ) >> 16)) >> 1) & (int32_t)0x0000FFFF;
 868:..\CMSIS_DSP_LIB\Include/arm_math.h ****     s = (((((q31_t)x      ) >> 16) - (((q31_t)y << 16) >> 16)) >> 1) & (int32_t)0x0000FFFF;
 869:..\CMSIS_DSP_LIB\Include/arm_math.h **** 
 870:..\CMSIS_DSP_LIB\Include/arm_math.h ****     return ((uint32_t)((s << 16) | (r      )));
 871:..\CMSIS_DSP_LIB\Include/arm_math.h ****   }
 872:..\CMSIS_DSP_LIB\Include/arm_math.h **** 
 873:..\CMSIS_DSP_LIB\Include/arm_math.h **** 
 874:..\CMSIS_DSP_LIB\Include/arm_math.h ****   /*
 875:..\CMSIS_DSP_LIB\Include/arm_math.h ****    * @brief C custom defined SMUSDX for M3 and M0 processors
 876:..\CMSIS_DSP_LIB\Include/arm_math.h ****    */
 877:..\CMSIS_DSP_LIB\Include/arm_math.h ****   static __INLINE uint32_t __SMUSDX(
 878:..\CMSIS_DSP_LIB\Include/arm_math.h ****   uint32_t x,
 879:..\CMSIS_DSP_LIB\Include/arm_math.h ****   uint32_t y)
 880:..\CMSIS_DSP_LIB\Include/arm_math.h ****   {
 881:..\CMSIS_DSP_LIB\Include/arm_math.h ****     return ((uint32_t)(((((q31_t)x << 16) >> 16) * (((q31_t)y      ) >> 16)) -
 882:..\CMSIS_DSP_LIB\Include/arm_math.h ****                        ((((q31_t)x      ) >> 16) * (((q31_t)y << 16) >> 16))   ));
 883:..\CMSIS_DSP_LIB\Include/arm_math.h ****   }
 884:..\CMSIS_DSP_LIB\Include/arm_math.h **** 
 885:..\CMSIS_DSP_LIB\Include/arm_math.h ****   /*
 886:..\CMSIS_DSP_LIB\Include/arm_math.h ****    * @brief C custom defined SMUADX for M3 and M0 processors
 887:..\CMSIS_DSP_LIB\Include/arm_math.h ****    */
 888:..\CMSIS_DSP_LIB\Include/arm_math.h ****   static __INLINE uint32_t __SMUADX(
 889:..\CMSIS_DSP_LIB\Include/arm_math.h ****   uint32_t x,
 890:..\CMSIS_DSP_LIB\Include/arm_math.h ****   uint32_t y)
ARM GAS  C:\Users\koseki\AppData\Local\Temp\ccPCtr5f.s 			page 39


 891:..\CMSIS_DSP_LIB\Include/arm_math.h ****   {
 892:..\CMSIS_DSP_LIB\Include/arm_math.h ****     return ((uint32_t)(((((q31_t)x << 16) >> 16) * (((q31_t)y      ) >> 16)) +
 893:..\CMSIS_DSP_LIB\Include/arm_math.h ****                        ((((q31_t)x      ) >> 16) * (((q31_t)y << 16) >> 16))   ));
 894:..\CMSIS_DSP_LIB\Include/arm_math.h ****   }
 895:..\CMSIS_DSP_LIB\Include/arm_math.h **** 
 896:..\CMSIS_DSP_LIB\Include/arm_math.h **** 
 897:..\CMSIS_DSP_LIB\Include/arm_math.h ****   /*
 898:..\CMSIS_DSP_LIB\Include/arm_math.h ****    * @brief C custom defined QADD for M3 and M0 processors
 899:..\CMSIS_DSP_LIB\Include/arm_math.h ****    */
 900:..\CMSIS_DSP_LIB\Include/arm_math.h ****   static __INLINE int32_t __QADD(
 901:..\CMSIS_DSP_LIB\Include/arm_math.h ****   int32_t x,
 902:..\CMSIS_DSP_LIB\Include/arm_math.h ****   int32_t y)
 903:..\CMSIS_DSP_LIB\Include/arm_math.h ****   {
 904:..\CMSIS_DSP_LIB\Include/arm_math.h ****     return ((int32_t)(clip_q63_to_q31((q63_t)x + (q31_t)y)));
 905:..\CMSIS_DSP_LIB\Include/arm_math.h ****   }
 906:..\CMSIS_DSP_LIB\Include/arm_math.h **** 
 907:..\CMSIS_DSP_LIB\Include/arm_math.h **** 
 908:..\CMSIS_DSP_LIB\Include/arm_math.h ****   /*
 909:..\CMSIS_DSP_LIB\Include/arm_math.h ****    * @brief C custom defined QSUB for M3 and M0 processors
 910:..\CMSIS_DSP_LIB\Include/arm_math.h ****    */
 911:..\CMSIS_DSP_LIB\Include/arm_math.h ****   static __INLINE int32_t __QSUB(
 912:..\CMSIS_DSP_LIB\Include/arm_math.h ****   int32_t x,
 913:..\CMSIS_DSP_LIB\Include/arm_math.h ****   int32_t y)
 914:..\CMSIS_DSP_LIB\Include/arm_math.h ****   {
 915:..\CMSIS_DSP_LIB\Include/arm_math.h ****     return ((int32_t)(clip_q63_to_q31((q63_t)x - (q31_t)y)));
 916:..\CMSIS_DSP_LIB\Include/arm_math.h ****   }
 917:..\CMSIS_DSP_LIB\Include/arm_math.h **** 
 918:..\CMSIS_DSP_LIB\Include/arm_math.h **** 
 919:..\CMSIS_DSP_LIB\Include/arm_math.h ****   /*
 920:..\CMSIS_DSP_LIB\Include/arm_math.h ****    * @brief C custom defined SMLAD for M3 and M0 processors
 921:..\CMSIS_DSP_LIB\Include/arm_math.h ****    */
 922:..\CMSIS_DSP_LIB\Include/arm_math.h ****   static __INLINE uint32_t __SMLAD(
 923:..\CMSIS_DSP_LIB\Include/arm_math.h ****   uint32_t x,
 924:..\CMSIS_DSP_LIB\Include/arm_math.h ****   uint32_t y,
 925:..\CMSIS_DSP_LIB\Include/arm_math.h ****   uint32_t sum)
 926:..\CMSIS_DSP_LIB\Include/arm_math.h ****   {
 927:..\CMSIS_DSP_LIB\Include/arm_math.h ****     return ((uint32_t)(((((q31_t)x << 16) >> 16) * (((q31_t)y << 16) >> 16)) +
 928:..\CMSIS_DSP_LIB\Include/arm_math.h ****                        ((((q31_t)x      ) >> 16) * (((q31_t)y      ) >> 16)) +
 929:..\CMSIS_DSP_LIB\Include/arm_math.h ****                        ( ((q31_t)sum    )                                  )   ));
 930:..\CMSIS_DSP_LIB\Include/arm_math.h ****   }
 931:..\CMSIS_DSP_LIB\Include/arm_math.h **** 
 932:..\CMSIS_DSP_LIB\Include/arm_math.h **** 
 933:..\CMSIS_DSP_LIB\Include/arm_math.h ****   /*
 934:..\CMSIS_DSP_LIB\Include/arm_math.h ****    * @brief C custom defined SMLADX for M3 and M0 processors
 935:..\CMSIS_DSP_LIB\Include/arm_math.h ****    */
 936:..\CMSIS_DSP_LIB\Include/arm_math.h ****   static __INLINE uint32_t __SMLADX(
 937:..\CMSIS_DSP_LIB\Include/arm_math.h ****   uint32_t x,
 938:..\CMSIS_DSP_LIB\Include/arm_math.h ****   uint32_t y,
 939:..\CMSIS_DSP_LIB\Include/arm_math.h ****   uint32_t sum)
 940:..\CMSIS_DSP_LIB\Include/arm_math.h ****   {
 941:..\CMSIS_DSP_LIB\Include/arm_math.h ****     return ((uint32_t)(((((q31_t)x << 16) >> 16) * (((q31_t)y      ) >> 16)) +
 942:..\CMSIS_DSP_LIB\Include/arm_math.h ****                        ((((q31_t)x      ) >> 16) * (((q31_t)y << 16) >> 16)) +
 943:..\CMSIS_DSP_LIB\Include/arm_math.h ****                        ( ((q31_t)sum    )                                  )   ));
 944:..\CMSIS_DSP_LIB\Include/arm_math.h ****   }
 945:..\CMSIS_DSP_LIB\Include/arm_math.h **** 
 946:..\CMSIS_DSP_LIB\Include/arm_math.h **** 
 947:..\CMSIS_DSP_LIB\Include/arm_math.h ****   /*
ARM GAS  C:\Users\koseki\AppData\Local\Temp\ccPCtr5f.s 			page 40


 948:..\CMSIS_DSP_LIB\Include/arm_math.h ****    * @brief C custom defined SMLSDX for M3 and M0 processors
 949:..\CMSIS_DSP_LIB\Include/arm_math.h ****    */
 950:..\CMSIS_DSP_LIB\Include/arm_math.h ****   static __INLINE uint32_t __SMLSDX(
 951:..\CMSIS_DSP_LIB\Include/arm_math.h ****   uint32_t x,
 952:..\CMSIS_DSP_LIB\Include/arm_math.h ****   uint32_t y,
 953:..\CMSIS_DSP_LIB\Include/arm_math.h ****   uint32_t sum)
 954:..\CMSIS_DSP_LIB\Include/arm_math.h ****   {
 955:..\CMSIS_DSP_LIB\Include/arm_math.h ****     return ((uint32_t)(((((q31_t)x << 16) >> 16) * (((q31_t)y      ) >> 16)) -
 956:..\CMSIS_DSP_LIB\Include/arm_math.h ****                        ((((q31_t)x      ) >> 16) * (((q31_t)y << 16) >> 16)) +
 957:..\CMSIS_DSP_LIB\Include/arm_math.h ****                        ( ((q31_t)sum    )                                  )   ));
 958:..\CMSIS_DSP_LIB\Include/arm_math.h ****   }
 959:..\CMSIS_DSP_LIB\Include/arm_math.h **** 
 960:..\CMSIS_DSP_LIB\Include/arm_math.h **** 
 961:..\CMSIS_DSP_LIB\Include/arm_math.h ****   /*
 962:..\CMSIS_DSP_LIB\Include/arm_math.h ****    * @brief C custom defined SMLALD for M3 and M0 processors
 963:..\CMSIS_DSP_LIB\Include/arm_math.h ****    */
 964:..\CMSIS_DSP_LIB\Include/arm_math.h ****   static __INLINE uint64_t __SMLALD(
 965:..\CMSIS_DSP_LIB\Include/arm_math.h ****   uint32_t x,
 966:..\CMSIS_DSP_LIB\Include/arm_math.h ****   uint32_t y,
 967:..\CMSIS_DSP_LIB\Include/arm_math.h ****   uint64_t sum)
 968:..\CMSIS_DSP_LIB\Include/arm_math.h ****   {
 969:..\CMSIS_DSP_LIB\Include/arm_math.h **** /*  return (sum + ((q15_t) (x >> 16) * (q15_t) (y >> 16)) + ((q15_t) x * (q15_t) y)); */
 970:..\CMSIS_DSP_LIB\Include/arm_math.h ****     return ((uint64_t)(((((q31_t)x << 16) >> 16) * (((q31_t)y << 16) >> 16)) +
 971:..\CMSIS_DSP_LIB\Include/arm_math.h ****                        ((((q31_t)x      ) >> 16) * (((q31_t)y      ) >> 16)) +
 972:..\CMSIS_DSP_LIB\Include/arm_math.h ****                        ( ((q63_t)sum    )                                  )   ));
 973:..\CMSIS_DSP_LIB\Include/arm_math.h ****   }
 974:..\CMSIS_DSP_LIB\Include/arm_math.h **** 
 975:..\CMSIS_DSP_LIB\Include/arm_math.h **** 
 976:..\CMSIS_DSP_LIB\Include/arm_math.h ****   /*
 977:..\CMSIS_DSP_LIB\Include/arm_math.h ****    * @brief C custom defined SMLALDX for M3 and M0 processors
 978:..\CMSIS_DSP_LIB\Include/arm_math.h ****    */
 979:..\CMSIS_DSP_LIB\Include/arm_math.h ****   static __INLINE uint64_t __SMLALDX(
 980:..\CMSIS_DSP_LIB\Include/arm_math.h ****   uint32_t x,
 981:..\CMSIS_DSP_LIB\Include/arm_math.h ****   uint32_t y,
 982:..\CMSIS_DSP_LIB\Include/arm_math.h ****   uint64_t sum)
 983:..\CMSIS_DSP_LIB\Include/arm_math.h ****   {
 984:..\CMSIS_DSP_LIB\Include/arm_math.h **** /*  return (sum + ((q15_t) (x >> 16) * (q15_t) y)) + ((q15_t) x * (q15_t) (y >> 16)); */
 985:..\CMSIS_DSP_LIB\Include/arm_math.h ****     return ((uint64_t)(((((q31_t)x << 16) >> 16) * (((q31_t)y      ) >> 16)) +
 986:..\CMSIS_DSP_LIB\Include/arm_math.h ****                        ((((q31_t)x      ) >> 16) * (((q31_t)y << 16) >> 16)) +
 987:..\CMSIS_DSP_LIB\Include/arm_math.h ****                        ( ((q63_t)sum    )                                  )   ));
 988:..\CMSIS_DSP_LIB\Include/arm_math.h ****   }
 989:..\CMSIS_DSP_LIB\Include/arm_math.h **** 
 990:..\CMSIS_DSP_LIB\Include/arm_math.h **** 
 991:..\CMSIS_DSP_LIB\Include/arm_math.h ****   /*
 992:..\CMSIS_DSP_LIB\Include/arm_math.h ****    * @brief C custom defined SMUAD for M3 and M0 processors
 993:..\CMSIS_DSP_LIB\Include/arm_math.h ****    */
 994:..\CMSIS_DSP_LIB\Include/arm_math.h ****   static __INLINE uint32_t __SMUAD(
 995:..\CMSIS_DSP_LIB\Include/arm_math.h ****   uint32_t x,
 996:..\CMSIS_DSP_LIB\Include/arm_math.h ****   uint32_t y)
 997:..\CMSIS_DSP_LIB\Include/arm_math.h ****   {
 998:..\CMSIS_DSP_LIB\Include/arm_math.h ****     return ((uint32_t)(((((q31_t)x << 16) >> 16) * (((q31_t)y << 16) >> 16)) +
 999:..\CMSIS_DSP_LIB\Include/arm_math.h ****                        ((((q31_t)x      ) >> 16) * (((q31_t)y      ) >> 16))   ));
1000:..\CMSIS_DSP_LIB\Include/arm_math.h ****   }
1001:..\CMSIS_DSP_LIB\Include/arm_math.h **** 
1002:..\CMSIS_DSP_LIB\Include/arm_math.h **** 
1003:..\CMSIS_DSP_LIB\Include/arm_math.h ****   /*
1004:..\CMSIS_DSP_LIB\Include/arm_math.h ****    * @brief C custom defined SMUSD for M3 and M0 processors
ARM GAS  C:\Users\koseki\AppData\Local\Temp\ccPCtr5f.s 			page 41


1005:..\CMSIS_DSP_LIB\Include/arm_math.h ****    */
1006:..\CMSIS_DSP_LIB\Include/arm_math.h ****   static __INLINE uint32_t __SMUSD(
1007:..\CMSIS_DSP_LIB\Include/arm_math.h ****   uint32_t x,
1008:..\CMSIS_DSP_LIB\Include/arm_math.h ****   uint32_t y)
1009:..\CMSIS_DSP_LIB\Include/arm_math.h ****   {
1010:..\CMSIS_DSP_LIB\Include/arm_math.h ****     return ((uint32_t)(((((q31_t)x << 16) >> 16) * (((q31_t)y << 16) >> 16)) -
1011:..\CMSIS_DSP_LIB\Include/arm_math.h ****                        ((((q31_t)x      ) >> 16) * (((q31_t)y      ) >> 16))   ));
1012:..\CMSIS_DSP_LIB\Include/arm_math.h ****   }
1013:..\CMSIS_DSP_LIB\Include/arm_math.h **** 
1014:..\CMSIS_DSP_LIB\Include/arm_math.h **** 
1015:..\CMSIS_DSP_LIB\Include/arm_math.h ****   /*
1016:..\CMSIS_DSP_LIB\Include/arm_math.h ****    * @brief C custom defined SXTB16 for M3 and M0 processors
1017:..\CMSIS_DSP_LIB\Include/arm_math.h ****    */
1018:..\CMSIS_DSP_LIB\Include/arm_math.h ****   static __INLINE uint32_t __SXTB16(
1019:..\CMSIS_DSP_LIB\Include/arm_math.h ****   uint32_t x)
1020:..\CMSIS_DSP_LIB\Include/arm_math.h ****   {
1021:..\CMSIS_DSP_LIB\Include/arm_math.h ****     return ((uint32_t)(((((q31_t)x << 24) >> 24) & (q31_t)0x0000FFFF) |
1022:..\CMSIS_DSP_LIB\Include/arm_math.h ****                        ((((q31_t)x <<  8) >>  8) & (q31_t)0xFFFF0000)  ));
1023:..\CMSIS_DSP_LIB\Include/arm_math.h ****   }
1024:..\CMSIS_DSP_LIB\Include/arm_math.h **** 
1025:..\CMSIS_DSP_LIB\Include/arm_math.h **** #endif /* defined (ARM_MATH_CM3) || defined (ARM_MATH_CM0_FAMILY) */
1026:..\CMSIS_DSP_LIB\Include/arm_math.h **** 
1027:..\CMSIS_DSP_LIB\Include/arm_math.h **** 
1028:..\CMSIS_DSP_LIB\Include/arm_math.h ****   /**
1029:..\CMSIS_DSP_LIB\Include/arm_math.h ****    * @brief Instance structure for the Q7 FIR filter.
1030:..\CMSIS_DSP_LIB\Include/arm_math.h ****    */
1031:..\CMSIS_DSP_LIB\Include/arm_math.h ****   typedef struct
1032:..\CMSIS_DSP_LIB\Include/arm_math.h ****   {
1033:..\CMSIS_DSP_LIB\Include/arm_math.h ****     uint16_t numTaps;        /**< number of filter coefficients in the filter. */
1034:..\CMSIS_DSP_LIB\Include/arm_math.h ****     q7_t *pState;            /**< points to the state variable array. The array is of length numTap
1035:..\CMSIS_DSP_LIB\Include/arm_math.h ****     q7_t *pCoeffs;           /**< points to the coefficient array. The array is of length numTaps.*
1036:..\CMSIS_DSP_LIB\Include/arm_math.h ****   } arm_fir_instance_q7;
1037:..\CMSIS_DSP_LIB\Include/arm_math.h **** 
1038:..\CMSIS_DSP_LIB\Include/arm_math.h ****   /**
1039:..\CMSIS_DSP_LIB\Include/arm_math.h ****    * @brief Instance structure for the Q15 FIR filter.
1040:..\CMSIS_DSP_LIB\Include/arm_math.h ****    */
1041:..\CMSIS_DSP_LIB\Include/arm_math.h ****   typedef struct
1042:..\CMSIS_DSP_LIB\Include/arm_math.h ****   {
1043:..\CMSIS_DSP_LIB\Include/arm_math.h ****     uint16_t numTaps;         /**< number of filter coefficients in the filter. */
1044:..\CMSIS_DSP_LIB\Include/arm_math.h ****     q15_t *pState;            /**< points to the state variable array. The array is of length numTa
1045:..\CMSIS_DSP_LIB\Include/arm_math.h ****     q15_t *pCoeffs;           /**< points to the coefficient array. The array is of length numTaps.
1046:..\CMSIS_DSP_LIB\Include/arm_math.h ****   } arm_fir_instance_q15;
1047:..\CMSIS_DSP_LIB\Include/arm_math.h **** 
1048:..\CMSIS_DSP_LIB\Include/arm_math.h ****   /**
1049:..\CMSIS_DSP_LIB\Include/arm_math.h ****    * @brief Instance structure for the Q31 FIR filter.
1050:..\CMSIS_DSP_LIB\Include/arm_math.h ****    */
1051:..\CMSIS_DSP_LIB\Include/arm_math.h ****   typedef struct
1052:..\CMSIS_DSP_LIB\Include/arm_math.h ****   {
1053:..\CMSIS_DSP_LIB\Include/arm_math.h ****     uint16_t numTaps;         /**< number of filter coefficients in the filter. */
1054:..\CMSIS_DSP_LIB\Include/arm_math.h ****     q31_t *pState;            /**< points to the state variable array. The array is of length numTa
1055:..\CMSIS_DSP_LIB\Include/arm_math.h ****     q31_t *pCoeffs;           /**< points to the coefficient array. The array is of length numTaps.
1056:..\CMSIS_DSP_LIB\Include/arm_math.h ****   } arm_fir_instance_q31;
1057:..\CMSIS_DSP_LIB\Include/arm_math.h **** 
1058:..\CMSIS_DSP_LIB\Include/arm_math.h ****   /**
1059:..\CMSIS_DSP_LIB\Include/arm_math.h ****    * @brief Instance structure for the floating-point FIR filter.
1060:..\CMSIS_DSP_LIB\Include/arm_math.h ****    */
1061:..\CMSIS_DSP_LIB\Include/arm_math.h ****   typedef struct
ARM GAS  C:\Users\koseki\AppData\Local\Temp\ccPCtr5f.s 			page 42


1062:..\CMSIS_DSP_LIB\Include/arm_math.h ****   {
1063:..\CMSIS_DSP_LIB\Include/arm_math.h ****     uint16_t numTaps;     /**< number of filter coefficients in the filter. */
1064:..\CMSIS_DSP_LIB\Include/arm_math.h ****     float32_t *pState;    /**< points to the state variable array. The array is of length numTaps+b
1065:..\CMSIS_DSP_LIB\Include/arm_math.h ****     float32_t *pCoeffs;   /**< points to the coefficient array. The array is of length numTaps. */
1066:..\CMSIS_DSP_LIB\Include/arm_math.h ****   } arm_fir_instance_f32;
1067:..\CMSIS_DSP_LIB\Include/arm_math.h **** 
1068:..\CMSIS_DSP_LIB\Include/arm_math.h **** 
1069:..\CMSIS_DSP_LIB\Include/arm_math.h ****   /**
1070:..\CMSIS_DSP_LIB\Include/arm_math.h ****    * @brief Processing function for the Q7 FIR filter.
1071:..\CMSIS_DSP_LIB\Include/arm_math.h ****    * @param[in]  S          points to an instance of the Q7 FIR filter structure.
1072:..\CMSIS_DSP_LIB\Include/arm_math.h ****    * @param[in]  pSrc       points to the block of input data.
1073:..\CMSIS_DSP_LIB\Include/arm_math.h ****    * @param[out] pDst       points to the block of output data.
1074:..\CMSIS_DSP_LIB\Include/arm_math.h ****    * @param[in]  blockSize  number of samples to process.
1075:..\CMSIS_DSP_LIB\Include/arm_math.h ****    */
1076:..\CMSIS_DSP_LIB\Include/arm_math.h ****   void arm_fir_q7(
1077:..\CMSIS_DSP_LIB\Include/arm_math.h ****   const arm_fir_instance_q7 * S,
1078:..\CMSIS_DSP_LIB\Include/arm_math.h ****   q7_t * pSrc,
1079:..\CMSIS_DSP_LIB\Include/arm_math.h ****   q7_t * pDst,
1080:..\CMSIS_DSP_LIB\Include/arm_math.h ****   uint32_t blockSize);
1081:..\CMSIS_DSP_LIB\Include/arm_math.h **** 
1082:..\CMSIS_DSP_LIB\Include/arm_math.h **** 
1083:..\CMSIS_DSP_LIB\Include/arm_math.h ****   /**
1084:..\CMSIS_DSP_LIB\Include/arm_math.h ****    * @brief  Initialization function for the Q7 FIR filter.
1085:..\CMSIS_DSP_LIB\Include/arm_math.h ****    * @param[in,out] S          points to an instance of the Q7 FIR structure.
1086:..\CMSIS_DSP_LIB\Include/arm_math.h ****    * @param[in]     numTaps    Number of filter coefficients in the filter.
1087:..\CMSIS_DSP_LIB\Include/arm_math.h ****    * @param[in]     pCoeffs    points to the filter coefficients.
1088:..\CMSIS_DSP_LIB\Include/arm_math.h ****    * @param[in]     pState     points to the state buffer.
1089:..\CMSIS_DSP_LIB\Include/arm_math.h ****    * @param[in]     blockSize  number of samples that are processed.
1090:..\CMSIS_DSP_LIB\Include/arm_math.h ****    */
1091:..\CMSIS_DSP_LIB\Include/arm_math.h ****   void arm_fir_init_q7(
1092:..\CMSIS_DSP_LIB\Include/arm_math.h ****   arm_fir_instance_q7 * S,
1093:..\CMSIS_DSP_LIB\Include/arm_math.h ****   uint16_t numTaps,
1094:..\CMSIS_DSP_LIB\Include/arm_math.h ****   q7_t * pCoeffs,
1095:..\CMSIS_DSP_LIB\Include/arm_math.h ****   q7_t * pState,
1096:..\CMSIS_DSP_LIB\Include/arm_math.h ****   uint32_t blockSize);
1097:..\CMSIS_DSP_LIB\Include/arm_math.h **** 
1098:..\CMSIS_DSP_LIB\Include/arm_math.h **** 
1099:..\CMSIS_DSP_LIB\Include/arm_math.h ****   /**
1100:..\CMSIS_DSP_LIB\Include/arm_math.h ****    * @brief Processing function for the Q15 FIR filter.
1101:..\CMSIS_DSP_LIB\Include/arm_math.h ****    * @param[in]  S          points to an instance of the Q15 FIR structure.
1102:..\CMSIS_DSP_LIB\Include/arm_math.h ****    * @param[in]  pSrc       points to the block of input data.
1103:..\CMSIS_DSP_LIB\Include/arm_math.h ****    * @param[out] pDst       points to the block of output data.
1104:..\CMSIS_DSP_LIB\Include/arm_math.h ****    * @param[in]  blockSize  number of samples to process.
1105:..\CMSIS_DSP_LIB\Include/arm_math.h ****    */
1106:..\CMSIS_DSP_LIB\Include/arm_math.h ****   void arm_fir_q15(
1107:..\CMSIS_DSP_LIB\Include/arm_math.h ****   const arm_fir_instance_q15 * S,
1108:..\CMSIS_DSP_LIB\Include/arm_math.h ****   q15_t * pSrc,
1109:..\CMSIS_DSP_LIB\Include/arm_math.h ****   q15_t * pDst,
1110:..\CMSIS_DSP_LIB\Include/arm_math.h ****   uint32_t blockSize);
1111:..\CMSIS_DSP_LIB\Include/arm_math.h **** 
1112:..\CMSIS_DSP_LIB\Include/arm_math.h **** 
1113:..\CMSIS_DSP_LIB\Include/arm_math.h ****   /**
1114:..\CMSIS_DSP_LIB\Include/arm_math.h ****    * @brief Processing function for the fast Q15 FIR filter for Cortex-M3 and Cortex-M4.
1115:..\CMSIS_DSP_LIB\Include/arm_math.h ****    * @param[in]  S          points to an instance of the Q15 FIR filter structure.
1116:..\CMSIS_DSP_LIB\Include/arm_math.h ****    * @param[in]  pSrc       points to the block of input data.
1117:..\CMSIS_DSP_LIB\Include/arm_math.h ****    * @param[out] pDst       points to the block of output data.
1118:..\CMSIS_DSP_LIB\Include/arm_math.h ****    * @param[in]  blockSize  number of samples to process.
ARM GAS  C:\Users\koseki\AppData\Local\Temp\ccPCtr5f.s 			page 43


1119:..\CMSIS_DSP_LIB\Include/arm_math.h ****    */
1120:..\CMSIS_DSP_LIB\Include/arm_math.h ****   void arm_fir_fast_q15(
1121:..\CMSIS_DSP_LIB\Include/arm_math.h ****   const arm_fir_instance_q15 * S,
1122:..\CMSIS_DSP_LIB\Include/arm_math.h ****   q15_t * pSrc,
1123:..\CMSIS_DSP_LIB\Include/arm_math.h ****   q15_t * pDst,
1124:..\CMSIS_DSP_LIB\Include/arm_math.h ****   uint32_t blockSize);
1125:..\CMSIS_DSP_LIB\Include/arm_math.h **** 
1126:..\CMSIS_DSP_LIB\Include/arm_math.h **** 
1127:..\CMSIS_DSP_LIB\Include/arm_math.h ****   /**
1128:..\CMSIS_DSP_LIB\Include/arm_math.h ****    * @brief  Initialization function for the Q15 FIR filter.
1129:..\CMSIS_DSP_LIB\Include/arm_math.h ****    * @param[in,out] S          points to an instance of the Q15 FIR filter structure.
1130:..\CMSIS_DSP_LIB\Include/arm_math.h ****    * @param[in]     numTaps    Number of filter coefficients in the filter. Must be even and greate
1131:..\CMSIS_DSP_LIB\Include/arm_math.h ****    * @param[in]     pCoeffs    points to the filter coefficients.
1132:..\CMSIS_DSP_LIB\Include/arm_math.h ****    * @param[in]     pState     points to the state buffer.
1133:..\CMSIS_DSP_LIB\Include/arm_math.h ****    * @param[in]     blockSize  number of samples that are processed at a time.
1134:..\CMSIS_DSP_LIB\Include/arm_math.h ****    * @return The function returns ARM_MATH_SUCCESS if initialization was successful or ARM_MATH_ARG
1135:..\CMSIS_DSP_LIB\Include/arm_math.h ****    * <code>numTaps</code> is not a supported value.
1136:..\CMSIS_DSP_LIB\Include/arm_math.h ****    */
1137:..\CMSIS_DSP_LIB\Include/arm_math.h ****   arm_status arm_fir_init_q15(
1138:..\CMSIS_DSP_LIB\Include/arm_math.h ****   arm_fir_instance_q15 * S,
1139:..\CMSIS_DSP_LIB\Include/arm_math.h ****   uint16_t numTaps,
1140:..\CMSIS_DSP_LIB\Include/arm_math.h ****   q15_t * pCoeffs,
1141:..\CMSIS_DSP_LIB\Include/arm_math.h ****   q15_t * pState,
1142:..\CMSIS_DSP_LIB\Include/arm_math.h ****   uint32_t blockSize);
1143:..\CMSIS_DSP_LIB\Include/arm_math.h **** 
1144:..\CMSIS_DSP_LIB\Include/arm_math.h **** 
1145:..\CMSIS_DSP_LIB\Include/arm_math.h ****   /**
1146:..\CMSIS_DSP_LIB\Include/arm_math.h ****    * @brief Processing function for the Q31 FIR filter.
1147:..\CMSIS_DSP_LIB\Include/arm_math.h ****    * @param[in]  S          points to an instance of the Q31 FIR filter structure.
1148:..\CMSIS_DSP_LIB\Include/arm_math.h ****    * @param[in]  pSrc       points to the block of input data.
1149:..\CMSIS_DSP_LIB\Include/arm_math.h ****    * @param[out] pDst       points to the block of output data.
1150:..\CMSIS_DSP_LIB\Include/arm_math.h ****    * @param[in]  blockSize  number of samples to process.
1151:..\CMSIS_DSP_LIB\Include/arm_math.h ****    */
1152:..\CMSIS_DSP_LIB\Include/arm_math.h ****   void arm_fir_q31(
1153:..\CMSIS_DSP_LIB\Include/arm_math.h ****   const arm_fir_instance_q31 * S,
1154:..\CMSIS_DSP_LIB\Include/arm_math.h ****   q31_t * pSrc,
1155:..\CMSIS_DSP_LIB\Include/arm_math.h ****   q31_t * pDst,
1156:..\CMSIS_DSP_LIB\Include/arm_math.h ****   uint32_t blockSize);
1157:..\CMSIS_DSP_LIB\Include/arm_math.h **** 
1158:..\CMSIS_DSP_LIB\Include/arm_math.h **** 
1159:..\CMSIS_DSP_LIB\Include/arm_math.h ****   /**
1160:..\CMSIS_DSP_LIB\Include/arm_math.h ****    * @brief Processing function for the fast Q31 FIR filter for Cortex-M3 and Cortex-M4.
1161:..\CMSIS_DSP_LIB\Include/arm_math.h ****    * @param[in]  S          points to an instance of the Q31 FIR structure.
1162:..\CMSIS_DSP_LIB\Include/arm_math.h ****    * @param[in]  pSrc       points to the block of input data.
1163:..\CMSIS_DSP_LIB\Include/arm_math.h ****    * @param[out] pDst       points to the block of output data.
1164:..\CMSIS_DSP_LIB\Include/arm_math.h ****    * @param[in]  blockSize  number of samples to process.
1165:..\CMSIS_DSP_LIB\Include/arm_math.h ****    */
1166:..\CMSIS_DSP_LIB\Include/arm_math.h ****   void arm_fir_fast_q31(
1167:..\CMSIS_DSP_LIB\Include/arm_math.h ****   const arm_fir_instance_q31 * S,
1168:..\CMSIS_DSP_LIB\Include/arm_math.h ****   q31_t * pSrc,
1169:..\CMSIS_DSP_LIB\Include/arm_math.h ****   q31_t * pDst,
1170:..\CMSIS_DSP_LIB\Include/arm_math.h ****   uint32_t blockSize);
1171:..\CMSIS_DSP_LIB\Include/arm_math.h **** 
1172:..\CMSIS_DSP_LIB\Include/arm_math.h **** 
1173:..\CMSIS_DSP_LIB\Include/arm_math.h ****   /**
1174:..\CMSIS_DSP_LIB\Include/arm_math.h ****    * @brief  Initialization function for the Q31 FIR filter.
1175:..\CMSIS_DSP_LIB\Include/arm_math.h ****    * @param[in,out] S          points to an instance of the Q31 FIR structure.
ARM GAS  C:\Users\koseki\AppData\Local\Temp\ccPCtr5f.s 			page 44


1176:..\CMSIS_DSP_LIB\Include/arm_math.h ****    * @param[in]     numTaps    Number of filter coefficients in the filter.
1177:..\CMSIS_DSP_LIB\Include/arm_math.h ****    * @param[in]     pCoeffs    points to the filter coefficients.
1178:..\CMSIS_DSP_LIB\Include/arm_math.h ****    * @param[in]     pState     points to the state buffer.
1179:..\CMSIS_DSP_LIB\Include/arm_math.h ****    * @param[in]     blockSize  number of samples that are processed at a time.
1180:..\CMSIS_DSP_LIB\Include/arm_math.h ****    */
1181:..\CMSIS_DSP_LIB\Include/arm_math.h ****   void arm_fir_init_q31(
1182:..\CMSIS_DSP_LIB\Include/arm_math.h ****   arm_fir_instance_q31 * S,
1183:..\CMSIS_DSP_LIB\Include/arm_math.h ****   uint16_t numTaps,
1184:..\CMSIS_DSP_LIB\Include/arm_math.h ****   q31_t * pCoeffs,
1185:..\CMSIS_DSP_LIB\Include/arm_math.h ****   q31_t * pState,
1186:..\CMSIS_DSP_LIB\Include/arm_math.h ****   uint32_t blockSize);
1187:..\CMSIS_DSP_LIB\Include/arm_math.h **** 
1188:..\CMSIS_DSP_LIB\Include/arm_math.h **** 
1189:..\CMSIS_DSP_LIB\Include/arm_math.h ****   /**
1190:..\CMSIS_DSP_LIB\Include/arm_math.h ****    * @brief Processing function for the floating-point FIR filter.
1191:..\CMSIS_DSP_LIB\Include/arm_math.h ****    * @param[in]  S          points to an instance of the floating-point FIR structure.
1192:..\CMSIS_DSP_LIB\Include/arm_math.h ****    * @param[in]  pSrc       points to the block of input data.
1193:..\CMSIS_DSP_LIB\Include/arm_math.h ****    * @param[out] pDst       points to the block of output data.
1194:..\CMSIS_DSP_LIB\Include/arm_math.h ****    * @param[in]  blockSize  number of samples to process.
1195:..\CMSIS_DSP_LIB\Include/arm_math.h ****    */
1196:..\CMSIS_DSP_LIB\Include/arm_math.h ****   void arm_fir_f32(
1197:..\CMSIS_DSP_LIB\Include/arm_math.h ****   const arm_fir_instance_f32 * S,
1198:..\CMSIS_DSP_LIB\Include/arm_math.h ****   float32_t * pSrc,
1199:..\CMSIS_DSP_LIB\Include/arm_math.h ****   float32_t * pDst,
1200:..\CMSIS_DSP_LIB\Include/arm_math.h ****   uint32_t blockSize);
1201:..\CMSIS_DSP_LIB\Include/arm_math.h **** 
1202:..\CMSIS_DSP_LIB\Include/arm_math.h **** 
1203:..\CMSIS_DSP_LIB\Include/arm_math.h ****   /**
1204:..\CMSIS_DSP_LIB\Include/arm_math.h ****    * @brief  Initialization function for the floating-point FIR filter.
1205:..\CMSIS_DSP_LIB\Include/arm_math.h ****    * @param[in,out] S          points to an instance of the floating-point FIR filter structure.
1206:..\CMSIS_DSP_LIB\Include/arm_math.h ****    * @param[in]     numTaps    Number of filter coefficients in the filter.
1207:..\CMSIS_DSP_LIB\Include/arm_math.h ****    * @param[in]     pCoeffs    points to the filter coefficients.
1208:..\CMSIS_DSP_LIB\Include/arm_math.h ****    * @param[in]     pState     points to the state buffer.
1209:..\CMSIS_DSP_LIB\Include/arm_math.h ****    * @param[in]     blockSize  number of samples that are processed at a time.
1210:..\CMSIS_DSP_LIB\Include/arm_math.h ****    */
1211:..\CMSIS_DSP_LIB\Include/arm_math.h ****   void arm_fir_init_f32(
1212:..\CMSIS_DSP_LIB\Include/arm_math.h ****   arm_fir_instance_f32 * S,
1213:..\CMSIS_DSP_LIB\Include/arm_math.h ****   uint16_t numTaps,
1214:..\CMSIS_DSP_LIB\Include/arm_math.h ****   float32_t * pCoeffs,
1215:..\CMSIS_DSP_LIB\Include/arm_math.h ****   float32_t * pState,
1216:..\CMSIS_DSP_LIB\Include/arm_math.h ****   uint32_t blockSize);
1217:..\CMSIS_DSP_LIB\Include/arm_math.h **** 
1218:..\CMSIS_DSP_LIB\Include/arm_math.h **** 
1219:..\CMSIS_DSP_LIB\Include/arm_math.h ****   /**
1220:..\CMSIS_DSP_LIB\Include/arm_math.h ****    * @brief Instance structure for the Q15 Biquad cascade filter.
1221:..\CMSIS_DSP_LIB\Include/arm_math.h ****    */
1222:..\CMSIS_DSP_LIB\Include/arm_math.h ****   typedef struct
1223:..\CMSIS_DSP_LIB\Include/arm_math.h ****   {
1224:..\CMSIS_DSP_LIB\Include/arm_math.h ****     int8_t numStages;        /**< number of 2nd order stages in the filter.  Overall order is 2*num
1225:..\CMSIS_DSP_LIB\Include/arm_math.h ****     q15_t *pState;           /**< Points to the array of state coefficients.  The array is of lengt
1226:..\CMSIS_DSP_LIB\Include/arm_math.h ****     q15_t *pCoeffs;          /**< Points to the array of coefficients.  The array is of length 5*nu
1227:..\CMSIS_DSP_LIB\Include/arm_math.h ****     int8_t postShift;        /**< Additional shift, in bits, applied to each output sample. */
1228:..\CMSIS_DSP_LIB\Include/arm_math.h ****   } arm_biquad_casd_df1_inst_q15;
1229:..\CMSIS_DSP_LIB\Include/arm_math.h **** 
1230:..\CMSIS_DSP_LIB\Include/arm_math.h ****   /**
1231:..\CMSIS_DSP_LIB\Include/arm_math.h ****    * @brief Instance structure for the Q31 Biquad cascade filter.
1232:..\CMSIS_DSP_LIB\Include/arm_math.h ****    */
ARM GAS  C:\Users\koseki\AppData\Local\Temp\ccPCtr5f.s 			page 45


1233:..\CMSIS_DSP_LIB\Include/arm_math.h ****   typedef struct
1234:..\CMSIS_DSP_LIB\Include/arm_math.h ****   {
1235:..\CMSIS_DSP_LIB\Include/arm_math.h ****     uint32_t numStages;      /**< number of 2nd order stages in the filter.  Overall order is 2*num
1236:..\CMSIS_DSP_LIB\Include/arm_math.h ****     q31_t *pState;           /**< Points to the array of state coefficients.  The array is of lengt
1237:..\CMSIS_DSP_LIB\Include/arm_math.h ****     q31_t *pCoeffs;          /**< Points to the array of coefficients.  The array is of length 5*nu
1238:..\CMSIS_DSP_LIB\Include/arm_math.h ****     uint8_t postShift;       /**< Additional shift, in bits, applied to each output sample. */
1239:..\CMSIS_DSP_LIB\Include/arm_math.h ****   } arm_biquad_casd_df1_inst_q31;
1240:..\CMSIS_DSP_LIB\Include/arm_math.h **** 
1241:..\CMSIS_DSP_LIB\Include/arm_math.h ****   /**
1242:..\CMSIS_DSP_LIB\Include/arm_math.h ****    * @brief Instance structure for the floating-point Biquad cascade filter.
1243:..\CMSIS_DSP_LIB\Include/arm_math.h ****    */
1244:..\CMSIS_DSP_LIB\Include/arm_math.h ****   typedef struct
1245:..\CMSIS_DSP_LIB\Include/arm_math.h ****   {
1246:..\CMSIS_DSP_LIB\Include/arm_math.h ****     uint32_t numStages;      /**< number of 2nd order stages in the filter.  Overall order is 2*num
1247:..\CMSIS_DSP_LIB\Include/arm_math.h ****     float32_t *pState;       /**< Points to the array of state coefficients.  The array is of lengt
1248:..\CMSIS_DSP_LIB\Include/arm_math.h ****     float32_t *pCoeffs;      /**< Points to the array of coefficients.  The array is of length 5*nu
1249:..\CMSIS_DSP_LIB\Include/arm_math.h ****   } arm_biquad_casd_df1_inst_f32;
1250:..\CMSIS_DSP_LIB\Include/arm_math.h **** 
1251:..\CMSIS_DSP_LIB\Include/arm_math.h **** 
1252:..\CMSIS_DSP_LIB\Include/arm_math.h ****   /**
1253:..\CMSIS_DSP_LIB\Include/arm_math.h ****    * @brief Processing function for the Q15 Biquad cascade filter.
1254:..\CMSIS_DSP_LIB\Include/arm_math.h ****    * @param[in]  S          points to an instance of the Q15 Biquad cascade structure.
1255:..\CMSIS_DSP_LIB\Include/arm_math.h ****    * @param[in]  pSrc       points to the block of input data.
1256:..\CMSIS_DSP_LIB\Include/arm_math.h ****    * @param[out] pDst       points to the block of output data.
1257:..\CMSIS_DSP_LIB\Include/arm_math.h ****    * @param[in]  blockSize  number of samples to process.
1258:..\CMSIS_DSP_LIB\Include/arm_math.h ****    */
1259:..\CMSIS_DSP_LIB\Include/arm_math.h ****   void arm_biquad_cascade_df1_q15(
1260:..\CMSIS_DSP_LIB\Include/arm_math.h ****   const arm_biquad_casd_df1_inst_q15 * S,
1261:..\CMSIS_DSP_LIB\Include/arm_math.h ****   q15_t * pSrc,
1262:..\CMSIS_DSP_LIB\Include/arm_math.h ****   q15_t * pDst,
1263:..\CMSIS_DSP_LIB\Include/arm_math.h ****   uint32_t blockSize);
1264:..\CMSIS_DSP_LIB\Include/arm_math.h **** 
1265:..\CMSIS_DSP_LIB\Include/arm_math.h **** 
1266:..\CMSIS_DSP_LIB\Include/arm_math.h ****   /**
1267:..\CMSIS_DSP_LIB\Include/arm_math.h ****    * @brief  Initialization function for the Q15 Biquad cascade filter.
1268:..\CMSIS_DSP_LIB\Include/arm_math.h ****    * @param[in,out] S          points to an instance of the Q15 Biquad cascade structure.
1269:..\CMSIS_DSP_LIB\Include/arm_math.h ****    * @param[in]     numStages  number of 2nd order stages in the filter.
1270:..\CMSIS_DSP_LIB\Include/arm_math.h ****    * @param[in]     pCoeffs    points to the filter coefficients.
1271:..\CMSIS_DSP_LIB\Include/arm_math.h ****    * @param[in]     pState     points to the state buffer.
1272:..\CMSIS_DSP_LIB\Include/arm_math.h ****    * @param[in]     postShift  Shift to be applied to the output. Varies according to the coefficie
1273:..\CMSIS_DSP_LIB\Include/arm_math.h ****    */
1274:..\CMSIS_DSP_LIB\Include/arm_math.h ****   void arm_biquad_cascade_df1_init_q15(
1275:..\CMSIS_DSP_LIB\Include/arm_math.h ****   arm_biquad_casd_df1_inst_q15 * S,
1276:..\CMSIS_DSP_LIB\Include/arm_math.h ****   uint8_t numStages,
1277:..\CMSIS_DSP_LIB\Include/arm_math.h ****   q15_t * pCoeffs,
1278:..\CMSIS_DSP_LIB\Include/arm_math.h ****   q15_t * pState,
1279:..\CMSIS_DSP_LIB\Include/arm_math.h ****   int8_t postShift);
1280:..\CMSIS_DSP_LIB\Include/arm_math.h **** 
1281:..\CMSIS_DSP_LIB\Include/arm_math.h **** 
1282:..\CMSIS_DSP_LIB\Include/arm_math.h ****   /**
1283:..\CMSIS_DSP_LIB\Include/arm_math.h ****    * @brief Fast but less precise processing function for the Q15 Biquad cascade filter for Cortex-
1284:..\CMSIS_DSP_LIB\Include/arm_math.h ****    * @param[in]  S          points to an instance of the Q15 Biquad cascade structure.
1285:..\CMSIS_DSP_LIB\Include/arm_math.h ****    * @param[in]  pSrc       points to the block of input data.
1286:..\CMSIS_DSP_LIB\Include/arm_math.h ****    * @param[out] pDst       points to the block of output data.
1287:..\CMSIS_DSP_LIB\Include/arm_math.h ****    * @param[in]  blockSize  number of samples to process.
1288:..\CMSIS_DSP_LIB\Include/arm_math.h ****    */
1289:..\CMSIS_DSP_LIB\Include/arm_math.h ****   void arm_biquad_cascade_df1_fast_q15(
ARM GAS  C:\Users\koseki\AppData\Local\Temp\ccPCtr5f.s 			page 46


1290:..\CMSIS_DSP_LIB\Include/arm_math.h ****   const arm_biquad_casd_df1_inst_q15 * S,
1291:..\CMSIS_DSP_LIB\Include/arm_math.h ****   q15_t * pSrc,
1292:..\CMSIS_DSP_LIB\Include/arm_math.h ****   q15_t * pDst,
1293:..\CMSIS_DSP_LIB\Include/arm_math.h ****   uint32_t blockSize);
1294:..\CMSIS_DSP_LIB\Include/arm_math.h **** 
1295:..\CMSIS_DSP_LIB\Include/arm_math.h **** 
1296:..\CMSIS_DSP_LIB\Include/arm_math.h ****   /**
1297:..\CMSIS_DSP_LIB\Include/arm_math.h ****    * @brief Processing function for the Q31 Biquad cascade filter
1298:..\CMSIS_DSP_LIB\Include/arm_math.h ****    * @param[in]  S          points to an instance of the Q31 Biquad cascade structure.
1299:..\CMSIS_DSP_LIB\Include/arm_math.h ****    * @param[in]  pSrc       points to the block of input data.
1300:..\CMSIS_DSP_LIB\Include/arm_math.h ****    * @param[out] pDst       points to the block of output data.
1301:..\CMSIS_DSP_LIB\Include/arm_math.h ****    * @param[in]  blockSize  number of samples to process.
1302:..\CMSIS_DSP_LIB\Include/arm_math.h ****    */
1303:..\CMSIS_DSP_LIB\Include/arm_math.h ****   void arm_biquad_cascade_df1_q31(
1304:..\CMSIS_DSP_LIB\Include/arm_math.h ****   const arm_biquad_casd_df1_inst_q31 * S,
1305:..\CMSIS_DSP_LIB\Include/arm_math.h ****   q31_t * pSrc,
1306:..\CMSIS_DSP_LIB\Include/arm_math.h ****   q31_t * pDst,
1307:..\CMSIS_DSP_LIB\Include/arm_math.h ****   uint32_t blockSize);
1308:..\CMSIS_DSP_LIB\Include/arm_math.h **** 
1309:..\CMSIS_DSP_LIB\Include/arm_math.h **** 
1310:..\CMSIS_DSP_LIB\Include/arm_math.h ****   /**
1311:..\CMSIS_DSP_LIB\Include/arm_math.h ****    * @brief Fast but less precise processing function for the Q31 Biquad cascade filter for Cortex-
1312:..\CMSIS_DSP_LIB\Include/arm_math.h ****    * @param[in]  S          points to an instance of the Q31 Biquad cascade structure.
1313:..\CMSIS_DSP_LIB\Include/arm_math.h ****    * @param[in]  pSrc       points to the block of input data.
1314:..\CMSIS_DSP_LIB\Include/arm_math.h ****    * @param[out] pDst       points to the block of output data.
1315:..\CMSIS_DSP_LIB\Include/arm_math.h ****    * @param[in]  blockSize  number of samples to process.
1316:..\CMSIS_DSP_LIB\Include/arm_math.h ****    */
1317:..\CMSIS_DSP_LIB\Include/arm_math.h ****   void arm_biquad_cascade_df1_fast_q31(
1318:..\CMSIS_DSP_LIB\Include/arm_math.h ****   const arm_biquad_casd_df1_inst_q31 * S,
1319:..\CMSIS_DSP_LIB\Include/arm_math.h ****   q31_t * pSrc,
1320:..\CMSIS_DSP_LIB\Include/arm_math.h ****   q31_t * pDst,
1321:..\CMSIS_DSP_LIB\Include/arm_math.h ****   uint32_t blockSize);
1322:..\CMSIS_DSP_LIB\Include/arm_math.h **** 
1323:..\CMSIS_DSP_LIB\Include/arm_math.h **** 
1324:..\CMSIS_DSP_LIB\Include/arm_math.h ****   /**
1325:..\CMSIS_DSP_LIB\Include/arm_math.h ****    * @brief  Initialization function for the Q31 Biquad cascade filter.
1326:..\CMSIS_DSP_LIB\Include/arm_math.h ****    * @param[in,out] S          points to an instance of the Q31 Biquad cascade structure.
1327:..\CMSIS_DSP_LIB\Include/arm_math.h ****    * @param[in]     numStages  number of 2nd order stages in the filter.
1328:..\CMSIS_DSP_LIB\Include/arm_math.h ****    * @param[in]     pCoeffs    points to the filter coefficients.
1329:..\CMSIS_DSP_LIB\Include/arm_math.h ****    * @param[in]     pState     points to the state buffer.
1330:..\CMSIS_DSP_LIB\Include/arm_math.h ****    * @param[in]     postShift  Shift to be applied to the output. Varies according to the coefficie
1331:..\CMSIS_DSP_LIB\Include/arm_math.h ****    */
1332:..\CMSIS_DSP_LIB\Include/arm_math.h ****   void arm_biquad_cascade_df1_init_q31(
1333:..\CMSIS_DSP_LIB\Include/arm_math.h ****   arm_biquad_casd_df1_inst_q31 * S,
1334:..\CMSIS_DSP_LIB\Include/arm_math.h ****   uint8_t numStages,
1335:..\CMSIS_DSP_LIB\Include/arm_math.h ****   q31_t * pCoeffs,
1336:..\CMSIS_DSP_LIB\Include/arm_math.h ****   q31_t * pState,
1337:..\CMSIS_DSP_LIB\Include/arm_math.h ****   int8_t postShift);
1338:..\CMSIS_DSP_LIB\Include/arm_math.h **** 
1339:..\CMSIS_DSP_LIB\Include/arm_math.h **** 
1340:..\CMSIS_DSP_LIB\Include/arm_math.h ****   /**
1341:..\CMSIS_DSP_LIB\Include/arm_math.h ****    * @brief Processing function for the floating-point Biquad cascade filter.
1342:..\CMSIS_DSP_LIB\Include/arm_math.h ****    * @param[in]  S          points to an instance of the floating-point Biquad cascade structure.
1343:..\CMSIS_DSP_LIB\Include/arm_math.h ****    * @param[in]  pSrc       points to the block of input data.
1344:..\CMSIS_DSP_LIB\Include/arm_math.h ****    * @param[out] pDst       points to the block of output data.
1345:..\CMSIS_DSP_LIB\Include/arm_math.h ****    * @param[in]  blockSize  number of samples to process.
1346:..\CMSIS_DSP_LIB\Include/arm_math.h ****    */
ARM GAS  C:\Users\koseki\AppData\Local\Temp\ccPCtr5f.s 			page 47


1347:..\CMSIS_DSP_LIB\Include/arm_math.h ****   void arm_biquad_cascade_df1_f32(
1348:..\CMSIS_DSP_LIB\Include/arm_math.h ****   const arm_biquad_casd_df1_inst_f32 * S,
1349:..\CMSIS_DSP_LIB\Include/arm_math.h ****   float32_t * pSrc,
1350:..\CMSIS_DSP_LIB\Include/arm_math.h ****   float32_t * pDst,
1351:..\CMSIS_DSP_LIB\Include/arm_math.h ****   uint32_t blockSize);
1352:..\CMSIS_DSP_LIB\Include/arm_math.h **** 
1353:..\CMSIS_DSP_LIB\Include/arm_math.h **** 
1354:..\CMSIS_DSP_LIB\Include/arm_math.h ****   /**
1355:..\CMSIS_DSP_LIB\Include/arm_math.h ****    * @brief  Initialization function for the floating-point Biquad cascade filter.
1356:..\CMSIS_DSP_LIB\Include/arm_math.h ****    * @param[in,out] S          points to an instance of the floating-point Biquad cascade structure
1357:..\CMSIS_DSP_LIB\Include/arm_math.h ****    * @param[in]     numStages  number of 2nd order stages in the filter.
1358:..\CMSIS_DSP_LIB\Include/arm_math.h ****    * @param[in]     pCoeffs    points to the filter coefficients.
1359:..\CMSIS_DSP_LIB\Include/arm_math.h ****    * @param[in]     pState     points to the state buffer.
1360:..\CMSIS_DSP_LIB\Include/arm_math.h ****    */
1361:..\CMSIS_DSP_LIB\Include/arm_math.h ****   void arm_biquad_cascade_df1_init_f32(
1362:..\CMSIS_DSP_LIB\Include/arm_math.h ****   arm_biquad_casd_df1_inst_f32 * S,
1363:..\CMSIS_DSP_LIB\Include/arm_math.h ****   uint8_t numStages,
1364:..\CMSIS_DSP_LIB\Include/arm_math.h ****   float32_t * pCoeffs,
1365:..\CMSIS_DSP_LIB\Include/arm_math.h ****   float32_t * pState);
1366:..\CMSIS_DSP_LIB\Include/arm_math.h **** 
1367:..\CMSIS_DSP_LIB\Include/arm_math.h **** 
1368:..\CMSIS_DSP_LIB\Include/arm_math.h ****   /**
1369:..\CMSIS_DSP_LIB\Include/arm_math.h ****    * @brief Instance structure for the floating-point matrix structure.
1370:..\CMSIS_DSP_LIB\Include/arm_math.h ****    */
1371:..\CMSIS_DSP_LIB\Include/arm_math.h ****   typedef struct
1372:..\CMSIS_DSP_LIB\Include/arm_math.h ****   {
1373:..\CMSIS_DSP_LIB\Include/arm_math.h ****     uint16_t numRows;     /**< number of rows of the matrix.     */
1374:..\CMSIS_DSP_LIB\Include/arm_math.h ****     uint16_t numCols;     /**< number of columns of the matrix.  */
1375:..\CMSIS_DSP_LIB\Include/arm_math.h ****     float32_t *pData;     /**< points to the data of the matrix. */
1376:..\CMSIS_DSP_LIB\Include/arm_math.h ****   } arm_matrix_instance_f32;
1377:..\CMSIS_DSP_LIB\Include/arm_math.h **** 
1378:..\CMSIS_DSP_LIB\Include/arm_math.h **** 
1379:..\CMSIS_DSP_LIB\Include/arm_math.h ****   /**
1380:..\CMSIS_DSP_LIB\Include/arm_math.h ****    * @brief Instance structure for the floating-point matrix structure.
1381:..\CMSIS_DSP_LIB\Include/arm_math.h ****    */
1382:..\CMSIS_DSP_LIB\Include/arm_math.h ****   typedef struct
1383:..\CMSIS_DSP_LIB\Include/arm_math.h ****   {
1384:..\CMSIS_DSP_LIB\Include/arm_math.h ****     uint16_t numRows;     /**< number of rows of the matrix.     */
1385:..\CMSIS_DSP_LIB\Include/arm_math.h ****     uint16_t numCols;     /**< number of columns of the matrix.  */
1386:..\CMSIS_DSP_LIB\Include/arm_math.h ****     float64_t *pData;     /**< points to the data of the matrix. */
1387:..\CMSIS_DSP_LIB\Include/arm_math.h ****   } arm_matrix_instance_f64;
1388:..\CMSIS_DSP_LIB\Include/arm_math.h **** 
1389:..\CMSIS_DSP_LIB\Include/arm_math.h ****   /**
1390:..\CMSIS_DSP_LIB\Include/arm_math.h ****    * @brief Instance structure for the Q15 matrix structure.
1391:..\CMSIS_DSP_LIB\Include/arm_math.h ****    */
1392:..\CMSIS_DSP_LIB\Include/arm_math.h ****   typedef struct
1393:..\CMSIS_DSP_LIB\Include/arm_math.h ****   {
1394:..\CMSIS_DSP_LIB\Include/arm_math.h ****     uint16_t numRows;     /**< number of rows of the matrix.     */
1395:..\CMSIS_DSP_LIB\Include/arm_math.h ****     uint16_t numCols;     /**< number of columns of the matrix.  */
1396:..\CMSIS_DSP_LIB\Include/arm_math.h ****     q15_t *pData;         /**< points to the data of the matrix. */
1397:..\CMSIS_DSP_LIB\Include/arm_math.h ****   } arm_matrix_instance_q15;
1398:..\CMSIS_DSP_LIB\Include/arm_math.h **** 
1399:..\CMSIS_DSP_LIB\Include/arm_math.h ****   /**
1400:..\CMSIS_DSP_LIB\Include/arm_math.h ****    * @brief Instance structure for the Q31 matrix structure.
1401:..\CMSIS_DSP_LIB\Include/arm_math.h ****    */
1402:..\CMSIS_DSP_LIB\Include/arm_math.h ****   typedef struct
1403:..\CMSIS_DSP_LIB\Include/arm_math.h ****   {
ARM GAS  C:\Users\koseki\AppData\Local\Temp\ccPCtr5f.s 			page 48


1404:..\CMSIS_DSP_LIB\Include/arm_math.h ****     uint16_t numRows;     /**< number of rows of the matrix.     */
1405:..\CMSIS_DSP_LIB\Include/arm_math.h ****     uint16_t numCols;     /**< number of columns of the matrix.  */
1406:..\CMSIS_DSP_LIB\Include/arm_math.h ****     q31_t *pData;         /**< points to the data of the matrix. */
1407:..\CMSIS_DSP_LIB\Include/arm_math.h ****   } arm_matrix_instance_q31;
1408:..\CMSIS_DSP_LIB\Include/arm_math.h **** 
1409:..\CMSIS_DSP_LIB\Include/arm_math.h **** 
1410:..\CMSIS_DSP_LIB\Include/arm_math.h ****   /**
1411:..\CMSIS_DSP_LIB\Include/arm_math.h ****    * @brief Floating-point matrix addition.
1412:..\CMSIS_DSP_LIB\Include/arm_math.h ****    * @param[in]  pSrcA  points to the first input matrix structure
1413:..\CMSIS_DSP_LIB\Include/arm_math.h ****    * @param[in]  pSrcB  points to the second input matrix structure
1414:..\CMSIS_DSP_LIB\Include/arm_math.h ****    * @param[out] pDst   points to output matrix structure
1415:..\CMSIS_DSP_LIB\Include/arm_math.h ****    * @return     The function returns either
1416:..\CMSIS_DSP_LIB\Include/arm_math.h ****    * <code>ARM_MATH_SIZE_MISMATCH</code> or <code>ARM_MATH_SUCCESS</code> based on the outcome of s
1417:..\CMSIS_DSP_LIB\Include/arm_math.h ****    */
1418:..\CMSIS_DSP_LIB\Include/arm_math.h ****   arm_status arm_mat_add_f32(
1419:..\CMSIS_DSP_LIB\Include/arm_math.h ****   const arm_matrix_instance_f32 * pSrcA,
1420:..\CMSIS_DSP_LIB\Include/arm_math.h ****   const arm_matrix_instance_f32 * pSrcB,
1421:..\CMSIS_DSP_LIB\Include/arm_math.h ****   arm_matrix_instance_f32 * pDst);
1422:..\CMSIS_DSP_LIB\Include/arm_math.h **** 
1423:..\CMSIS_DSP_LIB\Include/arm_math.h **** 
1424:..\CMSIS_DSP_LIB\Include/arm_math.h ****   /**
1425:..\CMSIS_DSP_LIB\Include/arm_math.h ****    * @brief Q15 matrix addition.
1426:..\CMSIS_DSP_LIB\Include/arm_math.h ****    * @param[in]   pSrcA  points to the first input matrix structure
1427:..\CMSIS_DSP_LIB\Include/arm_math.h ****    * @param[in]   pSrcB  points to the second input matrix structure
1428:..\CMSIS_DSP_LIB\Include/arm_math.h ****    * @param[out]  pDst   points to output matrix structure
1429:..\CMSIS_DSP_LIB\Include/arm_math.h ****    * @return     The function returns either
1430:..\CMSIS_DSP_LIB\Include/arm_math.h ****    * <code>ARM_MATH_SIZE_MISMATCH</code> or <code>ARM_MATH_SUCCESS</code> based on the outcome of s
1431:..\CMSIS_DSP_LIB\Include/arm_math.h ****    */
1432:..\CMSIS_DSP_LIB\Include/arm_math.h ****   arm_status arm_mat_add_q15(
1433:..\CMSIS_DSP_LIB\Include/arm_math.h ****   const arm_matrix_instance_q15 * pSrcA,
1434:..\CMSIS_DSP_LIB\Include/arm_math.h ****   const arm_matrix_instance_q15 * pSrcB,
1435:..\CMSIS_DSP_LIB\Include/arm_math.h ****   arm_matrix_instance_q15 * pDst);
1436:..\CMSIS_DSP_LIB\Include/arm_math.h **** 
1437:..\CMSIS_DSP_LIB\Include/arm_math.h **** 
1438:..\CMSIS_DSP_LIB\Include/arm_math.h ****   /**
1439:..\CMSIS_DSP_LIB\Include/arm_math.h ****    * @brief Q31 matrix addition.
1440:..\CMSIS_DSP_LIB\Include/arm_math.h ****    * @param[in]  pSrcA  points to the first input matrix structure
1441:..\CMSIS_DSP_LIB\Include/arm_math.h ****    * @param[in]  pSrcB  points to the second input matrix structure
1442:..\CMSIS_DSP_LIB\Include/arm_math.h ****    * @param[out] pDst   points to output matrix structure
1443:..\CMSIS_DSP_LIB\Include/arm_math.h ****    * @return     The function returns either
1444:..\CMSIS_DSP_LIB\Include/arm_math.h ****    * <code>ARM_MATH_SIZE_MISMATCH</code> or <code>ARM_MATH_SUCCESS</code> based on the outcome of s
1445:..\CMSIS_DSP_LIB\Include/arm_math.h ****    */
1446:..\CMSIS_DSP_LIB\Include/arm_math.h ****   arm_status arm_mat_add_q31(
1447:..\CMSIS_DSP_LIB\Include/arm_math.h ****   const arm_matrix_instance_q31 * pSrcA,
1448:..\CMSIS_DSP_LIB\Include/arm_math.h ****   const arm_matrix_instance_q31 * pSrcB,
1449:..\CMSIS_DSP_LIB\Include/arm_math.h ****   arm_matrix_instance_q31 * pDst);
1450:..\CMSIS_DSP_LIB\Include/arm_math.h **** 
1451:..\CMSIS_DSP_LIB\Include/arm_math.h **** 
1452:..\CMSIS_DSP_LIB\Include/arm_math.h ****   /**
1453:..\CMSIS_DSP_LIB\Include/arm_math.h ****    * @brief Floating-point, complex, matrix multiplication.
1454:..\CMSIS_DSP_LIB\Include/arm_math.h ****    * @param[in]  pSrcA  points to the first input matrix structure
1455:..\CMSIS_DSP_LIB\Include/arm_math.h ****    * @param[in]  pSrcB  points to the second input matrix structure
1456:..\CMSIS_DSP_LIB\Include/arm_math.h ****    * @param[out] pDst   points to output matrix structure
1457:..\CMSIS_DSP_LIB\Include/arm_math.h ****    * @return     The function returns either
1458:..\CMSIS_DSP_LIB\Include/arm_math.h ****    * <code>ARM_MATH_SIZE_MISMATCH</code> or <code>ARM_MATH_SUCCESS</code> based on the outcome of s
1459:..\CMSIS_DSP_LIB\Include/arm_math.h ****    */
1460:..\CMSIS_DSP_LIB\Include/arm_math.h ****   arm_status arm_mat_cmplx_mult_f32(
ARM GAS  C:\Users\koseki\AppData\Local\Temp\ccPCtr5f.s 			page 49


1461:..\CMSIS_DSP_LIB\Include/arm_math.h ****   const arm_matrix_instance_f32 * pSrcA,
1462:..\CMSIS_DSP_LIB\Include/arm_math.h ****   const arm_matrix_instance_f32 * pSrcB,
1463:..\CMSIS_DSP_LIB\Include/arm_math.h ****   arm_matrix_instance_f32 * pDst);
1464:..\CMSIS_DSP_LIB\Include/arm_math.h **** 
1465:..\CMSIS_DSP_LIB\Include/arm_math.h **** 
1466:..\CMSIS_DSP_LIB\Include/arm_math.h ****   /**
1467:..\CMSIS_DSP_LIB\Include/arm_math.h ****    * @brief Q15, complex,  matrix multiplication.
1468:..\CMSIS_DSP_LIB\Include/arm_math.h ****    * @param[in]  pSrcA  points to the first input matrix structure
1469:..\CMSIS_DSP_LIB\Include/arm_math.h ****    * @param[in]  pSrcB  points to the second input matrix structure
1470:..\CMSIS_DSP_LIB\Include/arm_math.h ****    * @param[out] pDst   points to output matrix structure
1471:..\CMSIS_DSP_LIB\Include/arm_math.h ****    * @return     The function returns either
1472:..\CMSIS_DSP_LIB\Include/arm_math.h ****    * <code>ARM_MATH_SIZE_MISMATCH</code> or <code>ARM_MATH_SUCCESS</code> based on the outcome of s
1473:..\CMSIS_DSP_LIB\Include/arm_math.h ****    */
1474:..\CMSIS_DSP_LIB\Include/arm_math.h ****   arm_status arm_mat_cmplx_mult_q15(
1475:..\CMSIS_DSP_LIB\Include/arm_math.h ****   const arm_matrix_instance_q15 * pSrcA,
1476:..\CMSIS_DSP_LIB\Include/arm_math.h ****   const arm_matrix_instance_q15 * pSrcB,
1477:..\CMSIS_DSP_LIB\Include/arm_math.h ****   arm_matrix_instance_q15 * pDst,
1478:..\CMSIS_DSP_LIB\Include/arm_math.h ****   q15_t * pScratch);
1479:..\CMSIS_DSP_LIB\Include/arm_math.h **** 
1480:..\CMSIS_DSP_LIB\Include/arm_math.h **** 
1481:..\CMSIS_DSP_LIB\Include/arm_math.h ****   /**
1482:..\CMSIS_DSP_LIB\Include/arm_math.h ****    * @brief Q31, complex, matrix multiplication.
1483:..\CMSIS_DSP_LIB\Include/arm_math.h ****    * @param[in]  pSrcA  points to the first input matrix structure
1484:..\CMSIS_DSP_LIB\Include/arm_math.h ****    * @param[in]  pSrcB  points to the second input matrix structure
1485:..\CMSIS_DSP_LIB\Include/arm_math.h ****    * @param[out] pDst   points to output matrix structure
1486:..\CMSIS_DSP_LIB\Include/arm_math.h ****    * @return     The function returns either
1487:..\CMSIS_DSP_LIB\Include/arm_math.h ****    * <code>ARM_MATH_SIZE_MISMATCH</code> or <code>ARM_MATH_SUCCESS</code> based on the outcome of s
1488:..\CMSIS_DSP_LIB\Include/arm_math.h ****    */
1489:..\CMSIS_DSP_LIB\Include/arm_math.h ****   arm_status arm_mat_cmplx_mult_q31(
1490:..\CMSIS_DSP_LIB\Include/arm_math.h ****   const arm_matrix_instance_q31 * pSrcA,
1491:..\CMSIS_DSP_LIB\Include/arm_math.h ****   const arm_matrix_instance_q31 * pSrcB,
1492:..\CMSIS_DSP_LIB\Include/arm_math.h ****   arm_matrix_instance_q31 * pDst);
1493:..\CMSIS_DSP_LIB\Include/arm_math.h **** 
1494:..\CMSIS_DSP_LIB\Include/arm_math.h **** 
1495:..\CMSIS_DSP_LIB\Include/arm_math.h ****   /**
1496:..\CMSIS_DSP_LIB\Include/arm_math.h ****    * @brief Floating-point matrix transpose.
1497:..\CMSIS_DSP_LIB\Include/arm_math.h ****    * @param[in]  pSrc  points to the input matrix
1498:..\CMSIS_DSP_LIB\Include/arm_math.h ****    * @param[out] pDst  points to the output matrix
1499:..\CMSIS_DSP_LIB\Include/arm_math.h ****    * @return    The function returns either  <code>ARM_MATH_SIZE_MISMATCH</code>
1500:..\CMSIS_DSP_LIB\Include/arm_math.h ****    * or <code>ARM_MATH_SUCCESS</code> based on the outcome of size checking.
1501:..\CMSIS_DSP_LIB\Include/arm_math.h ****    */
1502:..\CMSIS_DSP_LIB\Include/arm_math.h ****   arm_status arm_mat_trans_f32(
1503:..\CMSIS_DSP_LIB\Include/arm_math.h ****   const arm_matrix_instance_f32 * pSrc,
1504:..\CMSIS_DSP_LIB\Include/arm_math.h ****   arm_matrix_instance_f32 * pDst);
1505:..\CMSIS_DSP_LIB\Include/arm_math.h **** 
1506:..\CMSIS_DSP_LIB\Include/arm_math.h **** 
1507:..\CMSIS_DSP_LIB\Include/arm_math.h ****   /**
1508:..\CMSIS_DSP_LIB\Include/arm_math.h ****    * @brief Q15 matrix transpose.
1509:..\CMSIS_DSP_LIB\Include/arm_math.h ****    * @param[in]  pSrc  points to the input matrix
1510:..\CMSIS_DSP_LIB\Include/arm_math.h ****    * @param[out] pDst  points to the output matrix
1511:..\CMSIS_DSP_LIB\Include/arm_math.h ****    * @return    The function returns either  <code>ARM_MATH_SIZE_MISMATCH</code>
1512:..\CMSIS_DSP_LIB\Include/arm_math.h ****    * or <code>ARM_MATH_SUCCESS</code> based on the outcome of size checking.
1513:..\CMSIS_DSP_LIB\Include/arm_math.h ****    */
1514:..\CMSIS_DSP_LIB\Include/arm_math.h ****   arm_status arm_mat_trans_q15(
1515:..\CMSIS_DSP_LIB\Include/arm_math.h ****   const arm_matrix_instance_q15 * pSrc,
1516:..\CMSIS_DSP_LIB\Include/arm_math.h ****   arm_matrix_instance_q15 * pDst);
1517:..\CMSIS_DSP_LIB\Include/arm_math.h **** 
ARM GAS  C:\Users\koseki\AppData\Local\Temp\ccPCtr5f.s 			page 50


1518:..\CMSIS_DSP_LIB\Include/arm_math.h **** 
1519:..\CMSIS_DSP_LIB\Include/arm_math.h ****   /**
1520:..\CMSIS_DSP_LIB\Include/arm_math.h ****    * @brief Q31 matrix transpose.
1521:..\CMSIS_DSP_LIB\Include/arm_math.h ****    * @param[in]  pSrc  points to the input matrix
1522:..\CMSIS_DSP_LIB\Include/arm_math.h ****    * @param[out] pDst  points to the output matrix
1523:..\CMSIS_DSP_LIB\Include/arm_math.h ****    * @return    The function returns either  <code>ARM_MATH_SIZE_MISMATCH</code>
1524:..\CMSIS_DSP_LIB\Include/arm_math.h ****    * or <code>ARM_MATH_SUCCESS</code> based on the outcome of size checking.
1525:..\CMSIS_DSP_LIB\Include/arm_math.h ****    */
1526:..\CMSIS_DSP_LIB\Include/arm_math.h ****   arm_status arm_mat_trans_q31(
1527:..\CMSIS_DSP_LIB\Include/arm_math.h ****   const arm_matrix_instance_q31 * pSrc,
1528:..\CMSIS_DSP_LIB\Include/arm_math.h ****   arm_matrix_instance_q31 * pDst);
1529:..\CMSIS_DSP_LIB\Include/arm_math.h **** 
1530:..\CMSIS_DSP_LIB\Include/arm_math.h **** 
1531:..\CMSIS_DSP_LIB\Include/arm_math.h ****   /**
1532:..\CMSIS_DSP_LIB\Include/arm_math.h ****    * @brief Floating-point matrix multiplication
1533:..\CMSIS_DSP_LIB\Include/arm_math.h ****    * @param[in]  pSrcA  points to the first input matrix structure
1534:..\CMSIS_DSP_LIB\Include/arm_math.h ****    * @param[in]  pSrcB  points to the second input matrix structure
1535:..\CMSIS_DSP_LIB\Include/arm_math.h ****    * @param[out] pDst   points to output matrix structure
1536:..\CMSIS_DSP_LIB\Include/arm_math.h ****    * @return     The function returns either
1537:..\CMSIS_DSP_LIB\Include/arm_math.h ****    * <code>ARM_MATH_SIZE_MISMATCH</code> or <code>ARM_MATH_SUCCESS</code> based on the outcome of s
1538:..\CMSIS_DSP_LIB\Include/arm_math.h ****    */
1539:..\CMSIS_DSP_LIB\Include/arm_math.h ****   arm_status arm_mat_mult_f32(
1540:..\CMSIS_DSP_LIB\Include/arm_math.h ****   const arm_matrix_instance_f32 * pSrcA,
1541:..\CMSIS_DSP_LIB\Include/arm_math.h ****   const arm_matrix_instance_f32 * pSrcB,
1542:..\CMSIS_DSP_LIB\Include/arm_math.h ****   arm_matrix_instance_f32 * pDst);
1543:..\CMSIS_DSP_LIB\Include/arm_math.h **** 
1544:..\CMSIS_DSP_LIB\Include/arm_math.h **** 
1545:..\CMSIS_DSP_LIB\Include/arm_math.h ****   /**
1546:..\CMSIS_DSP_LIB\Include/arm_math.h ****    * @brief Q15 matrix multiplication
1547:..\CMSIS_DSP_LIB\Include/arm_math.h ****    * @param[in]  pSrcA   points to the first input matrix structure
1548:..\CMSIS_DSP_LIB\Include/arm_math.h ****    * @param[in]  pSrcB   points to the second input matrix structure
1549:..\CMSIS_DSP_LIB\Include/arm_math.h ****    * @param[out] pDst    points to output matrix structure
1550:..\CMSIS_DSP_LIB\Include/arm_math.h ****    * @param[in]  pState  points to the array for storing intermediate results
1551:..\CMSIS_DSP_LIB\Include/arm_math.h ****    * @return     The function returns either
1552:..\CMSIS_DSP_LIB\Include/arm_math.h ****    * <code>ARM_MATH_SIZE_MISMATCH</code> or <code>ARM_MATH_SUCCESS</code> based on the outcome of s
1553:..\CMSIS_DSP_LIB\Include/arm_math.h ****    */
1554:..\CMSIS_DSP_LIB\Include/arm_math.h ****   arm_status arm_mat_mult_q15(
1555:..\CMSIS_DSP_LIB\Include/arm_math.h ****   const arm_matrix_instance_q15 * pSrcA,
1556:..\CMSIS_DSP_LIB\Include/arm_math.h ****   const arm_matrix_instance_q15 * pSrcB,
1557:..\CMSIS_DSP_LIB\Include/arm_math.h ****   arm_matrix_instance_q15 * pDst,
1558:..\CMSIS_DSP_LIB\Include/arm_math.h ****   q15_t * pState);
1559:..\CMSIS_DSP_LIB\Include/arm_math.h **** 
1560:..\CMSIS_DSP_LIB\Include/arm_math.h **** 
1561:..\CMSIS_DSP_LIB\Include/arm_math.h ****   /**
1562:..\CMSIS_DSP_LIB\Include/arm_math.h ****    * @brief Q15 matrix multiplication (fast variant) for Cortex-M3 and Cortex-M4
1563:..\CMSIS_DSP_LIB\Include/arm_math.h ****    * @param[in]  pSrcA   points to the first input matrix structure
1564:..\CMSIS_DSP_LIB\Include/arm_math.h ****    * @param[in]  pSrcB   points to the second input matrix structure
1565:..\CMSIS_DSP_LIB\Include/arm_math.h ****    * @param[out] pDst    points to output matrix structure
1566:..\CMSIS_DSP_LIB\Include/arm_math.h ****    * @param[in]  pState  points to the array for storing intermediate results
1567:..\CMSIS_DSP_LIB\Include/arm_math.h ****    * @return     The function returns either
1568:..\CMSIS_DSP_LIB\Include/arm_math.h ****    * <code>ARM_MATH_SIZE_MISMATCH</code> or <code>ARM_MATH_SUCCESS</code> based on the outcome of s
1569:..\CMSIS_DSP_LIB\Include/arm_math.h ****    */
1570:..\CMSIS_DSP_LIB\Include/arm_math.h ****   arm_status arm_mat_mult_fast_q15(
1571:..\CMSIS_DSP_LIB\Include/arm_math.h ****   const arm_matrix_instance_q15 * pSrcA,
1572:..\CMSIS_DSP_LIB\Include/arm_math.h ****   const arm_matrix_instance_q15 * pSrcB,
1573:..\CMSIS_DSP_LIB\Include/arm_math.h ****   arm_matrix_instance_q15 * pDst,
1574:..\CMSIS_DSP_LIB\Include/arm_math.h ****   q15_t * pState);
ARM GAS  C:\Users\koseki\AppData\Local\Temp\ccPCtr5f.s 			page 51


1575:..\CMSIS_DSP_LIB\Include/arm_math.h **** 
1576:..\CMSIS_DSP_LIB\Include/arm_math.h **** 
1577:..\CMSIS_DSP_LIB\Include/arm_math.h ****   /**
1578:..\CMSIS_DSP_LIB\Include/arm_math.h ****    * @brief Q31 matrix multiplication
1579:..\CMSIS_DSP_LIB\Include/arm_math.h ****    * @param[in]  pSrcA  points to the first input matrix structure
1580:..\CMSIS_DSP_LIB\Include/arm_math.h ****    * @param[in]  pSrcB  points to the second input matrix structure
1581:..\CMSIS_DSP_LIB\Include/arm_math.h ****    * @param[out] pDst   points to output matrix structure
1582:..\CMSIS_DSP_LIB\Include/arm_math.h ****    * @return     The function returns either
1583:..\CMSIS_DSP_LIB\Include/arm_math.h ****    * <code>ARM_MATH_SIZE_MISMATCH</code> or <code>ARM_MATH_SUCCESS</code> based on the outcome of s
1584:..\CMSIS_DSP_LIB\Include/arm_math.h ****    */
1585:..\CMSIS_DSP_LIB\Include/arm_math.h ****   arm_status arm_mat_mult_q31(
1586:..\CMSIS_DSP_LIB\Include/arm_math.h ****   const arm_matrix_instance_q31 * pSrcA,
1587:..\CMSIS_DSP_LIB\Include/arm_math.h ****   const arm_matrix_instance_q31 * pSrcB,
1588:..\CMSIS_DSP_LIB\Include/arm_math.h ****   arm_matrix_instance_q31 * pDst);
1589:..\CMSIS_DSP_LIB\Include/arm_math.h **** 
1590:..\CMSIS_DSP_LIB\Include/arm_math.h **** 
1591:..\CMSIS_DSP_LIB\Include/arm_math.h ****   /**
1592:..\CMSIS_DSP_LIB\Include/arm_math.h ****    * @brief Q31 matrix multiplication (fast variant) for Cortex-M3 and Cortex-M4
1593:..\CMSIS_DSP_LIB\Include/arm_math.h ****    * @param[in]  pSrcA  points to the first input matrix structure
1594:..\CMSIS_DSP_LIB\Include/arm_math.h ****    * @param[in]  pSrcB  points to the second input matrix structure
1595:..\CMSIS_DSP_LIB\Include/arm_math.h ****    * @param[out] pDst   points to output matrix structure
1596:..\CMSIS_DSP_LIB\Include/arm_math.h ****    * @return     The function returns either
1597:..\CMSIS_DSP_LIB\Include/arm_math.h ****    * <code>ARM_MATH_SIZE_MISMATCH</code> or <code>ARM_MATH_SUCCESS</code> based on the outcome of s
1598:..\CMSIS_DSP_LIB\Include/arm_math.h ****    */
1599:..\CMSIS_DSP_LIB\Include/arm_math.h ****   arm_status arm_mat_mult_fast_q31(
1600:..\CMSIS_DSP_LIB\Include/arm_math.h ****   const arm_matrix_instance_q31 * pSrcA,
1601:..\CMSIS_DSP_LIB\Include/arm_math.h ****   const arm_matrix_instance_q31 * pSrcB,
1602:..\CMSIS_DSP_LIB\Include/arm_math.h ****   arm_matrix_instance_q31 * pDst);
1603:..\CMSIS_DSP_LIB\Include/arm_math.h **** 
1604:..\CMSIS_DSP_LIB\Include/arm_math.h **** 
1605:..\CMSIS_DSP_LIB\Include/arm_math.h ****   /**
1606:..\CMSIS_DSP_LIB\Include/arm_math.h ****    * @brief Floating-point matrix subtraction
1607:..\CMSIS_DSP_LIB\Include/arm_math.h ****    * @param[in]  pSrcA  points to the first input matrix structure
1608:..\CMSIS_DSP_LIB\Include/arm_math.h ****    * @param[in]  pSrcB  points to the second input matrix structure
1609:..\CMSIS_DSP_LIB\Include/arm_math.h ****    * @param[out] pDst   points to output matrix structure
1610:..\CMSIS_DSP_LIB\Include/arm_math.h ****    * @return     The function returns either
1611:..\CMSIS_DSP_LIB\Include/arm_math.h ****    * <code>ARM_MATH_SIZE_MISMATCH</code> or <code>ARM_MATH_SUCCESS</code> based on the outcome of s
1612:..\CMSIS_DSP_LIB\Include/arm_math.h ****    */
1613:..\CMSIS_DSP_LIB\Include/arm_math.h ****   arm_status arm_mat_sub_f32(
1614:..\CMSIS_DSP_LIB\Include/arm_math.h ****   const arm_matrix_instance_f32 * pSrcA,
1615:..\CMSIS_DSP_LIB\Include/arm_math.h ****   const arm_matrix_instance_f32 * pSrcB,
1616:..\CMSIS_DSP_LIB\Include/arm_math.h ****   arm_matrix_instance_f32 * pDst);
1617:..\CMSIS_DSP_LIB\Include/arm_math.h **** 
1618:..\CMSIS_DSP_LIB\Include/arm_math.h **** 
1619:..\CMSIS_DSP_LIB\Include/arm_math.h ****   /**
1620:..\CMSIS_DSP_LIB\Include/arm_math.h ****    * @brief Q15 matrix subtraction
1621:..\CMSIS_DSP_LIB\Include/arm_math.h ****    * @param[in]  pSrcA  points to the first input matrix structure
1622:..\CMSIS_DSP_LIB\Include/arm_math.h ****    * @param[in]  pSrcB  points to the second input matrix structure
1623:..\CMSIS_DSP_LIB\Include/arm_math.h ****    * @param[out] pDst   points to output matrix structure
1624:..\CMSIS_DSP_LIB\Include/arm_math.h ****    * @return     The function returns either
1625:..\CMSIS_DSP_LIB\Include/arm_math.h ****    * <code>ARM_MATH_SIZE_MISMATCH</code> or <code>ARM_MATH_SUCCESS</code> based on the outcome of s
1626:..\CMSIS_DSP_LIB\Include/arm_math.h ****    */
1627:..\CMSIS_DSP_LIB\Include/arm_math.h ****   arm_status arm_mat_sub_q15(
1628:..\CMSIS_DSP_LIB\Include/arm_math.h ****   const arm_matrix_instance_q15 * pSrcA,
1629:..\CMSIS_DSP_LIB\Include/arm_math.h ****   const arm_matrix_instance_q15 * pSrcB,
1630:..\CMSIS_DSP_LIB\Include/arm_math.h ****   arm_matrix_instance_q15 * pDst);
1631:..\CMSIS_DSP_LIB\Include/arm_math.h **** 
ARM GAS  C:\Users\koseki\AppData\Local\Temp\ccPCtr5f.s 			page 52


1632:..\CMSIS_DSP_LIB\Include/arm_math.h **** 
1633:..\CMSIS_DSP_LIB\Include/arm_math.h ****   /**
1634:..\CMSIS_DSP_LIB\Include/arm_math.h ****    * @brief Q31 matrix subtraction
1635:..\CMSIS_DSP_LIB\Include/arm_math.h ****    * @param[in]  pSrcA  points to the first input matrix structure
1636:..\CMSIS_DSP_LIB\Include/arm_math.h ****    * @param[in]  pSrcB  points to the second input matrix structure
1637:..\CMSIS_DSP_LIB\Include/arm_math.h ****    * @param[out] pDst   points to output matrix structure
1638:..\CMSIS_DSP_LIB\Include/arm_math.h ****    * @return     The function returns either
1639:..\CMSIS_DSP_LIB\Include/arm_math.h ****    * <code>ARM_MATH_SIZE_MISMATCH</code> or <code>ARM_MATH_SUCCESS</code> based on the outcome of s
1640:..\CMSIS_DSP_LIB\Include/arm_math.h ****    */
1641:..\CMSIS_DSP_LIB\Include/arm_math.h ****   arm_status arm_mat_sub_q31(
1642:..\CMSIS_DSP_LIB\Include/arm_math.h ****   const arm_matrix_instance_q31 * pSrcA,
1643:..\CMSIS_DSP_LIB\Include/arm_math.h ****   const arm_matrix_instance_q31 * pSrcB,
1644:..\CMSIS_DSP_LIB\Include/arm_math.h ****   arm_matrix_instance_q31 * pDst);
1645:..\CMSIS_DSP_LIB\Include/arm_math.h **** 
1646:..\CMSIS_DSP_LIB\Include/arm_math.h **** 
1647:..\CMSIS_DSP_LIB\Include/arm_math.h ****   /**
1648:..\CMSIS_DSP_LIB\Include/arm_math.h ****    * @brief Floating-point matrix scaling.
1649:..\CMSIS_DSP_LIB\Include/arm_math.h ****    * @param[in]  pSrc   points to the input matrix
1650:..\CMSIS_DSP_LIB\Include/arm_math.h ****    * @param[in]  scale  scale factor
1651:..\CMSIS_DSP_LIB\Include/arm_math.h ****    * @param[out] pDst   points to the output matrix
1652:..\CMSIS_DSP_LIB\Include/arm_math.h ****    * @return     The function returns either
1653:..\CMSIS_DSP_LIB\Include/arm_math.h ****    * <code>ARM_MATH_SIZE_MISMATCH</code> or <code>ARM_MATH_SUCCESS</code> based on the outcome of s
1654:..\CMSIS_DSP_LIB\Include/arm_math.h ****    */
1655:..\CMSIS_DSP_LIB\Include/arm_math.h ****   arm_status arm_mat_scale_f32(
1656:..\CMSIS_DSP_LIB\Include/arm_math.h ****   const arm_matrix_instance_f32 * pSrc,
1657:..\CMSIS_DSP_LIB\Include/arm_math.h ****   float32_t scale,
1658:..\CMSIS_DSP_LIB\Include/arm_math.h ****   arm_matrix_instance_f32 * pDst);
1659:..\CMSIS_DSP_LIB\Include/arm_math.h **** 
1660:..\CMSIS_DSP_LIB\Include/arm_math.h **** 
1661:..\CMSIS_DSP_LIB\Include/arm_math.h ****   /**
1662:..\CMSIS_DSP_LIB\Include/arm_math.h ****    * @brief Q15 matrix scaling.
1663:..\CMSIS_DSP_LIB\Include/arm_math.h ****    * @param[in]  pSrc        points to input matrix
1664:..\CMSIS_DSP_LIB\Include/arm_math.h ****    * @param[in]  scaleFract  fractional portion of the scale factor
1665:..\CMSIS_DSP_LIB\Include/arm_math.h ****    * @param[in]  shift       number of bits to shift the result by
1666:..\CMSIS_DSP_LIB\Include/arm_math.h ****    * @param[out] pDst        points to output matrix
1667:..\CMSIS_DSP_LIB\Include/arm_math.h ****    * @return     The function returns either
1668:..\CMSIS_DSP_LIB\Include/arm_math.h ****    * <code>ARM_MATH_SIZE_MISMATCH</code> or <code>ARM_MATH_SUCCESS</code> based on the outcome of s
1669:..\CMSIS_DSP_LIB\Include/arm_math.h ****    */
1670:..\CMSIS_DSP_LIB\Include/arm_math.h ****   arm_status arm_mat_scale_q15(
1671:..\CMSIS_DSP_LIB\Include/arm_math.h ****   const arm_matrix_instance_q15 * pSrc,
1672:..\CMSIS_DSP_LIB\Include/arm_math.h ****   q15_t scaleFract,
1673:..\CMSIS_DSP_LIB\Include/arm_math.h ****   int32_t shift,
1674:..\CMSIS_DSP_LIB\Include/arm_math.h ****   arm_matrix_instance_q15 * pDst);
1675:..\CMSIS_DSP_LIB\Include/arm_math.h **** 
1676:..\CMSIS_DSP_LIB\Include/arm_math.h **** 
1677:..\CMSIS_DSP_LIB\Include/arm_math.h ****   /**
1678:..\CMSIS_DSP_LIB\Include/arm_math.h ****    * @brief Q31 matrix scaling.
1679:..\CMSIS_DSP_LIB\Include/arm_math.h ****    * @param[in]  pSrc        points to input matrix
1680:..\CMSIS_DSP_LIB\Include/arm_math.h ****    * @param[in]  scaleFract  fractional portion of the scale factor
1681:..\CMSIS_DSP_LIB\Include/arm_math.h ****    * @param[in]  shift       number of bits to shift the result by
1682:..\CMSIS_DSP_LIB\Include/arm_math.h ****    * @param[out] pDst        points to output matrix structure
1683:..\CMSIS_DSP_LIB\Include/arm_math.h ****    * @return     The function returns either
1684:..\CMSIS_DSP_LIB\Include/arm_math.h ****    * <code>ARM_MATH_SIZE_MISMATCH</code> or <code>ARM_MATH_SUCCESS</code> based on the outcome of s
1685:..\CMSIS_DSP_LIB\Include/arm_math.h ****    */
1686:..\CMSIS_DSP_LIB\Include/arm_math.h ****   arm_status arm_mat_scale_q31(
1687:..\CMSIS_DSP_LIB\Include/arm_math.h ****   const arm_matrix_instance_q31 * pSrc,
1688:..\CMSIS_DSP_LIB\Include/arm_math.h ****   q31_t scaleFract,
ARM GAS  C:\Users\koseki\AppData\Local\Temp\ccPCtr5f.s 			page 53


1689:..\CMSIS_DSP_LIB\Include/arm_math.h ****   int32_t shift,
1690:..\CMSIS_DSP_LIB\Include/arm_math.h ****   arm_matrix_instance_q31 * pDst);
1691:..\CMSIS_DSP_LIB\Include/arm_math.h **** 
1692:..\CMSIS_DSP_LIB\Include/arm_math.h **** 
1693:..\CMSIS_DSP_LIB\Include/arm_math.h ****   /**
1694:..\CMSIS_DSP_LIB\Include/arm_math.h ****    * @brief  Q31 matrix initialization.
1695:..\CMSIS_DSP_LIB\Include/arm_math.h ****    * @param[in,out] S         points to an instance of the floating-point matrix structure.
1696:..\CMSIS_DSP_LIB\Include/arm_math.h ****    * @param[in]     nRows     number of rows in the matrix.
1697:..\CMSIS_DSP_LIB\Include/arm_math.h ****    * @param[in]     nColumns  number of columns in the matrix.
1698:..\CMSIS_DSP_LIB\Include/arm_math.h ****    * @param[in]     pData     points to the matrix data array.
1699:..\CMSIS_DSP_LIB\Include/arm_math.h ****    */
1700:..\CMSIS_DSP_LIB\Include/arm_math.h ****   void arm_mat_init_q31(
1701:..\CMSIS_DSP_LIB\Include/arm_math.h ****   arm_matrix_instance_q31 * S,
1702:..\CMSIS_DSP_LIB\Include/arm_math.h ****   uint16_t nRows,
1703:..\CMSIS_DSP_LIB\Include/arm_math.h ****   uint16_t nColumns,
1704:..\CMSIS_DSP_LIB\Include/arm_math.h ****   q31_t * pData);
1705:..\CMSIS_DSP_LIB\Include/arm_math.h **** 
1706:..\CMSIS_DSP_LIB\Include/arm_math.h **** 
1707:..\CMSIS_DSP_LIB\Include/arm_math.h ****   /**
1708:..\CMSIS_DSP_LIB\Include/arm_math.h ****    * @brief  Q15 matrix initialization.
1709:..\CMSIS_DSP_LIB\Include/arm_math.h ****    * @param[in,out] S         points to an instance of the floating-point matrix structure.
1710:..\CMSIS_DSP_LIB\Include/arm_math.h ****    * @param[in]     nRows     number of rows in the matrix.
1711:..\CMSIS_DSP_LIB\Include/arm_math.h ****    * @param[in]     nColumns  number of columns in the matrix.
1712:..\CMSIS_DSP_LIB\Include/arm_math.h ****    * @param[in]     pData     points to the matrix data array.
1713:..\CMSIS_DSP_LIB\Include/arm_math.h ****    */
1714:..\CMSIS_DSP_LIB\Include/arm_math.h ****   void arm_mat_init_q15(
1715:..\CMSIS_DSP_LIB\Include/arm_math.h ****   arm_matrix_instance_q15 * S,
1716:..\CMSIS_DSP_LIB\Include/arm_math.h ****   uint16_t nRows,
1717:..\CMSIS_DSP_LIB\Include/arm_math.h ****   uint16_t nColumns,
1718:..\CMSIS_DSP_LIB\Include/arm_math.h ****   q15_t * pData);
1719:..\CMSIS_DSP_LIB\Include/arm_math.h **** 
1720:..\CMSIS_DSP_LIB\Include/arm_math.h **** 
1721:..\CMSIS_DSP_LIB\Include/arm_math.h ****   /**
1722:..\CMSIS_DSP_LIB\Include/arm_math.h ****    * @brief  Floating-point matrix initialization.
1723:..\CMSIS_DSP_LIB\Include/arm_math.h ****    * @param[in,out] S         points to an instance of the floating-point matrix structure.
1724:..\CMSIS_DSP_LIB\Include/arm_math.h ****    * @param[in]     nRows     number of rows in the matrix.
1725:..\CMSIS_DSP_LIB\Include/arm_math.h ****    * @param[in]     nColumns  number of columns in the matrix.
1726:..\CMSIS_DSP_LIB\Include/arm_math.h ****    * @param[in]     pData     points to the matrix data array.
1727:..\CMSIS_DSP_LIB\Include/arm_math.h ****    */
1728:..\CMSIS_DSP_LIB\Include/arm_math.h ****   void arm_mat_init_f32(
1729:..\CMSIS_DSP_LIB\Include/arm_math.h ****   arm_matrix_instance_f32 * S,
1730:..\CMSIS_DSP_LIB\Include/arm_math.h ****   uint16_t nRows,
1731:..\CMSIS_DSP_LIB\Include/arm_math.h ****   uint16_t nColumns,
1732:..\CMSIS_DSP_LIB\Include/arm_math.h ****   float32_t * pData);
1733:..\CMSIS_DSP_LIB\Include/arm_math.h **** 
1734:..\CMSIS_DSP_LIB\Include/arm_math.h **** 
1735:..\CMSIS_DSP_LIB\Include/arm_math.h **** 
1736:..\CMSIS_DSP_LIB\Include/arm_math.h ****   /**
1737:..\CMSIS_DSP_LIB\Include/arm_math.h ****    * @brief Instance structure for the Q15 PID Control.
1738:..\CMSIS_DSP_LIB\Include/arm_math.h ****    */
1739:..\CMSIS_DSP_LIB\Include/arm_math.h ****   typedef struct
1740:..\CMSIS_DSP_LIB\Include/arm_math.h ****   {
1741:..\CMSIS_DSP_LIB\Include/arm_math.h ****     q15_t A0;           /**< The derived gain, A0 = Kp + Ki + Kd . */
1742:..\CMSIS_DSP_LIB\Include/arm_math.h **** #ifdef ARM_MATH_CM0_FAMILY
1743:..\CMSIS_DSP_LIB\Include/arm_math.h ****     q15_t A1;
1744:..\CMSIS_DSP_LIB\Include/arm_math.h ****     q15_t A2;
1745:..\CMSIS_DSP_LIB\Include/arm_math.h **** #else
ARM GAS  C:\Users\koseki\AppData\Local\Temp\ccPCtr5f.s 			page 54


1746:..\CMSIS_DSP_LIB\Include/arm_math.h ****     q31_t A1;           /**< The derived gain A1 = -Kp - 2Kd | Kd.*/
1747:..\CMSIS_DSP_LIB\Include/arm_math.h **** #endif
1748:..\CMSIS_DSP_LIB\Include/arm_math.h ****     q15_t state[3];     /**< The state array of length 3. */
1749:..\CMSIS_DSP_LIB\Include/arm_math.h ****     q15_t Kp;           /**< The proportional gain. */
1750:..\CMSIS_DSP_LIB\Include/arm_math.h ****     q15_t Ki;           /**< The integral gain. */
1751:..\CMSIS_DSP_LIB\Include/arm_math.h ****     q15_t Kd;           /**< The derivative gain. */
1752:..\CMSIS_DSP_LIB\Include/arm_math.h ****   } arm_pid_instance_q15;
1753:..\CMSIS_DSP_LIB\Include/arm_math.h **** 
1754:..\CMSIS_DSP_LIB\Include/arm_math.h ****   /**
1755:..\CMSIS_DSP_LIB\Include/arm_math.h ****    * @brief Instance structure for the Q31 PID Control.
1756:..\CMSIS_DSP_LIB\Include/arm_math.h ****    */
1757:..\CMSIS_DSP_LIB\Include/arm_math.h ****   typedef struct
1758:..\CMSIS_DSP_LIB\Include/arm_math.h ****   {
1759:..\CMSIS_DSP_LIB\Include/arm_math.h ****     q31_t A0;            /**< The derived gain, A0 = Kp + Ki + Kd . */
1760:..\CMSIS_DSP_LIB\Include/arm_math.h ****     q31_t A1;            /**< The derived gain, A1 = -Kp - 2Kd. */
1761:..\CMSIS_DSP_LIB\Include/arm_math.h ****     q31_t A2;            /**< The derived gain, A2 = Kd . */
1762:..\CMSIS_DSP_LIB\Include/arm_math.h ****     q31_t state[3];      /**< The state array of length 3. */
1763:..\CMSIS_DSP_LIB\Include/arm_math.h ****     q31_t Kp;            /**< The proportional gain. */
1764:..\CMSIS_DSP_LIB\Include/arm_math.h ****     q31_t Ki;            /**< The integral gain. */
1765:..\CMSIS_DSP_LIB\Include/arm_math.h ****     q31_t Kd;            /**< The derivative gain. */
1766:..\CMSIS_DSP_LIB\Include/arm_math.h ****   } arm_pid_instance_q31;
1767:..\CMSIS_DSP_LIB\Include/arm_math.h **** 
1768:..\CMSIS_DSP_LIB\Include/arm_math.h ****   /**
1769:..\CMSIS_DSP_LIB\Include/arm_math.h ****    * @brief Instance structure for the floating-point PID Control.
1770:..\CMSIS_DSP_LIB\Include/arm_math.h ****    */
1771:..\CMSIS_DSP_LIB\Include/arm_math.h ****   typedef struct
1772:..\CMSIS_DSP_LIB\Include/arm_math.h ****   {
1773:..\CMSIS_DSP_LIB\Include/arm_math.h ****     float32_t A0;          /**< The derived gain, A0 = Kp + Ki + Kd . */
1774:..\CMSIS_DSP_LIB\Include/arm_math.h ****     float32_t A1;          /**< The derived gain, A1 = -Kp - 2Kd. */
1775:..\CMSIS_DSP_LIB\Include/arm_math.h ****     float32_t A2;          /**< The derived gain, A2 = Kd . */
1776:..\CMSIS_DSP_LIB\Include/arm_math.h ****     float32_t state[3];    /**< The state array of length 3. */
1777:..\CMSIS_DSP_LIB\Include/arm_math.h ****     float32_t Kp;          /**< The proportional gain. */
1778:..\CMSIS_DSP_LIB\Include/arm_math.h ****     float32_t Ki;          /**< The integral gain. */
1779:..\CMSIS_DSP_LIB\Include/arm_math.h ****     float32_t Kd;          /**< The derivative gain. */
1780:..\CMSIS_DSP_LIB\Include/arm_math.h ****   } arm_pid_instance_f32;
1781:..\CMSIS_DSP_LIB\Include/arm_math.h **** 
1782:..\CMSIS_DSP_LIB\Include/arm_math.h **** 
1783:..\CMSIS_DSP_LIB\Include/arm_math.h **** 
1784:..\CMSIS_DSP_LIB\Include/arm_math.h ****   /**
1785:..\CMSIS_DSP_LIB\Include/arm_math.h ****    * @brief  Initialization function for the floating-point PID Control.
1786:..\CMSIS_DSP_LIB\Include/arm_math.h ****    * @param[in,out] S               points to an instance of the PID structure.
1787:..\CMSIS_DSP_LIB\Include/arm_math.h ****    * @param[in]     resetStateFlag  flag to reset the state. 0 = no change in state 1 = reset the s
1788:..\CMSIS_DSP_LIB\Include/arm_math.h ****    */
1789:..\CMSIS_DSP_LIB\Include/arm_math.h ****   void arm_pid_init_f32(
1790:..\CMSIS_DSP_LIB\Include/arm_math.h ****   arm_pid_instance_f32 * S,
1791:..\CMSIS_DSP_LIB\Include/arm_math.h ****   int32_t resetStateFlag);
1792:..\CMSIS_DSP_LIB\Include/arm_math.h **** 
1793:..\CMSIS_DSP_LIB\Include/arm_math.h **** 
1794:..\CMSIS_DSP_LIB\Include/arm_math.h ****   /**
1795:..\CMSIS_DSP_LIB\Include/arm_math.h ****    * @brief  Reset function for the floating-point PID Control.
1796:..\CMSIS_DSP_LIB\Include/arm_math.h ****    * @param[in,out] S  is an instance of the floating-point PID Control structure
1797:..\CMSIS_DSP_LIB\Include/arm_math.h ****    */
1798:..\CMSIS_DSP_LIB\Include/arm_math.h ****   void arm_pid_reset_f32(
1799:..\CMSIS_DSP_LIB\Include/arm_math.h ****   arm_pid_instance_f32 * S);
1800:..\CMSIS_DSP_LIB\Include/arm_math.h **** 
1801:..\CMSIS_DSP_LIB\Include/arm_math.h **** 
1802:..\CMSIS_DSP_LIB\Include/arm_math.h ****   /**
ARM GAS  C:\Users\koseki\AppData\Local\Temp\ccPCtr5f.s 			page 55


1803:..\CMSIS_DSP_LIB\Include/arm_math.h ****    * @brief  Initialization function for the Q31 PID Control.
1804:..\CMSIS_DSP_LIB\Include/arm_math.h ****    * @param[in,out] S               points to an instance of the Q15 PID structure.
1805:..\CMSIS_DSP_LIB\Include/arm_math.h ****    * @param[in]     resetStateFlag  flag to reset the state. 0 = no change in state 1 = reset the s
1806:..\CMSIS_DSP_LIB\Include/arm_math.h ****    */
1807:..\CMSIS_DSP_LIB\Include/arm_math.h ****   void arm_pid_init_q31(
1808:..\CMSIS_DSP_LIB\Include/arm_math.h ****   arm_pid_instance_q31 * S,
1809:..\CMSIS_DSP_LIB\Include/arm_math.h ****   int32_t resetStateFlag);
1810:..\CMSIS_DSP_LIB\Include/arm_math.h **** 
1811:..\CMSIS_DSP_LIB\Include/arm_math.h **** 
1812:..\CMSIS_DSP_LIB\Include/arm_math.h ****   /**
1813:..\CMSIS_DSP_LIB\Include/arm_math.h ****    * @brief  Reset function for the Q31 PID Control.
1814:..\CMSIS_DSP_LIB\Include/arm_math.h ****    * @param[in,out] S   points to an instance of the Q31 PID Control structure
1815:..\CMSIS_DSP_LIB\Include/arm_math.h ****    */
1816:..\CMSIS_DSP_LIB\Include/arm_math.h **** 
1817:..\CMSIS_DSP_LIB\Include/arm_math.h ****   void arm_pid_reset_q31(
1818:..\CMSIS_DSP_LIB\Include/arm_math.h ****   arm_pid_instance_q31 * S);
1819:..\CMSIS_DSP_LIB\Include/arm_math.h **** 
1820:..\CMSIS_DSP_LIB\Include/arm_math.h **** 
1821:..\CMSIS_DSP_LIB\Include/arm_math.h ****   /**
1822:..\CMSIS_DSP_LIB\Include/arm_math.h ****    * @brief  Initialization function for the Q15 PID Control.
1823:..\CMSIS_DSP_LIB\Include/arm_math.h ****    * @param[in,out] S               points to an instance of the Q15 PID structure.
1824:..\CMSIS_DSP_LIB\Include/arm_math.h ****    * @param[in]     resetStateFlag  flag to reset the state. 0 = no change in state 1 = reset the s
1825:..\CMSIS_DSP_LIB\Include/arm_math.h ****    */
1826:..\CMSIS_DSP_LIB\Include/arm_math.h ****   void arm_pid_init_q15(
1827:..\CMSIS_DSP_LIB\Include/arm_math.h ****   arm_pid_instance_q15 * S,
1828:..\CMSIS_DSP_LIB\Include/arm_math.h ****   int32_t resetStateFlag);
1829:..\CMSIS_DSP_LIB\Include/arm_math.h **** 
1830:..\CMSIS_DSP_LIB\Include/arm_math.h **** 
1831:..\CMSIS_DSP_LIB\Include/arm_math.h ****   /**
1832:..\CMSIS_DSP_LIB\Include/arm_math.h ****    * @brief  Reset function for the Q15 PID Control.
1833:..\CMSIS_DSP_LIB\Include/arm_math.h ****    * @param[in,out] S  points to an instance of the q15 PID Control structure
1834:..\CMSIS_DSP_LIB\Include/arm_math.h ****    */
1835:..\CMSIS_DSP_LIB\Include/arm_math.h ****   void arm_pid_reset_q15(
1836:..\CMSIS_DSP_LIB\Include/arm_math.h ****   arm_pid_instance_q15 * S);
1837:..\CMSIS_DSP_LIB\Include/arm_math.h **** 
1838:..\CMSIS_DSP_LIB\Include/arm_math.h **** 
1839:..\CMSIS_DSP_LIB\Include/arm_math.h ****   /**
1840:..\CMSIS_DSP_LIB\Include/arm_math.h ****    * @brief Instance structure for the floating-point Linear Interpolate function.
1841:..\CMSIS_DSP_LIB\Include/arm_math.h ****    */
1842:..\CMSIS_DSP_LIB\Include/arm_math.h ****   typedef struct
1843:..\CMSIS_DSP_LIB\Include/arm_math.h ****   {
1844:..\CMSIS_DSP_LIB\Include/arm_math.h ****     uint32_t nValues;           /**< nValues */
1845:..\CMSIS_DSP_LIB\Include/arm_math.h ****     float32_t x1;               /**< x1 */
1846:..\CMSIS_DSP_LIB\Include/arm_math.h ****     float32_t xSpacing;         /**< xSpacing */
1847:..\CMSIS_DSP_LIB\Include/arm_math.h ****     float32_t *pYData;          /**< pointer to the table of Y values */
1848:..\CMSIS_DSP_LIB\Include/arm_math.h ****   } arm_linear_interp_instance_f32;
1849:..\CMSIS_DSP_LIB\Include/arm_math.h **** 
1850:..\CMSIS_DSP_LIB\Include/arm_math.h ****   /**
1851:..\CMSIS_DSP_LIB\Include/arm_math.h ****    * @brief Instance structure for the floating-point bilinear interpolation function.
1852:..\CMSIS_DSP_LIB\Include/arm_math.h ****    */
1853:..\CMSIS_DSP_LIB\Include/arm_math.h ****   typedef struct
1854:..\CMSIS_DSP_LIB\Include/arm_math.h ****   {
1855:..\CMSIS_DSP_LIB\Include/arm_math.h ****     uint16_t numRows;   /**< number of rows in the data table. */
1856:..\CMSIS_DSP_LIB\Include/arm_math.h ****     uint16_t numCols;   /**< number of columns in the data table. */
1857:..\CMSIS_DSP_LIB\Include/arm_math.h ****     float32_t *pData;   /**< points to the data table. */
1858:..\CMSIS_DSP_LIB\Include/arm_math.h ****   } arm_bilinear_interp_instance_f32;
1859:..\CMSIS_DSP_LIB\Include/arm_math.h **** 
ARM GAS  C:\Users\koseki\AppData\Local\Temp\ccPCtr5f.s 			page 56


1860:..\CMSIS_DSP_LIB\Include/arm_math.h ****    /**
1861:..\CMSIS_DSP_LIB\Include/arm_math.h ****    * @brief Instance structure for the Q31 bilinear interpolation function.
1862:..\CMSIS_DSP_LIB\Include/arm_math.h ****    */
1863:..\CMSIS_DSP_LIB\Include/arm_math.h ****   typedef struct
1864:..\CMSIS_DSP_LIB\Include/arm_math.h ****   {
1865:..\CMSIS_DSP_LIB\Include/arm_math.h ****     uint16_t numRows;   /**< number of rows in the data table. */
1866:..\CMSIS_DSP_LIB\Include/arm_math.h ****     uint16_t numCols;   /**< number of columns in the data table. */
1867:..\CMSIS_DSP_LIB\Include/arm_math.h ****     q31_t *pData;       /**< points to the data table. */
1868:..\CMSIS_DSP_LIB\Include/arm_math.h ****   } arm_bilinear_interp_instance_q31;
1869:..\CMSIS_DSP_LIB\Include/arm_math.h **** 
1870:..\CMSIS_DSP_LIB\Include/arm_math.h ****    /**
1871:..\CMSIS_DSP_LIB\Include/arm_math.h ****    * @brief Instance structure for the Q15 bilinear interpolation function.
1872:..\CMSIS_DSP_LIB\Include/arm_math.h ****    */
1873:..\CMSIS_DSP_LIB\Include/arm_math.h ****   typedef struct
1874:..\CMSIS_DSP_LIB\Include/arm_math.h ****   {
1875:..\CMSIS_DSP_LIB\Include/arm_math.h ****     uint16_t numRows;   /**< number of rows in the data table. */
1876:..\CMSIS_DSP_LIB\Include/arm_math.h ****     uint16_t numCols;   /**< number of columns in the data table. */
1877:..\CMSIS_DSP_LIB\Include/arm_math.h ****     q15_t *pData;       /**< points to the data table. */
1878:..\CMSIS_DSP_LIB\Include/arm_math.h ****   } arm_bilinear_interp_instance_q15;
1879:..\CMSIS_DSP_LIB\Include/arm_math.h **** 
1880:..\CMSIS_DSP_LIB\Include/arm_math.h ****    /**
1881:..\CMSIS_DSP_LIB\Include/arm_math.h ****    * @brief Instance structure for the Q15 bilinear interpolation function.
1882:..\CMSIS_DSP_LIB\Include/arm_math.h ****    */
1883:..\CMSIS_DSP_LIB\Include/arm_math.h ****   typedef struct
1884:..\CMSIS_DSP_LIB\Include/arm_math.h ****   {
1885:..\CMSIS_DSP_LIB\Include/arm_math.h ****     uint16_t numRows;   /**< number of rows in the data table. */
1886:..\CMSIS_DSP_LIB\Include/arm_math.h ****     uint16_t numCols;   /**< number of columns in the data table. */
1887:..\CMSIS_DSP_LIB\Include/arm_math.h ****     q7_t *pData;        /**< points to the data table. */
1888:..\CMSIS_DSP_LIB\Include/arm_math.h ****   } arm_bilinear_interp_instance_q7;
1889:..\CMSIS_DSP_LIB\Include/arm_math.h **** 
1890:..\CMSIS_DSP_LIB\Include/arm_math.h **** 
1891:..\CMSIS_DSP_LIB\Include/arm_math.h ****   /**
1892:..\CMSIS_DSP_LIB\Include/arm_math.h ****    * @brief Q7 vector multiplication.
1893:..\CMSIS_DSP_LIB\Include/arm_math.h ****    * @param[in]  pSrcA      points to the first input vector
1894:..\CMSIS_DSP_LIB\Include/arm_math.h ****    * @param[in]  pSrcB      points to the second input vector
1895:..\CMSIS_DSP_LIB\Include/arm_math.h ****    * @param[out] pDst       points to the output vector
1896:..\CMSIS_DSP_LIB\Include/arm_math.h ****    * @param[in]  blockSize  number of samples in each vector
1897:..\CMSIS_DSP_LIB\Include/arm_math.h ****    */
1898:..\CMSIS_DSP_LIB\Include/arm_math.h ****   void arm_mult_q7(
1899:..\CMSIS_DSP_LIB\Include/arm_math.h ****   q7_t * pSrcA,
1900:..\CMSIS_DSP_LIB\Include/arm_math.h ****   q7_t * pSrcB,
1901:..\CMSIS_DSP_LIB\Include/arm_math.h ****   q7_t * pDst,
1902:..\CMSIS_DSP_LIB\Include/arm_math.h ****   uint32_t blockSize);
1903:..\CMSIS_DSP_LIB\Include/arm_math.h **** 
1904:..\CMSIS_DSP_LIB\Include/arm_math.h **** 
1905:..\CMSIS_DSP_LIB\Include/arm_math.h ****   /**
1906:..\CMSIS_DSP_LIB\Include/arm_math.h ****    * @brief Q15 vector multiplication.
1907:..\CMSIS_DSP_LIB\Include/arm_math.h ****    * @param[in]  pSrcA      points to the first input vector
1908:..\CMSIS_DSP_LIB\Include/arm_math.h ****    * @param[in]  pSrcB      points to the second input vector
1909:..\CMSIS_DSP_LIB\Include/arm_math.h ****    * @param[out] pDst       points to the output vector
1910:..\CMSIS_DSP_LIB\Include/arm_math.h ****    * @param[in]  blockSize  number of samples in each vector
1911:..\CMSIS_DSP_LIB\Include/arm_math.h ****    */
1912:..\CMSIS_DSP_LIB\Include/arm_math.h ****   void arm_mult_q15(
1913:..\CMSIS_DSP_LIB\Include/arm_math.h ****   q15_t * pSrcA,
1914:..\CMSIS_DSP_LIB\Include/arm_math.h ****   q15_t * pSrcB,
1915:..\CMSIS_DSP_LIB\Include/arm_math.h ****   q15_t * pDst,
1916:..\CMSIS_DSP_LIB\Include/arm_math.h ****   uint32_t blockSize);
ARM GAS  C:\Users\koseki\AppData\Local\Temp\ccPCtr5f.s 			page 57


1917:..\CMSIS_DSP_LIB\Include/arm_math.h **** 
1918:..\CMSIS_DSP_LIB\Include/arm_math.h **** 
1919:..\CMSIS_DSP_LIB\Include/arm_math.h ****   /**
1920:..\CMSIS_DSP_LIB\Include/arm_math.h ****    * @brief Q31 vector multiplication.
1921:..\CMSIS_DSP_LIB\Include/arm_math.h ****    * @param[in]  pSrcA      points to the first input vector
1922:..\CMSIS_DSP_LIB\Include/arm_math.h ****    * @param[in]  pSrcB      points to the second input vector
1923:..\CMSIS_DSP_LIB\Include/arm_math.h ****    * @param[out] pDst       points to the output vector
1924:..\CMSIS_DSP_LIB\Include/arm_math.h ****    * @param[in]  blockSize  number of samples in each vector
1925:..\CMSIS_DSP_LIB\Include/arm_math.h ****    */
1926:..\CMSIS_DSP_LIB\Include/arm_math.h ****   void arm_mult_q31(
1927:..\CMSIS_DSP_LIB\Include/arm_math.h ****   q31_t * pSrcA,
1928:..\CMSIS_DSP_LIB\Include/arm_math.h ****   q31_t * pSrcB,
1929:..\CMSIS_DSP_LIB\Include/arm_math.h ****   q31_t * pDst,
1930:..\CMSIS_DSP_LIB\Include/arm_math.h ****   uint32_t blockSize);
1931:..\CMSIS_DSP_LIB\Include/arm_math.h **** 
1932:..\CMSIS_DSP_LIB\Include/arm_math.h **** 
1933:..\CMSIS_DSP_LIB\Include/arm_math.h ****   /**
1934:..\CMSIS_DSP_LIB\Include/arm_math.h ****    * @brief Floating-point vector multiplication.
1935:..\CMSIS_DSP_LIB\Include/arm_math.h ****    * @param[in]  pSrcA      points to the first input vector
1936:..\CMSIS_DSP_LIB\Include/arm_math.h ****    * @param[in]  pSrcB      points to the second input vector
1937:..\CMSIS_DSP_LIB\Include/arm_math.h ****    * @param[out] pDst       points to the output vector
1938:..\CMSIS_DSP_LIB\Include/arm_math.h ****    * @param[in]  blockSize  number of samples in each vector
1939:..\CMSIS_DSP_LIB\Include/arm_math.h ****    */
1940:..\CMSIS_DSP_LIB\Include/arm_math.h ****   void arm_mult_f32(
1941:..\CMSIS_DSP_LIB\Include/arm_math.h ****   float32_t * pSrcA,
1942:..\CMSIS_DSP_LIB\Include/arm_math.h ****   float32_t * pSrcB,
1943:..\CMSIS_DSP_LIB\Include/arm_math.h ****   float32_t * pDst,
1944:..\CMSIS_DSP_LIB\Include/arm_math.h ****   uint32_t blockSize);
1945:..\CMSIS_DSP_LIB\Include/arm_math.h **** 
1946:..\CMSIS_DSP_LIB\Include/arm_math.h **** 
1947:..\CMSIS_DSP_LIB\Include/arm_math.h ****   /**
1948:..\CMSIS_DSP_LIB\Include/arm_math.h ****    * @brief Instance structure for the Q15 CFFT/CIFFT function.
1949:..\CMSIS_DSP_LIB\Include/arm_math.h ****    */
1950:..\CMSIS_DSP_LIB\Include/arm_math.h ****   typedef struct
1951:..\CMSIS_DSP_LIB\Include/arm_math.h ****   {
1952:..\CMSIS_DSP_LIB\Include/arm_math.h ****     uint16_t fftLen;                 /**< length of the FFT. */
1953:..\CMSIS_DSP_LIB\Include/arm_math.h ****     uint8_t ifftFlag;                /**< flag that selects forward (ifftFlag=0) or inverse (ifftFl
1954:..\CMSIS_DSP_LIB\Include/arm_math.h ****     uint8_t bitReverseFlag;          /**< flag that enables (bitReverseFlag=1) or disables (bitReve
1955:..\CMSIS_DSP_LIB\Include/arm_math.h ****     q15_t *pTwiddle;                 /**< points to the Sin twiddle factor table. */
1956:..\CMSIS_DSP_LIB\Include/arm_math.h ****     uint16_t *pBitRevTable;          /**< points to the bit reversal table. */
1957:..\CMSIS_DSP_LIB\Include/arm_math.h ****     uint16_t twidCoefModifier;       /**< twiddle coefficient modifier that supports different size
1958:..\CMSIS_DSP_LIB\Include/arm_math.h ****     uint16_t bitRevFactor;           /**< bit reversal modifier that supports different size FFTs w
1959:..\CMSIS_DSP_LIB\Include/arm_math.h ****   } arm_cfft_radix2_instance_q15;
1960:..\CMSIS_DSP_LIB\Include/arm_math.h **** 
1961:..\CMSIS_DSP_LIB\Include/arm_math.h **** /* Deprecated */
1962:..\CMSIS_DSP_LIB\Include/arm_math.h ****   arm_status arm_cfft_radix2_init_q15(
1963:..\CMSIS_DSP_LIB\Include/arm_math.h ****   arm_cfft_radix2_instance_q15 * S,
1964:..\CMSIS_DSP_LIB\Include/arm_math.h ****   uint16_t fftLen,
1965:..\CMSIS_DSP_LIB\Include/arm_math.h ****   uint8_t ifftFlag,
1966:..\CMSIS_DSP_LIB\Include/arm_math.h ****   uint8_t bitReverseFlag);
1967:..\CMSIS_DSP_LIB\Include/arm_math.h **** 
1968:..\CMSIS_DSP_LIB\Include/arm_math.h **** /* Deprecated */
1969:..\CMSIS_DSP_LIB\Include/arm_math.h ****   void arm_cfft_radix2_q15(
1970:..\CMSIS_DSP_LIB\Include/arm_math.h ****   const arm_cfft_radix2_instance_q15 * S,
1971:..\CMSIS_DSP_LIB\Include/arm_math.h ****   q15_t * pSrc);
1972:..\CMSIS_DSP_LIB\Include/arm_math.h **** 
1973:..\CMSIS_DSP_LIB\Include/arm_math.h **** 
ARM GAS  C:\Users\koseki\AppData\Local\Temp\ccPCtr5f.s 			page 58


1974:..\CMSIS_DSP_LIB\Include/arm_math.h ****   /**
1975:..\CMSIS_DSP_LIB\Include/arm_math.h ****    * @brief Instance structure for the Q15 CFFT/CIFFT function.
1976:..\CMSIS_DSP_LIB\Include/arm_math.h ****    */
1977:..\CMSIS_DSP_LIB\Include/arm_math.h ****   typedef struct
1978:..\CMSIS_DSP_LIB\Include/arm_math.h ****   {
1979:..\CMSIS_DSP_LIB\Include/arm_math.h ****     uint16_t fftLen;                 /**< length of the FFT. */
1980:..\CMSIS_DSP_LIB\Include/arm_math.h ****     uint8_t ifftFlag;                /**< flag that selects forward (ifftFlag=0) or inverse (ifftFl
1981:..\CMSIS_DSP_LIB\Include/arm_math.h ****     uint8_t bitReverseFlag;          /**< flag that enables (bitReverseFlag=1) or disables (bitReve
1982:..\CMSIS_DSP_LIB\Include/arm_math.h ****     q15_t *pTwiddle;                 /**< points to the twiddle factor table. */
1983:..\CMSIS_DSP_LIB\Include/arm_math.h ****     uint16_t *pBitRevTable;          /**< points to the bit reversal table. */
1984:..\CMSIS_DSP_LIB\Include/arm_math.h ****     uint16_t twidCoefModifier;       /**< twiddle coefficient modifier that supports different size
1985:..\CMSIS_DSP_LIB\Include/arm_math.h ****     uint16_t bitRevFactor;           /**< bit reversal modifier that supports different size FFTs w
1986:..\CMSIS_DSP_LIB\Include/arm_math.h ****   } arm_cfft_radix4_instance_q15;
1987:..\CMSIS_DSP_LIB\Include/arm_math.h **** 
1988:..\CMSIS_DSP_LIB\Include/arm_math.h **** /* Deprecated */
1989:..\CMSIS_DSP_LIB\Include/arm_math.h ****   arm_status arm_cfft_radix4_init_q15(
1990:..\CMSIS_DSP_LIB\Include/arm_math.h ****   arm_cfft_radix4_instance_q15 * S,
1991:..\CMSIS_DSP_LIB\Include/arm_math.h ****   uint16_t fftLen,
1992:..\CMSIS_DSP_LIB\Include/arm_math.h ****   uint8_t ifftFlag,
1993:..\CMSIS_DSP_LIB\Include/arm_math.h ****   uint8_t bitReverseFlag);
1994:..\CMSIS_DSP_LIB\Include/arm_math.h **** 
1995:..\CMSIS_DSP_LIB\Include/arm_math.h **** /* Deprecated */
1996:..\CMSIS_DSP_LIB\Include/arm_math.h ****   void arm_cfft_radix4_q15(
1997:..\CMSIS_DSP_LIB\Include/arm_math.h ****   const arm_cfft_radix4_instance_q15 * S,
1998:..\CMSIS_DSP_LIB\Include/arm_math.h ****   q15_t * pSrc);
1999:..\CMSIS_DSP_LIB\Include/arm_math.h **** 
2000:..\CMSIS_DSP_LIB\Include/arm_math.h ****   /**
2001:..\CMSIS_DSP_LIB\Include/arm_math.h ****    * @brief Instance structure for the Radix-2 Q31 CFFT/CIFFT function.
2002:..\CMSIS_DSP_LIB\Include/arm_math.h ****    */
2003:..\CMSIS_DSP_LIB\Include/arm_math.h ****   typedef struct
2004:..\CMSIS_DSP_LIB\Include/arm_math.h ****   {
2005:..\CMSIS_DSP_LIB\Include/arm_math.h ****     uint16_t fftLen;                 /**< length of the FFT. */
2006:..\CMSIS_DSP_LIB\Include/arm_math.h ****     uint8_t ifftFlag;                /**< flag that selects forward (ifftFlag=0) or inverse (ifftFl
2007:..\CMSIS_DSP_LIB\Include/arm_math.h ****     uint8_t bitReverseFlag;          /**< flag that enables (bitReverseFlag=1) or disables (bitReve
2008:..\CMSIS_DSP_LIB\Include/arm_math.h ****     q31_t *pTwiddle;                 /**< points to the Twiddle factor table. */
2009:..\CMSIS_DSP_LIB\Include/arm_math.h ****     uint16_t *pBitRevTable;          /**< points to the bit reversal table. */
2010:..\CMSIS_DSP_LIB\Include/arm_math.h ****     uint16_t twidCoefModifier;       /**< twiddle coefficient modifier that supports different size
2011:..\CMSIS_DSP_LIB\Include/arm_math.h ****     uint16_t bitRevFactor;           /**< bit reversal modifier that supports different size FFTs w
2012:..\CMSIS_DSP_LIB\Include/arm_math.h ****   } arm_cfft_radix2_instance_q31;
2013:..\CMSIS_DSP_LIB\Include/arm_math.h **** 
2014:..\CMSIS_DSP_LIB\Include/arm_math.h **** /* Deprecated */
2015:..\CMSIS_DSP_LIB\Include/arm_math.h ****   arm_status arm_cfft_radix2_init_q31(
2016:..\CMSIS_DSP_LIB\Include/arm_math.h ****   arm_cfft_radix2_instance_q31 * S,
2017:..\CMSIS_DSP_LIB\Include/arm_math.h ****   uint16_t fftLen,
2018:..\CMSIS_DSP_LIB\Include/arm_math.h ****   uint8_t ifftFlag,
2019:..\CMSIS_DSP_LIB\Include/arm_math.h ****   uint8_t bitReverseFlag);
2020:..\CMSIS_DSP_LIB\Include/arm_math.h **** 
2021:..\CMSIS_DSP_LIB\Include/arm_math.h **** /* Deprecated */
2022:..\CMSIS_DSP_LIB\Include/arm_math.h ****   void arm_cfft_radix2_q31(
2023:..\CMSIS_DSP_LIB\Include/arm_math.h ****   const arm_cfft_radix2_instance_q31 * S,
2024:..\CMSIS_DSP_LIB\Include/arm_math.h ****   q31_t * pSrc);
2025:..\CMSIS_DSP_LIB\Include/arm_math.h **** 
2026:..\CMSIS_DSP_LIB\Include/arm_math.h ****   /**
2027:..\CMSIS_DSP_LIB\Include/arm_math.h ****    * @brief Instance structure for the Q31 CFFT/CIFFT function.
2028:..\CMSIS_DSP_LIB\Include/arm_math.h ****    */
2029:..\CMSIS_DSP_LIB\Include/arm_math.h ****   typedef struct
2030:..\CMSIS_DSP_LIB\Include/arm_math.h ****   {
ARM GAS  C:\Users\koseki\AppData\Local\Temp\ccPCtr5f.s 			page 59


2031:..\CMSIS_DSP_LIB\Include/arm_math.h ****     uint16_t fftLen;                 /**< length of the FFT. */
2032:..\CMSIS_DSP_LIB\Include/arm_math.h ****     uint8_t ifftFlag;                /**< flag that selects forward (ifftFlag=0) or inverse (ifftFl
2033:..\CMSIS_DSP_LIB\Include/arm_math.h ****     uint8_t bitReverseFlag;          /**< flag that enables (bitReverseFlag=1) or disables (bitReve
2034:..\CMSIS_DSP_LIB\Include/arm_math.h ****     q31_t *pTwiddle;                 /**< points to the twiddle factor table. */
2035:..\CMSIS_DSP_LIB\Include/arm_math.h ****     uint16_t *pBitRevTable;          /**< points to the bit reversal table. */
2036:..\CMSIS_DSP_LIB\Include/arm_math.h ****     uint16_t twidCoefModifier;       /**< twiddle coefficient modifier that supports different size
2037:..\CMSIS_DSP_LIB\Include/arm_math.h ****     uint16_t bitRevFactor;           /**< bit reversal modifier that supports different size FFTs w
2038:..\CMSIS_DSP_LIB\Include/arm_math.h ****   } arm_cfft_radix4_instance_q31;
2039:..\CMSIS_DSP_LIB\Include/arm_math.h **** 
2040:..\CMSIS_DSP_LIB\Include/arm_math.h **** /* Deprecated */
2041:..\CMSIS_DSP_LIB\Include/arm_math.h ****   void arm_cfft_radix4_q31(
2042:..\CMSIS_DSP_LIB\Include/arm_math.h ****   const arm_cfft_radix4_instance_q31 * S,
2043:..\CMSIS_DSP_LIB\Include/arm_math.h ****   q31_t * pSrc);
2044:..\CMSIS_DSP_LIB\Include/arm_math.h **** 
2045:..\CMSIS_DSP_LIB\Include/arm_math.h **** /* Deprecated */
2046:..\CMSIS_DSP_LIB\Include/arm_math.h ****   arm_status arm_cfft_radix4_init_q31(
2047:..\CMSIS_DSP_LIB\Include/arm_math.h ****   arm_cfft_radix4_instance_q31 * S,
2048:..\CMSIS_DSP_LIB\Include/arm_math.h ****   uint16_t fftLen,
2049:..\CMSIS_DSP_LIB\Include/arm_math.h ****   uint8_t ifftFlag,
2050:..\CMSIS_DSP_LIB\Include/arm_math.h ****   uint8_t bitReverseFlag);
2051:..\CMSIS_DSP_LIB\Include/arm_math.h **** 
2052:..\CMSIS_DSP_LIB\Include/arm_math.h ****   /**
2053:..\CMSIS_DSP_LIB\Include/arm_math.h ****    * @brief Instance structure for the floating-point CFFT/CIFFT function.
2054:..\CMSIS_DSP_LIB\Include/arm_math.h ****    */
2055:..\CMSIS_DSP_LIB\Include/arm_math.h ****   typedef struct
2056:..\CMSIS_DSP_LIB\Include/arm_math.h ****   {
2057:..\CMSIS_DSP_LIB\Include/arm_math.h ****     uint16_t fftLen;                   /**< length of the FFT. */
2058:..\CMSIS_DSP_LIB\Include/arm_math.h ****     uint8_t ifftFlag;                  /**< flag that selects forward (ifftFlag=0) or inverse (ifft
2059:..\CMSIS_DSP_LIB\Include/arm_math.h ****     uint8_t bitReverseFlag;            /**< flag that enables (bitReverseFlag=1) or disables (bitRe
2060:..\CMSIS_DSP_LIB\Include/arm_math.h ****     float32_t *pTwiddle;               /**< points to the Twiddle factor table. */
2061:..\CMSIS_DSP_LIB\Include/arm_math.h ****     uint16_t *pBitRevTable;            /**< points to the bit reversal table. */
2062:..\CMSIS_DSP_LIB\Include/arm_math.h ****     uint16_t twidCoefModifier;         /**< twiddle coefficient modifier that supports different si
2063:..\CMSIS_DSP_LIB\Include/arm_math.h ****     uint16_t bitRevFactor;             /**< bit reversal modifier that supports different size FFTs
2064:..\CMSIS_DSP_LIB\Include/arm_math.h ****     float32_t onebyfftLen;             /**< value of 1/fftLen. */
2065:..\CMSIS_DSP_LIB\Include/arm_math.h ****   } arm_cfft_radix2_instance_f32;
2066:..\CMSIS_DSP_LIB\Include/arm_math.h **** 
2067:..\CMSIS_DSP_LIB\Include/arm_math.h **** /* Deprecated */
2068:..\CMSIS_DSP_LIB\Include/arm_math.h ****   arm_status arm_cfft_radix2_init_f32(
2069:..\CMSIS_DSP_LIB\Include/arm_math.h ****   arm_cfft_radix2_instance_f32 * S,
2070:..\CMSIS_DSP_LIB\Include/arm_math.h ****   uint16_t fftLen,
2071:..\CMSIS_DSP_LIB\Include/arm_math.h ****   uint8_t ifftFlag,
2072:..\CMSIS_DSP_LIB\Include/arm_math.h ****   uint8_t bitReverseFlag);
2073:..\CMSIS_DSP_LIB\Include/arm_math.h **** 
2074:..\CMSIS_DSP_LIB\Include/arm_math.h **** /* Deprecated */
2075:..\CMSIS_DSP_LIB\Include/arm_math.h ****   void arm_cfft_radix2_f32(
2076:..\CMSIS_DSP_LIB\Include/arm_math.h ****   const arm_cfft_radix2_instance_f32 * S,
2077:..\CMSIS_DSP_LIB\Include/arm_math.h ****   float32_t * pSrc);
2078:..\CMSIS_DSP_LIB\Include/arm_math.h **** 
2079:..\CMSIS_DSP_LIB\Include/arm_math.h ****   /**
2080:..\CMSIS_DSP_LIB\Include/arm_math.h ****    * @brief Instance structure for the floating-point CFFT/CIFFT function.
2081:..\CMSIS_DSP_LIB\Include/arm_math.h ****    */
2082:..\CMSIS_DSP_LIB\Include/arm_math.h ****   typedef struct
2083:..\CMSIS_DSP_LIB\Include/arm_math.h ****   {
2084:..\CMSIS_DSP_LIB\Include/arm_math.h ****     uint16_t fftLen;                   /**< length of the FFT. */
2085:..\CMSIS_DSP_LIB\Include/arm_math.h ****     uint8_t ifftFlag;                  /**< flag that selects forward (ifftFlag=0) or inverse (ifft
2086:..\CMSIS_DSP_LIB\Include/arm_math.h ****     uint8_t bitReverseFlag;            /**< flag that enables (bitReverseFlag=1) or disables (bitRe
2087:..\CMSIS_DSP_LIB\Include/arm_math.h ****     float32_t *pTwiddle;               /**< points to the Twiddle factor table. */
ARM GAS  C:\Users\koseki\AppData\Local\Temp\ccPCtr5f.s 			page 60


2088:..\CMSIS_DSP_LIB\Include/arm_math.h ****     uint16_t *pBitRevTable;            /**< points to the bit reversal table. */
2089:..\CMSIS_DSP_LIB\Include/arm_math.h ****     uint16_t twidCoefModifier;         /**< twiddle coefficient modifier that supports different si
2090:..\CMSIS_DSP_LIB\Include/arm_math.h ****     uint16_t bitRevFactor;             /**< bit reversal modifier that supports different size FFTs
2091:..\CMSIS_DSP_LIB\Include/arm_math.h ****     float32_t onebyfftLen;             /**< value of 1/fftLen. */
2092:..\CMSIS_DSP_LIB\Include/arm_math.h ****   } arm_cfft_radix4_instance_f32;
2093:..\CMSIS_DSP_LIB\Include/arm_math.h **** 
2094:..\CMSIS_DSP_LIB\Include/arm_math.h **** /* Deprecated */
2095:..\CMSIS_DSP_LIB\Include/arm_math.h ****   arm_status arm_cfft_radix4_init_f32(
2096:..\CMSIS_DSP_LIB\Include/arm_math.h ****   arm_cfft_radix4_instance_f32 * S,
2097:..\CMSIS_DSP_LIB\Include/arm_math.h ****   uint16_t fftLen,
2098:..\CMSIS_DSP_LIB\Include/arm_math.h ****   uint8_t ifftFlag,
2099:..\CMSIS_DSP_LIB\Include/arm_math.h ****   uint8_t bitReverseFlag);
2100:..\CMSIS_DSP_LIB\Include/arm_math.h **** 
2101:..\CMSIS_DSP_LIB\Include/arm_math.h **** /* Deprecated */
2102:..\CMSIS_DSP_LIB\Include/arm_math.h ****   void arm_cfft_radix4_f32(
2103:..\CMSIS_DSP_LIB\Include/arm_math.h ****   const arm_cfft_radix4_instance_f32 * S,
2104:..\CMSIS_DSP_LIB\Include/arm_math.h ****   float32_t * pSrc);
2105:..\CMSIS_DSP_LIB\Include/arm_math.h **** 
2106:..\CMSIS_DSP_LIB\Include/arm_math.h ****   /**
2107:..\CMSIS_DSP_LIB\Include/arm_math.h ****    * @brief Instance structure for the fixed-point CFFT/CIFFT function.
2108:..\CMSIS_DSP_LIB\Include/arm_math.h ****    */
2109:..\CMSIS_DSP_LIB\Include/arm_math.h ****   typedef struct
2110:..\CMSIS_DSP_LIB\Include/arm_math.h ****   {
2111:..\CMSIS_DSP_LIB\Include/arm_math.h ****     uint16_t fftLen;                   /**< length of the FFT. */
2112:..\CMSIS_DSP_LIB\Include/arm_math.h ****     const q15_t *pTwiddle;             /**< points to the Twiddle factor table. */
2113:..\CMSIS_DSP_LIB\Include/arm_math.h ****     const uint16_t *pBitRevTable;      /**< points to the bit reversal table. */
2114:..\CMSIS_DSP_LIB\Include/arm_math.h ****     uint16_t bitRevLength;             /**< bit reversal table length. */
2115:..\CMSIS_DSP_LIB\Include/arm_math.h ****   } arm_cfft_instance_q15;
2116:..\CMSIS_DSP_LIB\Include/arm_math.h **** 
2117:..\CMSIS_DSP_LIB\Include/arm_math.h **** void arm_cfft_q15(
2118:..\CMSIS_DSP_LIB\Include/arm_math.h ****     const arm_cfft_instance_q15 * S,
2119:..\CMSIS_DSP_LIB\Include/arm_math.h ****     q15_t * p1,
2120:..\CMSIS_DSP_LIB\Include/arm_math.h ****     uint8_t ifftFlag,
2121:..\CMSIS_DSP_LIB\Include/arm_math.h ****     uint8_t bitReverseFlag);
2122:..\CMSIS_DSP_LIB\Include/arm_math.h **** 
2123:..\CMSIS_DSP_LIB\Include/arm_math.h ****   /**
2124:..\CMSIS_DSP_LIB\Include/arm_math.h ****    * @brief Instance structure for the fixed-point CFFT/CIFFT function.
2125:..\CMSIS_DSP_LIB\Include/arm_math.h ****    */
2126:..\CMSIS_DSP_LIB\Include/arm_math.h ****   typedef struct
2127:..\CMSIS_DSP_LIB\Include/arm_math.h ****   {
2128:..\CMSIS_DSP_LIB\Include/arm_math.h ****     uint16_t fftLen;                   /**< length of the FFT. */
2129:..\CMSIS_DSP_LIB\Include/arm_math.h ****     const q31_t *pTwiddle;             /**< points to the Twiddle factor table. */
2130:..\CMSIS_DSP_LIB\Include/arm_math.h ****     const uint16_t *pBitRevTable;      /**< points to the bit reversal table. */
2131:..\CMSIS_DSP_LIB\Include/arm_math.h ****     uint16_t bitRevLength;             /**< bit reversal table length. */
2132:..\CMSIS_DSP_LIB\Include/arm_math.h ****   } arm_cfft_instance_q31;
2133:..\CMSIS_DSP_LIB\Include/arm_math.h **** 
2134:..\CMSIS_DSP_LIB\Include/arm_math.h **** void arm_cfft_q31(
2135:..\CMSIS_DSP_LIB\Include/arm_math.h ****     const arm_cfft_instance_q31 * S,
2136:..\CMSIS_DSP_LIB\Include/arm_math.h ****     q31_t * p1,
2137:..\CMSIS_DSP_LIB\Include/arm_math.h ****     uint8_t ifftFlag,
2138:..\CMSIS_DSP_LIB\Include/arm_math.h ****     uint8_t bitReverseFlag);
2139:..\CMSIS_DSP_LIB\Include/arm_math.h **** 
2140:..\CMSIS_DSP_LIB\Include/arm_math.h ****   /**
2141:..\CMSIS_DSP_LIB\Include/arm_math.h ****    * @brief Instance structure for the floating-point CFFT/CIFFT function.
2142:..\CMSIS_DSP_LIB\Include/arm_math.h ****    */
2143:..\CMSIS_DSP_LIB\Include/arm_math.h ****   typedef struct
2144:..\CMSIS_DSP_LIB\Include/arm_math.h ****   {
ARM GAS  C:\Users\koseki\AppData\Local\Temp\ccPCtr5f.s 			page 61


2145:..\CMSIS_DSP_LIB\Include/arm_math.h ****     uint16_t fftLen;                   /**< length of the FFT. */
2146:..\CMSIS_DSP_LIB\Include/arm_math.h ****     const float32_t *pTwiddle;         /**< points to the Twiddle factor table. */
2147:..\CMSIS_DSP_LIB\Include/arm_math.h ****     const uint16_t *pBitRevTable;      /**< points to the bit reversal table. */
2148:..\CMSIS_DSP_LIB\Include/arm_math.h ****     uint16_t bitRevLength;             /**< bit reversal table length. */
2149:..\CMSIS_DSP_LIB\Include/arm_math.h ****   } arm_cfft_instance_f32;
2150:..\CMSIS_DSP_LIB\Include/arm_math.h **** 
2151:..\CMSIS_DSP_LIB\Include/arm_math.h ****   void arm_cfft_f32(
2152:..\CMSIS_DSP_LIB\Include/arm_math.h ****   const arm_cfft_instance_f32 * S,
2153:..\CMSIS_DSP_LIB\Include/arm_math.h ****   float32_t * p1,
2154:..\CMSIS_DSP_LIB\Include/arm_math.h ****   uint8_t ifftFlag,
2155:..\CMSIS_DSP_LIB\Include/arm_math.h ****   uint8_t bitReverseFlag);
2156:..\CMSIS_DSP_LIB\Include/arm_math.h **** 
2157:..\CMSIS_DSP_LIB\Include/arm_math.h ****   /**
2158:..\CMSIS_DSP_LIB\Include/arm_math.h ****    * @brief Instance structure for the Q15 RFFT/RIFFT function.
2159:..\CMSIS_DSP_LIB\Include/arm_math.h ****    */
2160:..\CMSIS_DSP_LIB\Include/arm_math.h ****   typedef struct
2161:..\CMSIS_DSP_LIB\Include/arm_math.h ****   {
2162:..\CMSIS_DSP_LIB\Include/arm_math.h ****     uint32_t fftLenReal;                      /**< length of the real FFT. */
2163:..\CMSIS_DSP_LIB\Include/arm_math.h ****     uint8_t ifftFlagR;                        /**< flag that selects forward (ifftFlagR=0) or inver
2164:..\CMSIS_DSP_LIB\Include/arm_math.h ****     uint8_t bitReverseFlagR;                  /**< flag that enables (bitReverseFlagR=1) or disable
2165:..\CMSIS_DSP_LIB\Include/arm_math.h ****     uint32_t twidCoefRModifier;               /**< twiddle coefficient modifier that supports diffe
2166:..\CMSIS_DSP_LIB\Include/arm_math.h ****     q15_t *pTwiddleAReal;                     /**< points to the real twiddle factor table. */
2167:..\CMSIS_DSP_LIB\Include/arm_math.h ****     q15_t *pTwiddleBReal;                     /**< points to the imag twiddle factor table. */
2168:..\CMSIS_DSP_LIB\Include/arm_math.h ****     const arm_cfft_instance_q15 *pCfft;       /**< points to the complex FFT instance. */
2169:..\CMSIS_DSP_LIB\Include/arm_math.h ****   } arm_rfft_instance_q15;
2170:..\CMSIS_DSP_LIB\Include/arm_math.h **** 
2171:..\CMSIS_DSP_LIB\Include/arm_math.h ****   arm_status arm_rfft_init_q15(
2172:..\CMSIS_DSP_LIB\Include/arm_math.h ****   arm_rfft_instance_q15 * S,
2173:..\CMSIS_DSP_LIB\Include/arm_math.h ****   uint32_t fftLenReal,
2174:..\CMSIS_DSP_LIB\Include/arm_math.h ****   uint32_t ifftFlagR,
2175:..\CMSIS_DSP_LIB\Include/arm_math.h ****   uint32_t bitReverseFlag);
2176:..\CMSIS_DSP_LIB\Include/arm_math.h **** 
2177:..\CMSIS_DSP_LIB\Include/arm_math.h ****   void arm_rfft_q15(
2178:..\CMSIS_DSP_LIB\Include/arm_math.h ****   const arm_rfft_instance_q15 * S,
2179:..\CMSIS_DSP_LIB\Include/arm_math.h ****   q15_t * pSrc,
2180:..\CMSIS_DSP_LIB\Include/arm_math.h ****   q15_t * pDst);
2181:..\CMSIS_DSP_LIB\Include/arm_math.h **** 
2182:..\CMSIS_DSP_LIB\Include/arm_math.h ****   /**
2183:..\CMSIS_DSP_LIB\Include/arm_math.h ****    * @brief Instance structure for the Q31 RFFT/RIFFT function.
2184:..\CMSIS_DSP_LIB\Include/arm_math.h ****    */
2185:..\CMSIS_DSP_LIB\Include/arm_math.h ****   typedef struct
2186:..\CMSIS_DSP_LIB\Include/arm_math.h ****   {
2187:..\CMSIS_DSP_LIB\Include/arm_math.h ****     uint32_t fftLenReal;                        /**< length of the real FFT. */
2188:..\CMSIS_DSP_LIB\Include/arm_math.h ****     uint8_t ifftFlagR;                          /**< flag that selects forward (ifftFlagR=0) or inv
2189:..\CMSIS_DSP_LIB\Include/arm_math.h ****     uint8_t bitReverseFlagR;                    /**< flag that enables (bitReverseFlagR=1) or disab
2190:..\CMSIS_DSP_LIB\Include/arm_math.h ****     uint32_t twidCoefRModifier;                 /**< twiddle coefficient modifier that supports dif
2191:..\CMSIS_DSP_LIB\Include/arm_math.h ****     q31_t *pTwiddleAReal;                       /**< points to the real twiddle factor table. */
2192:..\CMSIS_DSP_LIB\Include/arm_math.h ****     q31_t *pTwiddleBReal;                       /**< points to the imag twiddle factor table. */
2193:..\CMSIS_DSP_LIB\Include/arm_math.h ****     const arm_cfft_instance_q31 *pCfft;         /**< points to the complex FFT instance. */
2194:..\CMSIS_DSP_LIB\Include/arm_math.h ****   } arm_rfft_instance_q31;
2195:..\CMSIS_DSP_LIB\Include/arm_math.h **** 
2196:..\CMSIS_DSP_LIB\Include/arm_math.h ****   arm_status arm_rfft_init_q31(
2197:..\CMSIS_DSP_LIB\Include/arm_math.h ****   arm_rfft_instance_q31 * S,
2198:..\CMSIS_DSP_LIB\Include/arm_math.h ****   uint32_t fftLenReal,
2199:..\CMSIS_DSP_LIB\Include/arm_math.h ****   uint32_t ifftFlagR,
2200:..\CMSIS_DSP_LIB\Include/arm_math.h ****   uint32_t bitReverseFlag);
2201:..\CMSIS_DSP_LIB\Include/arm_math.h **** 
ARM GAS  C:\Users\koseki\AppData\Local\Temp\ccPCtr5f.s 			page 62


2202:..\CMSIS_DSP_LIB\Include/arm_math.h ****   void arm_rfft_q31(
2203:..\CMSIS_DSP_LIB\Include/arm_math.h ****   const arm_rfft_instance_q31 * S,
2204:..\CMSIS_DSP_LIB\Include/arm_math.h ****   q31_t * pSrc,
2205:..\CMSIS_DSP_LIB\Include/arm_math.h ****   q31_t * pDst);
2206:..\CMSIS_DSP_LIB\Include/arm_math.h **** 
2207:..\CMSIS_DSP_LIB\Include/arm_math.h ****   /**
2208:..\CMSIS_DSP_LIB\Include/arm_math.h ****    * @brief Instance structure for the floating-point RFFT/RIFFT function.
2209:..\CMSIS_DSP_LIB\Include/arm_math.h ****    */
2210:..\CMSIS_DSP_LIB\Include/arm_math.h ****   typedef struct
2211:..\CMSIS_DSP_LIB\Include/arm_math.h ****   {
2212:..\CMSIS_DSP_LIB\Include/arm_math.h ****     uint32_t fftLenReal;                        /**< length of the real FFT. */
2213:..\CMSIS_DSP_LIB\Include/arm_math.h ****     uint16_t fftLenBy2;                         /**< length of the complex FFT. */
2214:..\CMSIS_DSP_LIB\Include/arm_math.h ****     uint8_t ifftFlagR;                          /**< flag that selects forward (ifftFlagR=0) or inv
2215:..\CMSIS_DSP_LIB\Include/arm_math.h ****     uint8_t bitReverseFlagR;                    /**< flag that enables (bitReverseFlagR=1) or disab
2216:..\CMSIS_DSP_LIB\Include/arm_math.h ****     uint32_t twidCoefRModifier;                     /**< twiddle coefficient modifier that supports
2217:..\CMSIS_DSP_LIB\Include/arm_math.h ****     float32_t *pTwiddleAReal;                   /**< points to the real twiddle factor table. */
2218:..\CMSIS_DSP_LIB\Include/arm_math.h ****     float32_t *pTwiddleBReal;                   /**< points to the imag twiddle factor table. */
2219:..\CMSIS_DSP_LIB\Include/arm_math.h ****     arm_cfft_radix4_instance_f32 *pCfft;        /**< points to the complex FFT instance. */
2220:..\CMSIS_DSP_LIB\Include/arm_math.h ****   } arm_rfft_instance_f32;
2221:..\CMSIS_DSP_LIB\Include/arm_math.h **** 
2222:..\CMSIS_DSP_LIB\Include/arm_math.h ****   arm_status arm_rfft_init_f32(
2223:..\CMSIS_DSP_LIB\Include/arm_math.h ****   arm_rfft_instance_f32 * S,
2224:..\CMSIS_DSP_LIB\Include/arm_math.h ****   arm_cfft_radix4_instance_f32 * S_CFFT,
2225:..\CMSIS_DSP_LIB\Include/arm_math.h ****   uint32_t fftLenReal,
2226:..\CMSIS_DSP_LIB\Include/arm_math.h ****   uint32_t ifftFlagR,
2227:..\CMSIS_DSP_LIB\Include/arm_math.h ****   uint32_t bitReverseFlag);
2228:..\CMSIS_DSP_LIB\Include/arm_math.h **** 
2229:..\CMSIS_DSP_LIB\Include/arm_math.h ****   void arm_rfft_f32(
2230:..\CMSIS_DSP_LIB\Include/arm_math.h ****   const arm_rfft_instance_f32 * S,
2231:..\CMSIS_DSP_LIB\Include/arm_math.h ****   float32_t * pSrc,
2232:..\CMSIS_DSP_LIB\Include/arm_math.h ****   float32_t * pDst);
2233:..\CMSIS_DSP_LIB\Include/arm_math.h **** 
2234:..\CMSIS_DSP_LIB\Include/arm_math.h ****   /**
2235:..\CMSIS_DSP_LIB\Include/arm_math.h ****    * @brief Instance structure for the floating-point RFFT/RIFFT function.
2236:..\CMSIS_DSP_LIB\Include/arm_math.h ****    */
2237:..\CMSIS_DSP_LIB\Include/arm_math.h **** typedef struct
2238:..\CMSIS_DSP_LIB\Include/arm_math.h ****   {
2239:..\CMSIS_DSP_LIB\Include/arm_math.h ****     arm_cfft_instance_f32 Sint;      /**< Internal CFFT structure. */
2240:..\CMSIS_DSP_LIB\Include/arm_math.h ****     uint16_t fftLenRFFT;             /**< length of the real sequence */
2241:..\CMSIS_DSP_LIB\Include/arm_math.h ****     float32_t * pTwiddleRFFT;        /**< Twiddle factors real stage  */
2242:..\CMSIS_DSP_LIB\Include/arm_math.h ****   } arm_rfft_fast_instance_f32 ;
2243:..\CMSIS_DSP_LIB\Include/arm_math.h **** 
2244:..\CMSIS_DSP_LIB\Include/arm_math.h **** arm_status arm_rfft_fast_init_f32 (
2245:..\CMSIS_DSP_LIB\Include/arm_math.h ****    arm_rfft_fast_instance_f32 * S,
2246:..\CMSIS_DSP_LIB\Include/arm_math.h ****    uint16_t fftLen);
2247:..\CMSIS_DSP_LIB\Include/arm_math.h **** 
2248:..\CMSIS_DSP_LIB\Include/arm_math.h **** void arm_rfft_fast_f32(
2249:..\CMSIS_DSP_LIB\Include/arm_math.h ****   arm_rfft_fast_instance_f32 * S,
2250:..\CMSIS_DSP_LIB\Include/arm_math.h ****   float32_t * p, float32_t * pOut,
2251:..\CMSIS_DSP_LIB\Include/arm_math.h ****   uint8_t ifftFlag);
2252:..\CMSIS_DSP_LIB\Include/arm_math.h **** 
2253:..\CMSIS_DSP_LIB\Include/arm_math.h ****   /**
2254:..\CMSIS_DSP_LIB\Include/arm_math.h ****    * @brief Instance structure for the floating-point DCT4/IDCT4 function.
2255:..\CMSIS_DSP_LIB\Include/arm_math.h ****    */
2256:..\CMSIS_DSP_LIB\Include/arm_math.h ****   typedef struct
2257:..\CMSIS_DSP_LIB\Include/arm_math.h ****   {
2258:..\CMSIS_DSP_LIB\Include/arm_math.h ****     uint16_t N;                          /**< length of the DCT4. */
ARM GAS  C:\Users\koseki\AppData\Local\Temp\ccPCtr5f.s 			page 63


2259:..\CMSIS_DSP_LIB\Include/arm_math.h ****     uint16_t Nby2;                       /**< half of the length of the DCT4. */
2260:..\CMSIS_DSP_LIB\Include/arm_math.h ****     float32_t normalize;                 /**< normalizing factor. */
2261:..\CMSIS_DSP_LIB\Include/arm_math.h ****     float32_t *pTwiddle;                 /**< points to the twiddle factor table. */
2262:..\CMSIS_DSP_LIB\Include/arm_math.h ****     float32_t *pCosFactor;               /**< points to the cosFactor table. */
2263:..\CMSIS_DSP_LIB\Include/arm_math.h ****     arm_rfft_instance_f32 *pRfft;        /**< points to the real FFT instance. */
2264:..\CMSIS_DSP_LIB\Include/arm_math.h ****     arm_cfft_radix4_instance_f32 *pCfft; /**< points to the complex FFT instance. */
2265:..\CMSIS_DSP_LIB\Include/arm_math.h ****   } arm_dct4_instance_f32;
2266:..\CMSIS_DSP_LIB\Include/arm_math.h **** 
2267:..\CMSIS_DSP_LIB\Include/arm_math.h **** 
2268:..\CMSIS_DSP_LIB\Include/arm_math.h ****   /**
2269:..\CMSIS_DSP_LIB\Include/arm_math.h ****    * @brief  Initialization function for the floating-point DCT4/IDCT4.
2270:..\CMSIS_DSP_LIB\Include/arm_math.h ****    * @param[in,out] S          points to an instance of floating-point DCT4/IDCT4 structure.
2271:..\CMSIS_DSP_LIB\Include/arm_math.h ****    * @param[in]     S_RFFT     points to an instance of floating-point RFFT/RIFFT structure.
2272:..\CMSIS_DSP_LIB\Include/arm_math.h ****    * @param[in]     S_CFFT     points to an instance of floating-point CFFT/CIFFT structure.
2273:..\CMSIS_DSP_LIB\Include/arm_math.h ****    * @param[in]     N          length of the DCT4.
2274:..\CMSIS_DSP_LIB\Include/arm_math.h ****    * @param[in]     Nby2       half of the length of the DCT4.
2275:..\CMSIS_DSP_LIB\Include/arm_math.h ****    * @param[in]     normalize  normalizing factor.
2276:..\CMSIS_DSP_LIB\Include/arm_math.h ****    * @return      arm_status function returns ARM_MATH_SUCCESS if initialization is successful or A
2277:..\CMSIS_DSP_LIB\Include/arm_math.h ****    */
2278:..\CMSIS_DSP_LIB\Include/arm_math.h ****   arm_status arm_dct4_init_f32(
2279:..\CMSIS_DSP_LIB\Include/arm_math.h ****   arm_dct4_instance_f32 * S,
2280:..\CMSIS_DSP_LIB\Include/arm_math.h ****   arm_rfft_instance_f32 * S_RFFT,
2281:..\CMSIS_DSP_LIB\Include/arm_math.h ****   arm_cfft_radix4_instance_f32 * S_CFFT,
2282:..\CMSIS_DSP_LIB\Include/arm_math.h ****   uint16_t N,
2283:..\CMSIS_DSP_LIB\Include/arm_math.h ****   uint16_t Nby2,
2284:..\CMSIS_DSP_LIB\Include/arm_math.h ****   float32_t normalize);
2285:..\CMSIS_DSP_LIB\Include/arm_math.h **** 
2286:..\CMSIS_DSP_LIB\Include/arm_math.h **** 
2287:..\CMSIS_DSP_LIB\Include/arm_math.h ****   /**
2288:..\CMSIS_DSP_LIB\Include/arm_math.h ****    * @brief Processing function for the floating-point DCT4/IDCT4.
2289:..\CMSIS_DSP_LIB\Include/arm_math.h ****    * @param[in]     S              points to an instance of the floating-point DCT4/IDCT4 structure
2290:..\CMSIS_DSP_LIB\Include/arm_math.h ****    * @param[in]     pState         points to state buffer.
2291:..\CMSIS_DSP_LIB\Include/arm_math.h ****    * @param[in,out] pInlineBuffer  points to the in-place input and output buffer.
2292:..\CMSIS_DSP_LIB\Include/arm_math.h ****    */
2293:..\CMSIS_DSP_LIB\Include/arm_math.h ****   void arm_dct4_f32(
2294:..\CMSIS_DSP_LIB\Include/arm_math.h ****   const arm_dct4_instance_f32 * S,
2295:..\CMSIS_DSP_LIB\Include/arm_math.h ****   float32_t * pState,
2296:..\CMSIS_DSP_LIB\Include/arm_math.h ****   float32_t * pInlineBuffer);
2297:..\CMSIS_DSP_LIB\Include/arm_math.h **** 
2298:..\CMSIS_DSP_LIB\Include/arm_math.h **** 
2299:..\CMSIS_DSP_LIB\Include/arm_math.h ****   /**
2300:..\CMSIS_DSP_LIB\Include/arm_math.h ****    * @brief Instance structure for the Q31 DCT4/IDCT4 function.
2301:..\CMSIS_DSP_LIB\Include/arm_math.h ****    */
2302:..\CMSIS_DSP_LIB\Include/arm_math.h ****   typedef struct
2303:..\CMSIS_DSP_LIB\Include/arm_math.h ****   {
2304:..\CMSIS_DSP_LIB\Include/arm_math.h ****     uint16_t N;                          /**< length of the DCT4. */
2305:..\CMSIS_DSP_LIB\Include/arm_math.h ****     uint16_t Nby2;                       /**< half of the length of the DCT4. */
2306:..\CMSIS_DSP_LIB\Include/arm_math.h ****     q31_t normalize;                     /**< normalizing factor. */
2307:..\CMSIS_DSP_LIB\Include/arm_math.h ****     q31_t *pTwiddle;                     /**< points to the twiddle factor table. */
2308:..\CMSIS_DSP_LIB\Include/arm_math.h ****     q31_t *pCosFactor;                   /**< points to the cosFactor table. */
2309:..\CMSIS_DSP_LIB\Include/arm_math.h ****     arm_rfft_instance_q31 *pRfft;        /**< points to the real FFT instance. */
2310:..\CMSIS_DSP_LIB\Include/arm_math.h ****     arm_cfft_radix4_instance_q31 *pCfft; /**< points to the complex FFT instance. */
2311:..\CMSIS_DSP_LIB\Include/arm_math.h ****   } arm_dct4_instance_q31;
2312:..\CMSIS_DSP_LIB\Include/arm_math.h **** 
2313:..\CMSIS_DSP_LIB\Include/arm_math.h **** 
2314:..\CMSIS_DSP_LIB\Include/arm_math.h ****   /**
2315:..\CMSIS_DSP_LIB\Include/arm_math.h ****    * @brief  Initialization function for the Q31 DCT4/IDCT4.
ARM GAS  C:\Users\koseki\AppData\Local\Temp\ccPCtr5f.s 			page 64


2316:..\CMSIS_DSP_LIB\Include/arm_math.h ****    * @param[in,out] S          points to an instance of Q31 DCT4/IDCT4 structure.
2317:..\CMSIS_DSP_LIB\Include/arm_math.h ****    * @param[in]     S_RFFT     points to an instance of Q31 RFFT/RIFFT structure
2318:..\CMSIS_DSP_LIB\Include/arm_math.h ****    * @param[in]     S_CFFT     points to an instance of Q31 CFFT/CIFFT structure
2319:..\CMSIS_DSP_LIB\Include/arm_math.h ****    * @param[in]     N          length of the DCT4.
2320:..\CMSIS_DSP_LIB\Include/arm_math.h ****    * @param[in]     Nby2       half of the length of the DCT4.
2321:..\CMSIS_DSP_LIB\Include/arm_math.h ****    * @param[in]     normalize  normalizing factor.
2322:..\CMSIS_DSP_LIB\Include/arm_math.h ****    * @return      arm_status function returns ARM_MATH_SUCCESS if initialization is successful or A
2323:..\CMSIS_DSP_LIB\Include/arm_math.h ****    */
2324:..\CMSIS_DSP_LIB\Include/arm_math.h ****   arm_status arm_dct4_init_q31(
2325:..\CMSIS_DSP_LIB\Include/arm_math.h ****   arm_dct4_instance_q31 * S,
2326:..\CMSIS_DSP_LIB\Include/arm_math.h ****   arm_rfft_instance_q31 * S_RFFT,
2327:..\CMSIS_DSP_LIB\Include/arm_math.h ****   arm_cfft_radix4_instance_q31 * S_CFFT,
2328:..\CMSIS_DSP_LIB\Include/arm_math.h ****   uint16_t N,
2329:..\CMSIS_DSP_LIB\Include/arm_math.h ****   uint16_t Nby2,
2330:..\CMSIS_DSP_LIB\Include/arm_math.h ****   q31_t normalize);
2331:..\CMSIS_DSP_LIB\Include/arm_math.h **** 
2332:..\CMSIS_DSP_LIB\Include/arm_math.h **** 
2333:..\CMSIS_DSP_LIB\Include/arm_math.h ****   /**
2334:..\CMSIS_DSP_LIB\Include/arm_math.h ****    * @brief Processing function for the Q31 DCT4/IDCT4.
2335:..\CMSIS_DSP_LIB\Include/arm_math.h ****    * @param[in]     S              points to an instance of the Q31 DCT4 structure.
2336:..\CMSIS_DSP_LIB\Include/arm_math.h ****    * @param[in]     pState         points to state buffer.
2337:..\CMSIS_DSP_LIB\Include/arm_math.h ****    * @param[in,out] pInlineBuffer  points to the in-place input and output buffer.
2338:..\CMSIS_DSP_LIB\Include/arm_math.h ****    */
2339:..\CMSIS_DSP_LIB\Include/arm_math.h ****   void arm_dct4_q31(
2340:..\CMSIS_DSP_LIB\Include/arm_math.h ****   const arm_dct4_instance_q31 * S,
2341:..\CMSIS_DSP_LIB\Include/arm_math.h ****   q31_t * pState,
2342:..\CMSIS_DSP_LIB\Include/arm_math.h ****   q31_t * pInlineBuffer);
2343:..\CMSIS_DSP_LIB\Include/arm_math.h **** 
2344:..\CMSIS_DSP_LIB\Include/arm_math.h **** 
2345:..\CMSIS_DSP_LIB\Include/arm_math.h ****   /**
2346:..\CMSIS_DSP_LIB\Include/arm_math.h ****    * @brief Instance structure for the Q15 DCT4/IDCT4 function.
2347:..\CMSIS_DSP_LIB\Include/arm_math.h ****    */
2348:..\CMSIS_DSP_LIB\Include/arm_math.h ****   typedef struct
2349:..\CMSIS_DSP_LIB\Include/arm_math.h ****   {
2350:..\CMSIS_DSP_LIB\Include/arm_math.h ****     uint16_t N;                          /**< length of the DCT4. */
2351:..\CMSIS_DSP_LIB\Include/arm_math.h ****     uint16_t Nby2;                       /**< half of the length of the DCT4. */
2352:..\CMSIS_DSP_LIB\Include/arm_math.h ****     q15_t normalize;                     /**< normalizing factor. */
2353:..\CMSIS_DSP_LIB\Include/arm_math.h ****     q15_t *pTwiddle;                     /**< points to the twiddle factor table. */
2354:..\CMSIS_DSP_LIB\Include/arm_math.h ****     q15_t *pCosFactor;                   /**< points to the cosFactor table. */
2355:..\CMSIS_DSP_LIB\Include/arm_math.h ****     arm_rfft_instance_q15 *pRfft;        /**< points to the real FFT instance. */
2356:..\CMSIS_DSP_LIB\Include/arm_math.h ****     arm_cfft_radix4_instance_q15 *pCfft; /**< points to the complex FFT instance. */
2357:..\CMSIS_DSP_LIB\Include/arm_math.h ****   } arm_dct4_instance_q15;
2358:..\CMSIS_DSP_LIB\Include/arm_math.h **** 
2359:..\CMSIS_DSP_LIB\Include/arm_math.h **** 
2360:..\CMSIS_DSP_LIB\Include/arm_math.h ****   /**
2361:..\CMSIS_DSP_LIB\Include/arm_math.h ****    * @brief  Initialization function for the Q15 DCT4/IDCT4.
2362:..\CMSIS_DSP_LIB\Include/arm_math.h ****    * @param[in,out] S          points to an instance of Q15 DCT4/IDCT4 structure.
2363:..\CMSIS_DSP_LIB\Include/arm_math.h ****    * @param[in]     S_RFFT     points to an instance of Q15 RFFT/RIFFT structure.
2364:..\CMSIS_DSP_LIB\Include/arm_math.h ****    * @param[in]     S_CFFT     points to an instance of Q15 CFFT/CIFFT structure.
2365:..\CMSIS_DSP_LIB\Include/arm_math.h ****    * @param[in]     N          length of the DCT4.
2366:..\CMSIS_DSP_LIB\Include/arm_math.h ****    * @param[in]     Nby2       half of the length of the DCT4.
2367:..\CMSIS_DSP_LIB\Include/arm_math.h ****    * @param[in]     normalize  normalizing factor.
2368:..\CMSIS_DSP_LIB\Include/arm_math.h ****    * @return      arm_status function returns ARM_MATH_SUCCESS if initialization is successful or A
2369:..\CMSIS_DSP_LIB\Include/arm_math.h ****    */
2370:..\CMSIS_DSP_LIB\Include/arm_math.h ****   arm_status arm_dct4_init_q15(
2371:..\CMSIS_DSP_LIB\Include/arm_math.h ****   arm_dct4_instance_q15 * S,
2372:..\CMSIS_DSP_LIB\Include/arm_math.h ****   arm_rfft_instance_q15 * S_RFFT,
ARM GAS  C:\Users\koseki\AppData\Local\Temp\ccPCtr5f.s 			page 65


2373:..\CMSIS_DSP_LIB\Include/arm_math.h ****   arm_cfft_radix4_instance_q15 * S_CFFT,
2374:..\CMSIS_DSP_LIB\Include/arm_math.h ****   uint16_t N,
2375:..\CMSIS_DSP_LIB\Include/arm_math.h ****   uint16_t Nby2,
2376:..\CMSIS_DSP_LIB\Include/arm_math.h ****   q15_t normalize);
2377:..\CMSIS_DSP_LIB\Include/arm_math.h **** 
2378:..\CMSIS_DSP_LIB\Include/arm_math.h **** 
2379:..\CMSIS_DSP_LIB\Include/arm_math.h ****   /**
2380:..\CMSIS_DSP_LIB\Include/arm_math.h ****    * @brief Processing function for the Q15 DCT4/IDCT4.
2381:..\CMSIS_DSP_LIB\Include/arm_math.h ****    * @param[in]     S              points to an instance of the Q15 DCT4 structure.
2382:..\CMSIS_DSP_LIB\Include/arm_math.h ****    * @param[in]     pState         points to state buffer.
2383:..\CMSIS_DSP_LIB\Include/arm_math.h ****    * @param[in,out] pInlineBuffer  points to the in-place input and output buffer.
2384:..\CMSIS_DSP_LIB\Include/arm_math.h ****    */
2385:..\CMSIS_DSP_LIB\Include/arm_math.h ****   void arm_dct4_q15(
2386:..\CMSIS_DSP_LIB\Include/arm_math.h ****   const arm_dct4_instance_q15 * S,
2387:..\CMSIS_DSP_LIB\Include/arm_math.h ****   q15_t * pState,
2388:..\CMSIS_DSP_LIB\Include/arm_math.h ****   q15_t * pInlineBuffer);
2389:..\CMSIS_DSP_LIB\Include/arm_math.h **** 
2390:..\CMSIS_DSP_LIB\Include/arm_math.h **** 
2391:..\CMSIS_DSP_LIB\Include/arm_math.h ****   /**
2392:..\CMSIS_DSP_LIB\Include/arm_math.h ****    * @brief Floating-point vector addition.
2393:..\CMSIS_DSP_LIB\Include/arm_math.h ****    * @param[in]  pSrcA      points to the first input vector
2394:..\CMSIS_DSP_LIB\Include/arm_math.h ****    * @param[in]  pSrcB      points to the second input vector
2395:..\CMSIS_DSP_LIB\Include/arm_math.h ****    * @param[out] pDst       points to the output vector
2396:..\CMSIS_DSP_LIB\Include/arm_math.h ****    * @param[in]  blockSize  number of samples in each vector
2397:..\CMSIS_DSP_LIB\Include/arm_math.h ****    */
2398:..\CMSIS_DSP_LIB\Include/arm_math.h ****   void arm_add_f32(
2399:..\CMSIS_DSP_LIB\Include/arm_math.h ****   float32_t * pSrcA,
2400:..\CMSIS_DSP_LIB\Include/arm_math.h ****   float32_t * pSrcB,
2401:..\CMSIS_DSP_LIB\Include/arm_math.h ****   float32_t * pDst,
