ARM GAS  C:\Users\koseki\AppData\Local\Temp\ccdCQdSc.s 			page 1


   1              		.syntax unified
   2              		.cpu cortex-m3
   3              		.fpu softvfp
   4              		.eabi_attribute 20, 1
   5              		.eabi_attribute 21, 1
   6              		.eabi_attribute 23, 3
   7              		.eabi_attribute 24, 1
   8              		.eabi_attribute 25, 1
   9              		.eabi_attribute 26, 1
  10              		.eabi_attribute 30, 1
  11              		.eabi_attribute 34, 1
  12              		.eabi_attribute 18, 4
  13              		.thumb
  14              		.file	"cyfitter_cfg.c"
  15              		.text
  16              	.Ltext0:
  17              		.cfi_sections	.debug_frame
  18              		.section	.text.CyClockStartupError,"ax",%progbits
  19              		.align	2
  20              		.thumb
  21              		.thumb_func
  22              		.type	CyClockStartupError, %function
  23              	CyClockStartupError:
  24              	.LFB3:
  25              		.file 1 "Generated_Source\\PSoC5\\cyfitter_cfg.c"
   1:Generated_Source\PSoC5/cyfitter_cfg.c **** /*******************************************************************************
   2:Generated_Source\PSoC5/cyfitter_cfg.c **** * File Name: cyfitter_cfg.c
   3:Generated_Source\PSoC5/cyfitter_cfg.c **** * 
   4:Generated_Source\PSoC5/cyfitter_cfg.c **** * PSoC Creator  4.0 Update 1
   5:Generated_Source\PSoC5/cyfitter_cfg.c **** *
   6:Generated_Source\PSoC5/cyfitter_cfg.c **** * Description:
   7:Generated_Source\PSoC5/cyfitter_cfg.c **** * This file contains device initialization code.
   8:Generated_Source\PSoC5/cyfitter_cfg.c **** * Except for the user defined sections in CyClockStartupError(), this file should not be modified.
   9:Generated_Source\PSoC5/cyfitter_cfg.c **** * This file is automatically generated by PSoC Creator.
  10:Generated_Source\PSoC5/cyfitter_cfg.c **** *
  11:Generated_Source\PSoC5/cyfitter_cfg.c **** ********************************************************************************
  12:Generated_Source\PSoC5/cyfitter_cfg.c **** * Copyright (c) 2007-2016 Cypress Semiconductor.  All rights reserved.
  13:Generated_Source\PSoC5/cyfitter_cfg.c **** * You may use this file only in accordance with the license, terms, conditions, 
  14:Generated_Source\PSoC5/cyfitter_cfg.c **** * disclaimers, and limitations in the end user license agreement accompanying 
  15:Generated_Source\PSoC5/cyfitter_cfg.c **** * the software package with which this file was provided.
  16:Generated_Source\PSoC5/cyfitter_cfg.c **** ********************************************************************************/
  17:Generated_Source\PSoC5/cyfitter_cfg.c **** 
  18:Generated_Source\PSoC5/cyfitter_cfg.c **** #include <string.h>
  19:Generated_Source\PSoC5/cyfitter_cfg.c **** #include "cytypes.h"
  20:Generated_Source\PSoC5/cyfitter_cfg.c **** #include "cydevice_trm.h"
  21:Generated_Source\PSoC5/cyfitter_cfg.c **** #include "cyfitter.h"
  22:Generated_Source\PSoC5/cyfitter_cfg.c **** #include "CyLib.h"
  23:Generated_Source\PSoC5/cyfitter_cfg.c **** #include "cyfitter_cfg.h"
  24:Generated_Source\PSoC5/cyfitter_cfg.c **** 
  25:Generated_Source\PSoC5/cyfitter_cfg.c **** #define CY_NEED_CYCLOCKSTARTUPERROR 1
  26:Generated_Source\PSoC5/cyfitter_cfg.c **** 
  27:Generated_Source\PSoC5/cyfitter_cfg.c **** 
  28:Generated_Source\PSoC5/cyfitter_cfg.c **** #if defined(__GNUC__) || defined(__ARMCC_VERSION)
  29:Generated_Source\PSoC5/cyfitter_cfg.c ****     #define CYPACKED 
  30:Generated_Source\PSoC5/cyfitter_cfg.c ****     #define CYPACKED_ATTR __attribute__ ((packed))
  31:Generated_Source\PSoC5/cyfitter_cfg.c ****     #define CYALIGNED __attribute__ ((aligned))
  32:Generated_Source\PSoC5/cyfitter_cfg.c ****     #define CY_CFG_UNUSED __attribute__ ((unused))
ARM GAS  C:\Users\koseki\AppData\Local\Temp\ccdCQdSc.s 			page 2


  33:Generated_Source\PSoC5/cyfitter_cfg.c ****     #ifndef CY_CFG_SECTION
  34:Generated_Source\PSoC5/cyfitter_cfg.c ****         #define CY_CFG_SECTION __attribute__ ((section(".psocinit")))
  35:Generated_Source\PSoC5/cyfitter_cfg.c ****     #endif
  36:Generated_Source\PSoC5/cyfitter_cfg.c ****     
  37:Generated_Source\PSoC5/cyfitter_cfg.c ****     #if defined(__ARMCC_VERSION)
  38:Generated_Source\PSoC5/cyfitter_cfg.c ****         #define CY_CFG_MEMORY_BARRIER() __memory_changed()
  39:Generated_Source\PSoC5/cyfitter_cfg.c ****     #else
  40:Generated_Source\PSoC5/cyfitter_cfg.c ****         #define CY_CFG_MEMORY_BARRIER() __sync_synchronize()
  41:Generated_Source\PSoC5/cyfitter_cfg.c ****     #endif
  42:Generated_Source\PSoC5/cyfitter_cfg.c ****     
  43:Generated_Source\PSoC5/cyfitter_cfg.c **** #elif defined(__ICCARM__)
  44:Generated_Source\PSoC5/cyfitter_cfg.c ****     #include <intrinsics.h>
  45:Generated_Source\PSoC5/cyfitter_cfg.c **** 
  46:Generated_Source\PSoC5/cyfitter_cfg.c ****     #define CYPACKED __packed
  47:Generated_Source\PSoC5/cyfitter_cfg.c ****     #define CYPACKED_ATTR 
  48:Generated_Source\PSoC5/cyfitter_cfg.c ****     #define CYALIGNED _Pragma("data_alignment=4")
  49:Generated_Source\PSoC5/cyfitter_cfg.c ****     #define CY_CFG_UNUSED _Pragma("diag_suppress=Pe177")
  50:Generated_Source\PSoC5/cyfitter_cfg.c ****     #define CY_CFG_SECTION _Pragma("location=\".psocinit\"")
  51:Generated_Source\PSoC5/cyfitter_cfg.c ****     
  52:Generated_Source\PSoC5/cyfitter_cfg.c ****     #define CY_CFG_MEMORY_BARRIER() __DMB()
  53:Generated_Source\PSoC5/cyfitter_cfg.c ****     
  54:Generated_Source\PSoC5/cyfitter_cfg.c **** #else
  55:Generated_Source\PSoC5/cyfitter_cfg.c ****     #error Unsupported toolchain
  56:Generated_Source\PSoC5/cyfitter_cfg.c **** #endif
  57:Generated_Source\PSoC5/cyfitter_cfg.c **** 
  58:Generated_Source\PSoC5/cyfitter_cfg.c **** 
  59:Generated_Source\PSoC5/cyfitter_cfg.c **** CY_CFG_UNUSED
  60:Generated_Source\PSoC5/cyfitter_cfg.c **** static void CYMEMZERO(void *s, size_t n);
  61:Generated_Source\PSoC5/cyfitter_cfg.c **** CY_CFG_UNUSED
  62:Generated_Source\PSoC5/cyfitter_cfg.c **** static void CYMEMZERO(void *s, size_t n)
  63:Generated_Source\PSoC5/cyfitter_cfg.c **** {
  64:Generated_Source\PSoC5/cyfitter_cfg.c **** 	(void)memset(s, 0, n);
  65:Generated_Source\PSoC5/cyfitter_cfg.c **** }
  66:Generated_Source\PSoC5/cyfitter_cfg.c **** CY_CFG_UNUSED
  67:Generated_Source\PSoC5/cyfitter_cfg.c **** static void CYCONFIGCPY(void *dest, const void *src, size_t n);
  68:Generated_Source\PSoC5/cyfitter_cfg.c **** CY_CFG_UNUSED
  69:Generated_Source\PSoC5/cyfitter_cfg.c **** static void CYCONFIGCPY(void *dest, const void *src, size_t n)
  70:Generated_Source\PSoC5/cyfitter_cfg.c **** {
  71:Generated_Source\PSoC5/cyfitter_cfg.c **** 	(void)memcpy(dest, src, n);
  72:Generated_Source\PSoC5/cyfitter_cfg.c **** }
  73:Generated_Source\PSoC5/cyfitter_cfg.c **** CY_CFG_UNUSED
  74:Generated_Source\PSoC5/cyfitter_cfg.c **** static void CYCONFIGCPYCODE(void *dest, const void *src, size_t n);
  75:Generated_Source\PSoC5/cyfitter_cfg.c **** CY_CFG_UNUSED
  76:Generated_Source\PSoC5/cyfitter_cfg.c **** static void CYCONFIGCPYCODE(void *dest, const void *src, size_t n)
  77:Generated_Source\PSoC5/cyfitter_cfg.c **** {
  78:Generated_Source\PSoC5/cyfitter_cfg.c **** 	(void)memcpy(dest, src, n);
  79:Generated_Source\PSoC5/cyfitter_cfg.c **** }
  80:Generated_Source\PSoC5/cyfitter_cfg.c **** 
  81:Generated_Source\PSoC5/cyfitter_cfg.c **** 
  82:Generated_Source\PSoC5/cyfitter_cfg.c **** 
  83:Generated_Source\PSoC5/cyfitter_cfg.c **** 
  84:Generated_Source\PSoC5/cyfitter_cfg.c **** /* Clock startup error codes                                                   */
  85:Generated_Source\PSoC5/cyfitter_cfg.c **** #define CYCLOCKSTART_NO_ERROR    0u
  86:Generated_Source\PSoC5/cyfitter_cfg.c **** #define CYCLOCKSTART_XTAL_ERROR  1u
  87:Generated_Source\PSoC5/cyfitter_cfg.c **** #define CYCLOCKSTART_32KHZ_ERROR 2u
  88:Generated_Source\PSoC5/cyfitter_cfg.c **** #define CYCLOCKSTART_PLL_ERROR   3u
  89:Generated_Source\PSoC5/cyfitter_cfg.c **** 
ARM GAS  C:\Users\koseki\AppData\Local\Temp\ccdCQdSc.s 			page 3


  90:Generated_Source\PSoC5/cyfitter_cfg.c **** 
  91:Generated_Source\PSoC5/cyfitter_cfg.c **** #ifdef CY_NEED_CYCLOCKSTARTUPERROR
  92:Generated_Source\PSoC5/cyfitter_cfg.c **** /*******************************************************************************
  93:Generated_Source\PSoC5/cyfitter_cfg.c **** * Function Name: CyClockStartupError
  94:Generated_Source\PSoC5/cyfitter_cfg.c **** ********************************************************************************
  95:Generated_Source\PSoC5/cyfitter_cfg.c **** * Summary:
  96:Generated_Source\PSoC5/cyfitter_cfg.c **** *  If an error is encountered during clock configuration (crystal startup error,
  97:Generated_Source\PSoC5/cyfitter_cfg.c **** *  PLL lock error, etc.), the system will end up here.  Unless reimplemented by
  98:Generated_Source\PSoC5/cyfitter_cfg.c **** *  the customer, this function will stop in an infinite loop.
  99:Generated_Source\PSoC5/cyfitter_cfg.c **** *
 100:Generated_Source\PSoC5/cyfitter_cfg.c **** * Parameters:
 101:Generated_Source\PSoC5/cyfitter_cfg.c **** *   void
 102:Generated_Source\PSoC5/cyfitter_cfg.c **** *
 103:Generated_Source\PSoC5/cyfitter_cfg.c **** * Return:
 104:Generated_Source\PSoC5/cyfitter_cfg.c **** *   void
 105:Generated_Source\PSoC5/cyfitter_cfg.c **** *
 106:Generated_Source\PSoC5/cyfitter_cfg.c **** *******************************************************************************/
 107:Generated_Source\PSoC5/cyfitter_cfg.c **** CY_CFG_UNUSED
 108:Generated_Source\PSoC5/cyfitter_cfg.c **** static void CyClockStartupError(uint8 errorCode);
 109:Generated_Source\PSoC5/cyfitter_cfg.c **** CY_CFG_UNUSED
 110:Generated_Source\PSoC5/cyfitter_cfg.c **** static void CyClockStartupError(uint8 errorCode)
 111:Generated_Source\PSoC5/cyfitter_cfg.c **** {
  26              		.loc 1 111 0
  27              		.cfi_startproc
  28              		@ Volatile: function does not return.
  29              		@ args = 0, pretend = 0, frame = 0
  30              		@ frame_needed = 0, uses_anonymous_args = 0
  31              		@ link register save eliminated.
  32              	.LVL0:
  33              	.L2:
 112:Generated_Source\PSoC5/cyfitter_cfg.c ****     /* To remove the compiler warning if errorCode not used.                */
 113:Generated_Source\PSoC5/cyfitter_cfg.c ****     errorCode = errorCode;
 114:Generated_Source\PSoC5/cyfitter_cfg.c **** 
 115:Generated_Source\PSoC5/cyfitter_cfg.c ****     /* If we have a clock startup error (bad MHz crystal, PLL lock, etc.),  */
 116:Generated_Source\PSoC5/cyfitter_cfg.c ****     /* we will end up here to allow the customer to implement something to  */
 117:Generated_Source\PSoC5/cyfitter_cfg.c ****     /* deal with the clock condition.                                       */
 118:Generated_Source\PSoC5/cyfitter_cfg.c **** 
 119:Generated_Source\PSoC5/cyfitter_cfg.c **** #ifdef CY_CFG_CLOCK_STARTUP_ERROR_CALLBACK
 120:Generated_Source\PSoC5/cyfitter_cfg.c **** 	CY_CFG_Clock_Startup_ErrorCallback();
 121:Generated_Source\PSoC5/cyfitter_cfg.c **** #else
 122:Generated_Source\PSoC5/cyfitter_cfg.c **** 	/*  If not using CY_CFG_CLOCK_STARTUP_ERROR_CALLBACK, place your clock startup code here. */
 123:Generated_Source\PSoC5/cyfitter_cfg.c ****     /* `#START CyClockStartupError` */
 124:Generated_Source\PSoC5/cyfitter_cfg.c **** 
 125:Generated_Source\PSoC5/cyfitter_cfg.c ****     /* If we have a clock startup error (bad MHz crystal, PLL lock, etc.),  */
 126:Generated_Source\PSoC5/cyfitter_cfg.c ****     /* we will end up here to allow the customer to implement something to  */
 127:Generated_Source\PSoC5/cyfitter_cfg.c ****     /* deal with the clock condition.                                       */
 128:Generated_Source\PSoC5/cyfitter_cfg.c **** 
 129:Generated_Source\PSoC5/cyfitter_cfg.c ****     /* `#END` */
 130:Generated_Source\PSoC5/cyfitter_cfg.c **** 
 131:Generated_Source\PSoC5/cyfitter_cfg.c ****     /* If nothing else, stop here since the clocks have not started         */
 132:Generated_Source\PSoC5/cyfitter_cfg.c ****     /* correctly.                                                           */
 133:Generated_Source\PSoC5/cyfitter_cfg.c ****     while(1) {}
  34              		.loc 1 133 0 discriminator 1
  35 0000 FEE7     		b	.L2
  36              		.cfi_endproc
  37              	.LFE3:
  38              		.size	CyClockStartupError, .-CyClockStartupError
ARM GAS  C:\Users\koseki\AppData\Local\Temp\ccdCQdSc.s 			page 4


  39 0002 00BF     		.section	.text.cfg_write_bytes32,"ax",%progbits
  40              		.align	2
  41              		.thumb
  42              		.thumb_func
  43              		.type	cfg_write_bytes32, %function
  44              	cfg_write_bytes32:
  45              	.LFB4:
 134:Generated_Source\PSoC5/cyfitter_cfg.c **** #endif /* CY_CFG_CLOCK_STARTUP_ERROR_CALLBACK */ 
 135:Generated_Source\PSoC5/cyfitter_cfg.c **** }
 136:Generated_Source\PSoC5/cyfitter_cfg.c **** #endif
 137:Generated_Source\PSoC5/cyfitter_cfg.c **** 
 138:Generated_Source\PSoC5/cyfitter_cfg.c **** #define CY_CFG_BASE_ADDR_COUNT 33u
 139:Generated_Source\PSoC5/cyfitter_cfg.c **** CYPACKED typedef struct
 140:Generated_Source\PSoC5/cyfitter_cfg.c **** {
 141:Generated_Source\PSoC5/cyfitter_cfg.c **** 	uint8 offset;
 142:Generated_Source\PSoC5/cyfitter_cfg.c **** 	uint8 value;
 143:Generated_Source\PSoC5/cyfitter_cfg.c **** } CYPACKED_ATTR cy_cfg_addrvalue_t;
 144:Generated_Source\PSoC5/cyfitter_cfg.c **** 
 145:Generated_Source\PSoC5/cyfitter_cfg.c **** #define cy_cfg_addr_table ((const uint32 CYFAR *)0x48000000u)
 146:Generated_Source\PSoC5/cyfitter_cfg.c **** #define cy_cfg_data_table ((const cy_cfg_addrvalue_t CYFAR *)0x48000084u)
 147:Generated_Source\PSoC5/cyfitter_cfg.c **** 
 148:Generated_Source\PSoC5/cyfitter_cfg.c **** /* UDB_0_3_1_CONFIG Address: CYDEV_UCFG_B0_P5_U1_BASE Size (bytes): 128 */
 149:Generated_Source\PSoC5/cyfitter_cfg.c **** #define BS_UDB_0_3_1_CONFIG_VAL ((const uint8 CYFAR *)0x480003E0u)
 150:Generated_Source\PSoC5/cyfitter_cfg.c **** 
 151:Generated_Source\PSoC5/cyfitter_cfg.c **** /* IOPINS0_0 Address: CYREG_PRT0_DM0 Size (bytes): 8 */
 152:Generated_Source\PSoC5/cyfitter_cfg.c **** #define BS_IOPINS0_0_VAL ((const uint8 CYFAR *)0x48000460u)
 153:Generated_Source\PSoC5/cyfitter_cfg.c **** 
 154:Generated_Source\PSoC5/cyfitter_cfg.c **** /* IOPINS0_7 Address: CYREG_PRT12_DM0 Size (bytes): 8 */
 155:Generated_Source\PSoC5/cyfitter_cfg.c **** #define BS_IOPINS0_7_VAL ((const uint8 CYFAR *)0x48000468u)
 156:Generated_Source\PSoC5/cyfitter_cfg.c **** 
 157:Generated_Source\PSoC5/cyfitter_cfg.c **** /* IOPINS0_8 Address: CYREG_PRT15_DM0 Size (bytes): 8 */
 158:Generated_Source\PSoC5/cyfitter_cfg.c **** #define BS_IOPINS0_8_VAL ((const uint8 CYFAR *)0x48000470u)
 159:Generated_Source\PSoC5/cyfitter_cfg.c **** 
 160:Generated_Source\PSoC5/cyfitter_cfg.c **** /* IOPINS0_1 Address: CYREG_PRT1_DM0 Size (bytes): 8 */
 161:Generated_Source\PSoC5/cyfitter_cfg.c **** #define BS_IOPINS0_1_VAL ((const uint8 CYFAR *)0x48000478u)
 162:Generated_Source\PSoC5/cyfitter_cfg.c **** 
 163:Generated_Source\PSoC5/cyfitter_cfg.c **** /* IOPINS0_2 Address: CYREG_PRT2_DR Size (bytes): 10 */
 164:Generated_Source\PSoC5/cyfitter_cfg.c **** #define BS_IOPINS0_2_VAL ((const uint8 CYFAR *)0x48000480u)
 165:Generated_Source\PSoC5/cyfitter_cfg.c **** 
 166:Generated_Source\PSoC5/cyfitter_cfg.c **** /* IOPINS0_3 Address: CYREG_PRT3_DM0 Size (bytes): 8 */
 167:Generated_Source\PSoC5/cyfitter_cfg.c **** #define BS_IOPINS0_3_VAL ((const uint8 CYFAR *)0x4800048Cu)
 168:Generated_Source\PSoC5/cyfitter_cfg.c **** 
 169:Generated_Source\PSoC5/cyfitter_cfg.c **** /* CYDEV_CLKDIST_ACFG0_CFG0 Address: CYREG_CLKDIST_ACFG0_CFG0 Size (bytes): 4 */
 170:Generated_Source\PSoC5/cyfitter_cfg.c **** #define BS_CYDEV_CLKDIST_ACFG0_CFG0_VAL ((const uint8 CYFAR *)0x48000494u)
 171:Generated_Source\PSoC5/cyfitter_cfg.c **** 
 172:Generated_Source\PSoC5/cyfitter_cfg.c **** 
 173:Generated_Source\PSoC5/cyfitter_cfg.c **** /*******************************************************************************
 174:Generated_Source\PSoC5/cyfitter_cfg.c **** * Function Name: cfg_write_bytes32
 175:Generated_Source\PSoC5/cyfitter_cfg.c **** ********************************************************************************
 176:Generated_Source\PSoC5/cyfitter_cfg.c **** * Summary:
 177:Generated_Source\PSoC5/cyfitter_cfg.c **** *  This function is used for setting up the chip configuration areas that
 178:Generated_Source\PSoC5/cyfitter_cfg.c **** *  contain relatively sparse data.
 179:Generated_Source\PSoC5/cyfitter_cfg.c **** *
 180:Generated_Source\PSoC5/cyfitter_cfg.c **** * Parameters:
 181:Generated_Source\PSoC5/cyfitter_cfg.c **** *   void
 182:Generated_Source\PSoC5/cyfitter_cfg.c **** *
 183:Generated_Source\PSoC5/cyfitter_cfg.c **** * Return:
ARM GAS  C:\Users\koseki\AppData\Local\Temp\ccdCQdSc.s 			page 5


 184:Generated_Source\PSoC5/cyfitter_cfg.c **** *   void
 185:Generated_Source\PSoC5/cyfitter_cfg.c **** *
 186:Generated_Source\PSoC5/cyfitter_cfg.c **** *******************************************************************************/
 187:Generated_Source\PSoC5/cyfitter_cfg.c **** static void cfg_write_bytes32(const uint32 addr_table[], const cy_cfg_addrvalue_t data_table[]);
 188:Generated_Source\PSoC5/cyfitter_cfg.c **** static void cfg_write_bytes32(const uint32 addr_table[], const cy_cfg_addrvalue_t data_table[])
 189:Generated_Source\PSoC5/cyfitter_cfg.c **** {
  46              		.loc 1 189 0
  47              		.cfi_startproc
  48              		@ args = 0, pretend = 0, frame = 0
  49              		@ frame_needed = 0, uses_anonymous_args = 0
  50              		@ link register save eliminated.
  51              	.LVL1:
  52 0000 F0B4     		push	{r4, r5, r6, r7}
  53              		.cfi_def_cfa_offset 16
  54              		.cfi_offset 4, -16
  55              		.cfi_offset 5, -12
  56              		.cfi_offset 6, -8
  57              		.cfi_offset 7, -4
  58              	.LVL2:
 190:Generated_Source\PSoC5/cyfitter_cfg.c **** 	/* For 32-bit little-endian architectures */
 191:Generated_Source\PSoC5/cyfitter_cfg.c **** 	uint32 i, j = 0u;
  59              		.loc 1 191 0
  60 0002 0022     		movs	r2, #0
 192:Generated_Source\PSoC5/cyfitter_cfg.c **** 	for (i = 0u; i < CY_CFG_BASE_ADDR_COUNT; i++)
  61              		.loc 1 192 0
  62 0004 1746     		mov	r7, r2
  63 0006 11E0     		b	.L4
  64              	.LVL3:
  65              	.L7:
  66              	.LBB2:
 193:Generated_Source\PSoC5/cyfitter_cfg.c **** 	{
 194:Generated_Source\PSoC5/cyfitter_cfg.c **** 		uint32 baseAddr = addr_table[i];
  67              		.loc 1 194 0
  68 0008 50F82760 		ldr	r6, [r0, r7, lsl #2]
  69              	.LVL4:
 195:Generated_Source\PSoC5/cyfitter_cfg.c **** 		uint8 count = (uint8)baseAddr;
  70              		.loc 1 195 0
  71 000c F3B2     		uxtb	r3, r6
  72              	.LVL5:
 196:Generated_Source\PSoC5/cyfitter_cfg.c **** 		baseAddr &= 0xFFFFFF00u;
  73              		.loc 1 196 0
  74 000e 26F0FF06 		bic	r6, r6, #255
  75              	.LVL6:
 197:Generated_Source\PSoC5/cyfitter_cfg.c **** 		while (count != 0u)
  76              		.loc 1 197 0
  77 0012 08E0     		b	.L5
  78              	.L6:
 198:Generated_Source\PSoC5/cyfitter_cfg.c **** 		{
 199:Generated_Source\PSoC5/cyfitter_cfg.c **** 			CY_SET_XTND_REG8((void CYFAR *)(baseAddr + data_table[j].offset), data_table[j].value);
  79              		.loc 1 199 0
  80 0014 01EB4205 		add	r5, r1, r2, lsl #1
  81 0018 11F81240 		ldrb	r4, [r1, r2, lsl #1]	@ zero_extendqisi2
  82 001c 6D78     		ldrb	r5, [r5, #1]	@ zero_extendqisi2
  83 001e A555     		strb	r5, [r4, r6]
 200:Generated_Source\PSoC5/cyfitter_cfg.c **** 			j++;
  84              		.loc 1 200 0
  85 0020 0132     		adds	r2, r2, #1
ARM GAS  C:\Users\koseki\AppData\Local\Temp\ccdCQdSc.s 			page 6


  86              	.LVL7:
 201:Generated_Source\PSoC5/cyfitter_cfg.c **** 			count--;
  87              		.loc 1 201 0
  88 0022 013B     		subs	r3, r3, #1
  89              	.LVL8:
  90 0024 DBB2     		uxtb	r3, r3
  91              	.LVL9:
  92              	.L5:
 197:Generated_Source\PSoC5/cyfitter_cfg.c **** 		{
  93              		.loc 1 197 0
  94 0026 002B     		cmp	r3, #0
  95 0028 F4D1     		bne	.L6
  96              	.LBE2:
 192:Generated_Source\PSoC5/cyfitter_cfg.c **** 	{
  97              		.loc 1 192 0 discriminator 2
  98 002a 0137     		adds	r7, r7, #1
  99              	.LVL10:
 100              	.L4:
 192:Generated_Source\PSoC5/cyfitter_cfg.c **** 	{
 101              		.loc 1 192 0 is_stmt 0 discriminator 1
 102 002c 202F     		cmp	r7, #32
 103 002e EBD9     		bls	.L7
 202:Generated_Source\PSoC5/cyfitter_cfg.c **** 		}
 203:Generated_Source\PSoC5/cyfitter_cfg.c **** 	}
 204:Generated_Source\PSoC5/cyfitter_cfg.c **** }
 104              		.loc 1 204 0 is_stmt 1
 105 0030 F0BC     		pop	{r4, r5, r6, r7}
 106              		.cfi_restore 7
 107              		.cfi_restore 6
 108              		.cfi_restore 5
 109              		.cfi_restore 4
 110              		.cfi_def_cfa_offset 0
 111              	.LVL11:
 112 0032 7047     		bx	lr
 113              		.cfi_endproc
 114              	.LFE4:
 115              		.size	cfg_write_bytes32, .-cfg_write_bytes32
 116              		.section	.text.CYMEMZERO,"ax",%progbits
 117              		.align	2
 118              		.thumb
 119              		.thumb_func
 120              		.type	CYMEMZERO, %function
 121              	CYMEMZERO:
 122              	.LFB0:
  63:Generated_Source\PSoC5/cyfitter_cfg.c **** 	(void)memset(s, 0, n);
 123              		.loc 1 63 0
 124              		.cfi_startproc
 125              		@ args = 0, pretend = 0, frame = 0
 126              		@ frame_needed = 0, uses_anonymous_args = 0
 127              	.LVL12:
 128 0000 08B5     		push	{r3, lr}
 129              		.cfi_def_cfa_offset 8
 130              		.cfi_offset 3, -8
 131              		.cfi_offset 14, -4
 132 0002 0A46     		mov	r2, r1
  64:Generated_Source\PSoC5/cyfitter_cfg.c **** }
 133              		.loc 1 64 0
ARM GAS  C:\Users\koseki\AppData\Local\Temp\ccdCQdSc.s 			page 7


 134 0004 0021     		movs	r1, #0
 135              	.LVL13:
 136 0006 FFF7FEFF 		bl	memset
 137              	.LVL14:
 138 000a 08BD     		pop	{r3, pc}
 139              		.cfi_endproc
 140              	.LFE0:
 141              		.size	CYMEMZERO, .-CYMEMZERO
 142              		.section	.text.AnalogSetDefault,"ax",%progbits
 143              		.align	2
 144              		.thumb
 145              		.thumb_func
 146              		.type	AnalogSetDefault, %function
 147              	AnalogSetDefault:
 148              	.LFB6:
 205:Generated_Source\PSoC5/cyfitter_cfg.c **** 
 206:Generated_Source\PSoC5/cyfitter_cfg.c **** /*******************************************************************************
 207:Generated_Source\PSoC5/cyfitter_cfg.c **** * Function Name: ClockSetup
 208:Generated_Source\PSoC5/cyfitter_cfg.c **** ********************************************************************************
 209:Generated_Source\PSoC5/cyfitter_cfg.c **** *
 210:Generated_Source\PSoC5/cyfitter_cfg.c **** * Summary:
 211:Generated_Source\PSoC5/cyfitter_cfg.c **** *  Performs the initialization of all of the clocks in the device based on the
 212:Generated_Source\PSoC5/cyfitter_cfg.c **** *  settings in the Clock tab of the DWR.  This includes enabling the requested
 213:Generated_Source\PSoC5/cyfitter_cfg.c **** *  clocks and setting the necessary dividers to produce the desired frequency. 
 214:Generated_Source\PSoC5/cyfitter_cfg.c **** *
 215:Generated_Source\PSoC5/cyfitter_cfg.c **** * Parameters:
 216:Generated_Source\PSoC5/cyfitter_cfg.c **** *  void
 217:Generated_Source\PSoC5/cyfitter_cfg.c **** *
 218:Generated_Source\PSoC5/cyfitter_cfg.c **** * Return:
 219:Generated_Source\PSoC5/cyfitter_cfg.c **** *  void
 220:Generated_Source\PSoC5/cyfitter_cfg.c **** *
 221:Generated_Source\PSoC5/cyfitter_cfg.c **** *******************************************************************************/
 222:Generated_Source\PSoC5/cyfitter_cfg.c **** static void ClockSetup(void);
 223:Generated_Source\PSoC5/cyfitter_cfg.c **** static void ClockSetup(void)
 224:Generated_Source\PSoC5/cyfitter_cfg.c **** {
 225:Generated_Source\PSoC5/cyfitter_cfg.c **** 	uint32 timeout;
 226:Generated_Source\PSoC5/cyfitter_cfg.c **** 	uint8 pllLock;
 227:Generated_Source\PSoC5/cyfitter_cfg.c **** 
 228:Generated_Source\PSoC5/cyfitter_cfg.c **** 
 229:Generated_Source\PSoC5/cyfitter_cfg.c **** 	/* Configure Digital Clocks based on settings from Clock DWR */
 230:Generated_Source\PSoC5/cyfitter_cfg.c **** 	CY_SET_XTND_REG16((void CYFAR *)(CYREG_CLKDIST_DCFG0_CFG0), 0x0001u);
 231:Generated_Source\PSoC5/cyfitter_cfg.c **** 	CY_SET_XTND_REG8((void CYFAR *)(CYREG_CLKDIST_DCFG0_CFG0 + 0x2u), 0x1Fu);
 232:Generated_Source\PSoC5/cyfitter_cfg.c **** 	CY_SET_XTND_REG16((void CYFAR *)(CYREG_CLKDIST_DCFG1_CFG0), 0x0024u);
 233:Generated_Source\PSoC5/cyfitter_cfg.c **** 	CY_SET_XTND_REG8((void CYFAR *)(CYREG_CLKDIST_DCFG1_CFG0 + 0x2u), 0x18u);
 234:Generated_Source\PSoC5/cyfitter_cfg.c **** 	CY_SET_XTND_REG16((void CYFAR *)(CYREG_CLKDIST_DCFG2_CFG0), 0x0024u);
 235:Generated_Source\PSoC5/cyfitter_cfg.c **** 	CY_SET_XTND_REG8((void CYFAR *)(CYREG_CLKDIST_DCFG2_CFG0 + 0x2u), 0x18u);
 236:Generated_Source\PSoC5/cyfitter_cfg.c **** 	CY_SET_XTND_REG16((void CYFAR *)(CYREG_CLKDIST_DCFG3_CFG0), 0x0107u);
 237:Generated_Source\PSoC5/cyfitter_cfg.c **** 	CY_SET_XTND_REG8((void CYFAR *)(CYREG_CLKDIST_DCFG3_CFG0 + 0x2u), 0x18u);
 238:Generated_Source\PSoC5/cyfitter_cfg.c **** 	CY_SET_XTND_REG16((void CYFAR *)(CYREG_CLKDIST_DCFG4_CFG0), 0x0107u);
 239:Generated_Source\PSoC5/cyfitter_cfg.c **** 	CY_SET_XTND_REG8((void CYFAR *)(CYREG_CLKDIST_DCFG4_CFG0 + 0x2u), 0x18u);
 240:Generated_Source\PSoC5/cyfitter_cfg.c **** 	CY_SET_XTND_REG16((void CYFAR *)(CYREG_CLKDIST_DCFG5_CFG0), 0x0293u);
 241:Generated_Source\PSoC5/cyfitter_cfg.c **** 	CY_SET_XTND_REG8((void CYFAR *)(CYREG_CLKDIST_DCFG5_CFG0 + 0x2u), 0x18u);
 242:Generated_Source\PSoC5/cyfitter_cfg.c **** 	CY_SET_XTND_REG16((void CYFAR *)(CYREG_CLKDIST_DCFG6_CFG0), 0x101Cu);
 243:Generated_Source\PSoC5/cyfitter_cfg.c **** 	CY_SET_XTND_REG8((void CYFAR *)(CYREG_CLKDIST_DCFG6_CFG0 + 0x2u), 0x18u);
 244:Generated_Source\PSoC5/cyfitter_cfg.c **** 
 245:Generated_Source\PSoC5/cyfitter_cfg.c **** 	/* Configure Analog Clocks based on settings from Clock DWR */
 246:Generated_Source\PSoC5/cyfitter_cfg.c **** 	CYCONFIGCPY((void CYFAR *)(CYREG_CLKDIST_ACFG0_CFG0), (const void CYFAR *)(BS_CYDEV_CLKDIST_ACFG0_
ARM GAS  C:\Users\koseki\AppData\Local\Temp\ccdCQdSc.s 			page 8


 247:Generated_Source\PSoC5/cyfitter_cfg.c **** 
 248:Generated_Source\PSoC5/cyfitter_cfg.c **** 	/* Configure ILO based on settings from Clock DWR */
 249:Generated_Source\PSoC5/cyfitter_cfg.c **** 	CY_SET_XTND_REG8((void CYFAR *)(CYREG_SLOWCLK_ILO_CR0), 0x06u);
 250:Generated_Source\PSoC5/cyfitter_cfg.c **** 
 251:Generated_Source\PSoC5/cyfitter_cfg.c **** 	/* Configure IMO based on settings from Clock DWR */
 252:Generated_Source\PSoC5/cyfitter_cfg.c **** 	CY_SET_XTND_REG8((void CYFAR *)(CYREG_FASTCLK_IMO_CR), 0x52u);
 253:Generated_Source\PSoC5/cyfitter_cfg.c **** 	CY_SET_XTND_REG8((void CYFAR *)(CYREG_IMO_TR1), (CY_GET_XTND_REG8((void CYFAR *)CYREG_FLSHID_CUST_
 254:Generated_Source\PSoC5/cyfitter_cfg.c **** 
 255:Generated_Source\PSoC5/cyfitter_cfg.c **** 	/* Configure PLL based on settings from Clock DWR */
 256:Generated_Source\PSoC5/cyfitter_cfg.c **** 	CY_SET_XTND_REG16((void CYFAR *)(CYREG_FASTCLK_PLL_P), 0x0B21u);
 257:Generated_Source\PSoC5/cyfitter_cfg.c **** 	CY_SET_XTND_REG16((void CYFAR *)(CYREG_FASTCLK_PLL_CFG0), 0x1251u);
 258:Generated_Source\PSoC5/cyfitter_cfg.c **** 	/* Wait up to 250us for the PLL to lock */
 259:Generated_Source\PSoC5/cyfitter_cfg.c **** 	pllLock = 0u;
 260:Generated_Source\PSoC5/cyfitter_cfg.c **** 	for (timeout = 250u / 10u; (timeout > 0u) && (pllLock != 0x03u); timeout--)
 261:Generated_Source\PSoC5/cyfitter_cfg.c **** 	{ 
 262:Generated_Source\PSoC5/cyfitter_cfg.c **** 		pllLock = 0x03u & ((uint8)((uint8)pllLock << 1) | ((CY_GET_XTND_REG8((void CYFAR *)CYREG_FASTCLK_
 263:Generated_Source\PSoC5/cyfitter_cfg.c **** 		CyDelayCycles(10u * 48u); /* Delay 10us based on 48MHz clock */
 264:Generated_Source\PSoC5/cyfitter_cfg.c **** 	}
 265:Generated_Source\PSoC5/cyfitter_cfg.c **** 	/* If we ran out of time the PLL didn't lock so go to the error function */
 266:Generated_Source\PSoC5/cyfitter_cfg.c **** 	if (timeout == 0u)
 267:Generated_Source\PSoC5/cyfitter_cfg.c **** 	{
 268:Generated_Source\PSoC5/cyfitter_cfg.c **** 		CyClockStartupError(CYCLOCKSTART_PLL_ERROR);
 269:Generated_Source\PSoC5/cyfitter_cfg.c **** 	}
 270:Generated_Source\PSoC5/cyfitter_cfg.c **** 
 271:Generated_Source\PSoC5/cyfitter_cfg.c **** 	/* Configure Bus/Master Clock based on settings from Clock DWR */
 272:Generated_Source\PSoC5/cyfitter_cfg.c **** 	CY_SET_XTND_REG16((void CYFAR *)(CYREG_CLKDIST_MSTR0), 0x0100u);
 273:Generated_Source\PSoC5/cyfitter_cfg.c **** 	CY_SET_XTND_REG8((void CYFAR *)(CYREG_CLKDIST_MSTR0), 0x07u);
 274:Generated_Source\PSoC5/cyfitter_cfg.c **** 	CY_SET_XTND_REG8((void CYFAR *)(CYREG_CLKDIST_BCFG0), 0x00u);
 275:Generated_Source\PSoC5/cyfitter_cfg.c **** 	CY_SET_XTND_REG8((void CYFAR *)(CYREG_CLKDIST_BCFG2), 0x48u);
 276:Generated_Source\PSoC5/cyfitter_cfg.c **** 	CY_SET_XTND_REG8((void CYFAR *)(CYREG_CLKDIST_MSTR0), 0x00u);
 277:Generated_Source\PSoC5/cyfitter_cfg.c **** 
 278:Generated_Source\PSoC5/cyfitter_cfg.c **** 	/* Configure USB Clock based on settings from Clock DWR */
 279:Generated_Source\PSoC5/cyfitter_cfg.c **** 	CY_SET_XTND_REG8((void CYFAR *)(CYREG_CLKDIST_UCFG), 0x00u);
 280:Generated_Source\PSoC5/cyfitter_cfg.c **** 	CY_SET_XTND_REG8((void CYFAR *)(CYREG_CLKDIST_LD), 0x02u);
 281:Generated_Source\PSoC5/cyfitter_cfg.c **** 	CY_SET_XTND_REG8((void CYFAR *)(CYREG_CLKDIST_DLY1), 0x04u);
 282:Generated_Source\PSoC5/cyfitter_cfg.c **** 
 283:Generated_Source\PSoC5/cyfitter_cfg.c **** 	CY_SET_XTND_REG8((void CYFAR *)(CYREG_PM_ACT_CFG2), ((CY_GET_XTND_REG8((void CYFAR *)CYREG_PM_ACT_
 284:Generated_Source\PSoC5/cyfitter_cfg.c **** 	CY_SET_XTND_REG8((void CYFAR *)(CYREG_PM_ACT_CFG1), ((CY_GET_XTND_REG8((void CYFAR *)CYREG_PM_ACT_
 285:Generated_Source\PSoC5/cyfitter_cfg.c **** 	CY_SET_XTND_REG8((void CYFAR *)(CYREG_PM_ACT_CFG0), ((CY_GET_XTND_REG8((void CYFAR *)CYREG_PM_ACT_
 286:Generated_Source\PSoC5/cyfitter_cfg.c **** }
 287:Generated_Source\PSoC5/cyfitter_cfg.c **** 
 288:Generated_Source\PSoC5/cyfitter_cfg.c **** 
 289:Generated_Source\PSoC5/cyfitter_cfg.c **** /* Analog API Functions */
 290:Generated_Source\PSoC5/cyfitter_cfg.c **** 
 291:Generated_Source\PSoC5/cyfitter_cfg.c **** 
 292:Generated_Source\PSoC5/cyfitter_cfg.c **** /*******************************************************************************
 293:Generated_Source\PSoC5/cyfitter_cfg.c **** * Function Name: AnalogSetDefault
 294:Generated_Source\PSoC5/cyfitter_cfg.c **** ********************************************************************************
 295:Generated_Source\PSoC5/cyfitter_cfg.c **** *
 296:Generated_Source\PSoC5/cyfitter_cfg.c **** * Summary:
 297:Generated_Source\PSoC5/cyfitter_cfg.c **** *  Sets up the analog portions of the chip to default values based on chip
 298:Generated_Source\PSoC5/cyfitter_cfg.c **** *  configuration options from the project.
 299:Generated_Source\PSoC5/cyfitter_cfg.c **** *
 300:Generated_Source\PSoC5/cyfitter_cfg.c **** * Parameters:
 301:Generated_Source\PSoC5/cyfitter_cfg.c **** *  void
 302:Generated_Source\PSoC5/cyfitter_cfg.c **** *
 303:Generated_Source\PSoC5/cyfitter_cfg.c **** * Return:
ARM GAS  C:\Users\koseki\AppData\Local\Temp\ccdCQdSc.s 			page 9


 304:Generated_Source\PSoC5/cyfitter_cfg.c **** *  void
 305:Generated_Source\PSoC5/cyfitter_cfg.c **** *
 306:Generated_Source\PSoC5/cyfitter_cfg.c **** *******************************************************************************/
 307:Generated_Source\PSoC5/cyfitter_cfg.c **** static void AnalogSetDefault(void);
 308:Generated_Source\PSoC5/cyfitter_cfg.c **** static void AnalogSetDefault(void)
 309:Generated_Source\PSoC5/cyfitter_cfg.c **** {
 149              		.loc 1 309 0
 150              		.cfi_startproc
 151              		@ args = 0, pretend = 0, frame = 0
 152              		@ frame_needed = 0, uses_anonymous_args = 0
 153 0000 2DE9F041 		push	{r4, r5, r6, r7, r8, lr}
 154              		.cfi_def_cfa_offset 24
 155              		.cfi_offset 4, -24
 156              		.cfi_offset 5, -20
 157              		.cfi_offset 6, -16
 158              		.cfi_offset 7, -12
 159              		.cfi_offset 8, -8
 160              		.cfi_offset 14, -4
 310:Generated_Source\PSoC5/cyfitter_cfg.c **** 	uint8 bg_xover_inl_trim = CY_GET_XTND_REG8((void CYFAR *)(CYREG_FLSHID_MFG_CFG_BG_XOVER_INL_TRIM +
 161              		.loc 1 310 0
 162 0004 4C4B     		ldr	r3, .L13
 163 0006 1B78     		ldrb	r3, [r3]	@ zero_extendqisi2
 164 0008 DBB2     		uxtb	r3, r3
 165              	.LVL15:
 311:Generated_Source\PSoC5/cyfitter_cfg.c **** 	uint8 cr4 = CY_GET_XTND_REG8((void CYFAR *)(CYREG_RESET_CR4));
 166              		.loc 1 311 0
 167 000a 4C4E     		ldr	r6, .L13+4
 168 000c 3478     		ldrb	r4, [r6]	@ zero_extendqisi2
 169 000e E4B2     		uxtb	r4, r4
 170              	.LVL16:
 312:Generated_Source\PSoC5/cyfitter_cfg.c **** 	uint8 cr5 = CY_GET_XTND_REG8((void CYFAR *)(CYREG_RESET_CR5));
 171              		.loc 1 312 0
 172 0010 4B4F     		ldr	r7, .L13+8
 173 0012 3D78     		ldrb	r5, [r7]	@ zero_extendqisi2
 174 0014 EDB2     		uxtb	r5, r5
 175              	.LVL17:
 313:Generated_Source\PSoC5/cyfitter_cfg.c **** 	CY_SET_XTND_REG8((void CYFAR *)(CYREG_BG_DFT0), (bg_xover_inl_trim & 0x07u));
 176              		.loc 1 313 0
 177 0016 03F00701 		and	r1, r3, #7
 178 001a 4A4A     		ldr	r2, .L13+12
 179 001c 1170     		strb	r1, [r2]
 314:Generated_Source\PSoC5/cyfitter_cfg.c **** 	CY_SET_XTND_REG8((void CYFAR *)(CYREG_BG_DFT1), ((bg_xover_inl_trim >> 4) & 0x0Fu));
 180              		.loc 1 314 0
 181 001e 1B09     		lsrs	r3, r3, #4
 182              	.LVL18:
 183 0020 0132     		adds	r2, r2, #1
 184 0022 1370     		strb	r3, [r2]
 315:Generated_Source\PSoC5/cyfitter_cfg.c **** 	/* Disable PRES while setting up SAR voltage reference */
 316:Generated_Source\PSoC5/cyfitter_cfg.c **** 	CY_SET_XTND_REG8((void CYFAR *)(CYREG_RESET_CR4), (cr4 | 0x03u));
 185              		.loc 1 316 0
 186 0024 44F00303 		orr	r3, r4, #3
 187 0028 3370     		strb	r3, [r6]
 317:Generated_Source\PSoC5/cyfitter_cfg.c **** 	CY_SET_XTND_REG8((void CYFAR *)(CYREG_RESET_CR5), (cr5 | 0x03u));
 188              		.loc 1 317 0
 189 002a 45F00303 		orr	r3, r5, #3
 190 002e 3B70     		strb	r3, [r7]
 318:Generated_Source\PSoC5/cyfitter_cfg.c **** 	CY_SET_XTND_REG16((void CYFAR *)CYREG_PRT0_AMUX, 0x4080u);
ARM GAS  C:\Users\koseki\AppData\Local\Temp\ccdCQdSc.s 			page 10


 191              		.loc 1 318 0
 192 0030 4FF48142 		mov	r2, #16512
 193 0034 444B     		ldr	r3, .L13+16
 194 0036 1A80     		strh	r2, [r3]	@ movhi
 319:Generated_Source\PSoC5/cyfitter_cfg.c **** 	CY_SET_XTND_REG16((void CYFAR *)CYREG_PRT1_AMUX, 0x4020u);
 195              		.loc 1 319 0
 196 0038 44F22002 		movw	r2, #16416
 197 003c 1033     		adds	r3, r3, #16
 198 003e 1A80     		strh	r2, [r3]	@ movhi
 320:Generated_Source\PSoC5/cyfitter_cfg.c **** 	CY_SET_XTND_REG8((void CYFAR *)CYREG_PRT3_AG, 0x83u);
 199              		.loc 1 320 0
 200 0040 4FF0830C 		mov	ip, #131
 201 0044 2133     		adds	r3, r3, #33
 202 0046 83F800C0 		strb	ip, [r3]
 321:Generated_Source\PSoC5/cyfitter_cfg.c **** 	CY_SET_XTND_REG8((void CYFAR *)CYREG_PRT15_AMUX, 0x01u);
 203              		.loc 1 321 0
 204 004a 0123     		movs	r3, #1
 205 004c 3F4A     		ldr	r2, .L13+20
 206 004e 1370     		strb	r3, [r2]
 322:Generated_Source\PSoC5/cyfitter_cfg.c **** 	CY_SET_XTND_REG8((void CYFAR *)CYREG_BG_CR0, 0x09u);
 207              		.loc 1 322 0
 208 0050 0921     		movs	r1, #9
 209 0052 02F5CE62 		add	r2, r2, #1648
 210 0056 1170     		strb	r1, [r2]
 323:Generated_Source\PSoC5/cyfitter_cfg.c **** 	CY_SET_XTND_REG8((void CYFAR *)CYREG_SAR0_CSR1, 0x40u);
 211              		.loc 1 323 0
 212 0058 4022     		movs	r2, #64
 213 005a 3D49     		ldr	r1, .L13+24
 214 005c 0A70     		strb	r2, [r1]
 324:Generated_Source\PSoC5/cyfitter_cfg.c **** 	CY_SET_XTND_REG8((void CYFAR *)CYREG_SAR0_CSR3, 0x40u);
 215              		.loc 1 324 0
 216 005e 0231     		adds	r1, r1, #2
 217 0060 0A70     		strb	r2, [r1]
 325:Generated_Source\PSoC5/cyfitter_cfg.c **** 	CY_SET_XTND_REG8((void CYFAR *)CYREG_SAR1_CSR1, 0x40u);
 218              		.loc 1 325 0
 219 0062 0631     		adds	r1, r1, #6
 220 0064 0A70     		strb	r2, [r1]
 326:Generated_Source\PSoC5/cyfitter_cfg.c **** 	CY_SET_XTND_REG8((void CYFAR *)CYREG_SAR1_CSR3, 0x40u);
 221              		.loc 1 326 0
 222 0066 0231     		adds	r1, r1, #2
 223 0068 0A70     		strb	r2, [r1]
 327:Generated_Source\PSoC5/cyfitter_cfg.c **** 	CY_SET_XTND_REG8((void CYFAR *)CYREG_SC0_SW3, 0x01u);
 224              		.loc 1 327 0
 225 006a F831     		adds	r1, r1, #248
 226 006c 0B70     		strb	r3, [r1]
 328:Generated_Source\PSoC5/cyfitter_cfg.c **** 	CY_SET_XTND_REG8((void CYFAR *)CYREG_SC0_SW4, 0x04u);
 227              		.loc 1 328 0
 228 006e 0420     		movs	r0, #4
 229 0070 0131     		adds	r1, r1, #1
 230 0072 0870     		strb	r0, [r1]
 329:Generated_Source\PSoC5/cyfitter_cfg.c **** 	CY_SET_XTND_REG8((void CYFAR *)CYREG_SC0_SW8, 0x08u);
 231              		.loc 1 329 0
 232 0074 4FF0080E 		mov	lr, #8
 233 0078 0431     		adds	r1, r1, #4
 234 007a 81F800E0 		strb	lr, [r1]
 330:Generated_Source\PSoC5/cyfitter_cfg.c **** 	CY_SET_XTND_REG8((void CYFAR *)CYREG_SC1_SW2, 0x01u);
 235              		.loc 1 330 0
ARM GAS  C:\Users\koseki\AppData\Local\Temp\ccdCQdSc.s 			page 11


 236 007e 0A31     		adds	r1, r1, #10
 237 0080 0B70     		strb	r3, [r1]
 331:Generated_Source\PSoC5/cyfitter_cfg.c **** 	CY_SET_XTND_REG8((void CYFAR *)CYREG_SC1_SW4, 0x01u);
 238              		.loc 1 331 0
 239 0082 0231     		adds	r1, r1, #2
 240 0084 0B70     		strb	r3, [r1]
 332:Generated_Source\PSoC5/cyfitter_cfg.c **** 	CY_SET_XTND_REG8((void CYFAR *)CYREG_SC1_SW10, 0x08u);
 241              		.loc 1 332 0
 242 0086 0631     		adds	r1, r1, #6
 243 0088 81F800E0 		strb	lr, [r1]
 333:Generated_Source\PSoC5/cyfitter_cfg.c **** 	CY_SET_XTND_REG8((void CYFAR *)CYREG_SC2_SW0, 0x40u);
 244              		.loc 1 333 0
 245 008c 0631     		adds	r1, r1, #6
 246 008e 0A70     		strb	r2, [r1]
 334:Generated_Source\PSoC5/cyfitter_cfg.c **** 	CY_SET_XTND_REG8((void CYFAR *)CYREG_SC2_SW4, 0x02u);
 247              		.loc 1 334 0
 248 0090 0221     		movs	r1, #2
 249 0092 DFF8D480 		ldr	r8, .L13+48
 250 0096 88F80010 		strb	r1, [r8]
 335:Generated_Source\PSoC5/cyfitter_cfg.c **** 	CY_SET_XTND_REG8((void CYFAR *)CYREG_SC2_SW10, 0x01u);
 251              		.loc 1 335 0
 252 009a 08F10608 		add	r8, r8, #6
 253 009e 88F80030 		strb	r3, [r8]
 336:Generated_Source\PSoC5/cyfitter_cfg.c **** 	CY_SET_XTND_REG8((void CYFAR *)CYREG_SC3_SW0, 0x08u);
 254              		.loc 1 336 0
 255 00a2 08F10608 		add	r8, r8, #6
 256 00a6 88F800E0 		strb	lr, [r8]
 337:Generated_Source\PSoC5/cyfitter_cfg.c **** 	CY_SET_XTND_REG8((void CYFAR *)CYREG_SC3_SW4, 0x02u);
 257              		.loc 1 337 0
 258 00aa DFF8C0E0 		ldr	lr, .L13+52
 259 00ae 8EF80010 		strb	r1, [lr]
 338:Generated_Source\PSoC5/cyfitter_cfg.c **** 	CY_SET_XTND_REG8((void CYFAR *)CYREG_SC3_SW10, 0x04u);
 260              		.loc 1 338 0
 261 00b2 0EF1060E 		add	lr, lr, #6
 262 00b6 8EF80000 		strb	r0, [lr]
 339:Generated_Source\PSoC5/cyfitter_cfg.c **** 	CY_SET_XTND_REG8((void CYFAR *)CYREG_DAC1_SW2, 0x02u);
 263              		.loc 1 339 0
 264 00ba 0EF1500E 		add	lr, lr, #80
 265 00be 8EF80010 		strb	r1, [lr]
 340:Generated_Source\PSoC5/cyfitter_cfg.c **** 	CY_SET_XTND_REG8((void CYFAR *)CYREG_DAC3_SW3, 0x01u);
 266              		.loc 1 340 0
 267 00c2 0EF1110E 		add	lr, lr, #17
 268 00c6 8EF80030 		strb	r3, [lr]
 341:Generated_Source\PSoC5/cyfitter_cfg.c **** 	CY_SET_XTND_REG8((void CYFAR *)CYREG_CMP1_SW0, 0x83u);
 269              		.loc 1 341 0
 270 00ca 0EF12D0E 		add	lr, lr, #45
 271 00ce 8EF800C0 		strb	ip, [lr]
 342:Generated_Source\PSoC5/cyfitter_cfg.c **** 	CY_SET_XTND_REG8((void CYFAR *)CYREG_CMP2_SW0, 0x10u);
 272              		.loc 1 342 0
 273 00d2 4FF0100C 		mov	ip, #16
 274 00d6 0EF1080E 		add	lr, lr, #8
 275 00da 8EF800C0 		strb	ip, [lr]
 343:Generated_Source\PSoC5/cyfitter_cfg.c **** 	CY_SET_XTND_REG8((void CYFAR *)CYREG_CMP2_SW3, 0x40u);
 276              		.loc 1 343 0
 277 00de 0EF1030E 		add	lr, lr, #3
 278 00e2 8EF80020 		strb	r2, [lr]
 344:Generated_Source\PSoC5/cyfitter_cfg.c **** 	CY_SET_XTND_REG8((void CYFAR *)CYREG_CMP3_SW0, 0x04u);
ARM GAS  C:\Users\koseki\AppData\Local\Temp\ccdCQdSc.s 			page 12


 279              		.loc 1 344 0
 280 00e6 0EF1050E 		add	lr, lr, #5
 281 00ea 8EF80000 		strb	r0, [lr]
 345:Generated_Source\PSoC5/cyfitter_cfg.c **** 	CY_SET_XTND_REG8((void CYFAR *)CYREG_CMP3_SW2, 0x02u);
 282              		.loc 1 345 0
 283 00ee 1948     		ldr	r0, .L13+28
 284 00f0 0170     		strb	r1, [r0]
 346:Generated_Source\PSoC5/cyfitter_cfg.c **** 	CY_SET_XTND_REG8((void CYFAR *)CYREG_DSM0_SW0, 0x06u);
 285              		.loc 1 346 0
 286 00f2 0620     		movs	r0, #6
 287 00f4 1849     		ldr	r1, .L13+32
 288 00f6 0870     		strb	r0, [r1]
 347:Generated_Source\PSoC5/cyfitter_cfg.c **** 	CY_SET_XTND_REG8((void CYFAR *)CYREG_SAR0_SW0, 0x20u);
 289              		.loc 1 347 0
 290 00f8 2021     		movs	r1, #32
 291 00fa 1848     		ldr	r0, .L13+36
 292 00fc 0170     		strb	r1, [r0]
 348:Generated_Source\PSoC5/cyfitter_cfg.c **** 	CY_SET_XTND_REG8((void CYFAR *)CYREG_SAR0_SW3, 0x20u);
 293              		.loc 1 348 0
 294 00fe 0330     		adds	r0, r0, #3
 295 0100 0170     		strb	r1, [r0]
 349:Generated_Source\PSoC5/cyfitter_cfg.c **** 	CY_SET_XTND_REG8((void CYFAR *)CYREG_SAR1_SW0, 0x40u);
 296              		.loc 1 349 0
 297 0102 0530     		adds	r0, r0, #5
 298 0104 0270     		strb	r2, [r0]
 350:Generated_Source\PSoC5/cyfitter_cfg.c **** 	CY_SET_XTND_REG8((void CYFAR *)CYREG_SAR1_SW3, 0x20u);
 299              		.loc 1 350 0
 300 0106 164A     		ldr	r2, .L13+40
 301 0108 1170     		strb	r1, [r2]
 351:Generated_Source\PSoC5/cyfitter_cfg.c **** 	CY_SET_XTND_REG16((void CYFAR *)CYREG_OPAMP1_MX, 0x0627u);
 302              		.loc 1 351 0
 303 010a 40F22761 		movw	r1, #1575
 304 010e 1732     		adds	r2, r2, #23
 305 0110 1180     		strh	r1, [r2]	@ movhi
 352:Generated_Source\PSoC5/cyfitter_cfg.c **** 	CY_SET_XTND_REG16((void CYFAR *)CYREG_OPAMP3_MX, 0x0408u);
 306              		.loc 1 352 0
 307 0112 4FF48161 		mov	r1, #1032
 308 0116 0432     		adds	r2, r2, #4
 309 0118 1180     		strh	r1, [r2]	@ movhi
 353:Generated_Source\PSoC5/cyfitter_cfg.c **** 	CY_SET_XTND_REG8((void CYFAR *)CYREG_BUS_SW0, 0x3Au);
 310              		.loc 1 353 0
 311 011a 3A21     		movs	r1, #58
 312 011c 1232     		adds	r2, r2, #18
 313 011e 1170     		strb	r1, [r2]
 354:Generated_Source\PSoC5/cyfitter_cfg.c **** 	CY_SET_XTND_REG8((void CYFAR *)CYREG_BUS_SW2, 0x01u);
 314              		.loc 1 354 0
 315 0120 0232     		adds	r2, r2, #2
 316 0122 1370     		strb	r3, [r2]
 355:Generated_Source\PSoC5/cyfitter_cfg.c **** 	CyDelayUs(10u); /* Allow vref to settle before re-enabling PRES */
 317              		.loc 1 355 0
 318 0124 0A20     		movs	r0, #10
 319 0126 FFF7FEFF 		bl	CyDelayUs
 320              	.LVL19:
 356:Generated_Source\PSoC5/cyfitter_cfg.c **** 	CY_SET_XTND_REG8((void CYFAR *)(CYREG_RESET_CR5), (cr5));
 321              		.loc 1 356 0
 322 012a 3D70     		strb	r5, [r7]
 357:Generated_Source\PSoC5/cyfitter_cfg.c **** 	CY_SET_XTND_REG8((void CYFAR *)(CYREG_RESET_CR4), (cr4));
ARM GAS  C:\Users\koseki\AppData\Local\Temp\ccdCQdSc.s 			page 13


 323              		.loc 1 357 0
 324 012c 3470     		strb	r4, [r6]
 358:Generated_Source\PSoC5/cyfitter_cfg.c **** 	CY_SET_XTND_REG8((void CYFAR *)CYREG_PUMP_CR0, 0x44u);
 325              		.loc 1 358 0
 326 012e 4422     		movs	r2, #68
 327 0130 0C4B     		ldr	r3, .L13+44
 328 0132 1A70     		strb	r2, [r3]
 329 0134 BDE8F081 		pop	{r4, r5, r6, r7, r8, pc}
 330              	.LVL20:
 331              	.L14:
 332              		.align	2
 333              	.L13:
 334 0138 CF010049 		.word	1224737231
 335 013c F8460040 		.word	1073759992
 336 0140 F9460040 		.word	1073759993
 337 0144 6E580040 		.word	1073764462
 338 0148 0C510040 		.word	1073762572
 339 014c FC510040 		.word	1073762812
 340 0150 01590040 		.word	1073764609
 341 0154 DA5A0040 		.word	1073765082
 342 0158 005B0040 		.word	1073765120
 343 015c 205B0040 		.word	1073765152
 344 0160 2B5B0040 		.word	1073765163
 345 0164 76580040 		.word	1073764470
 346 0168 245A0040 		.word	1073764900
 347 016c 345A0040 		.word	1073764916
 348              		.cfi_endproc
 349              	.LFE6:
 350              		.size	AnalogSetDefault, .-AnalogSetDefault
 351              		.section	.text.CYCONFIGCPY,"ax",%progbits
 352              		.align	2
 353              		.thumb
 354              		.thumb_func
 355              		.type	CYCONFIGCPY, %function
 356              	CYCONFIGCPY:
 357              	.LFB1:
  70:Generated_Source\PSoC5/cyfitter_cfg.c **** 	(void)memcpy(dest, src, n);
 358              		.loc 1 70 0
 359              		.cfi_startproc
 360              		@ args = 0, pretend = 0, frame = 0
 361              		@ frame_needed = 0, uses_anonymous_args = 0
 362              	.LVL21:
 363 0000 08B5     		push	{r3, lr}
 364              		.cfi_def_cfa_offset 8
 365              		.cfi_offset 3, -8
 366              		.cfi_offset 14, -4
  71:Generated_Source\PSoC5/cyfitter_cfg.c **** }
 367              		.loc 1 71 0
 368 0002 FFF7FEFF 		bl	memcpy
 369              	.LVL22:
 370 0006 08BD     		pop	{r3, pc}
 371              		.cfi_endproc
 372              	.LFE1:
 373              		.size	CYCONFIGCPY, .-CYCONFIGCPY
 374              		.section	.text.ClockSetup,"ax",%progbits
 375              		.align	2
 376              		.thumb
ARM GAS  C:\Users\koseki\AppData\Local\Temp\ccdCQdSc.s 			page 14


 377              		.thumb_func
 378              		.type	ClockSetup, %function
 379              	ClockSetup:
 380              	.LFB5:
 224:Generated_Source\PSoC5/cyfitter_cfg.c **** 	uint32 timeout;
 381              		.loc 1 224 0
 382              		.cfi_startproc
 383              		@ args = 0, pretend = 0, frame = 0
 384              		@ frame_needed = 0, uses_anonymous_args = 0
 385 0000 38B5     		push	{r3, r4, r5, lr}
 386              		.cfi_def_cfa_offset 16
 387              		.cfi_offset 3, -16
 388              		.cfi_offset 4, -12
 389              		.cfi_offset 5, -8
 390              		.cfi_offset 14, -4
 230:Generated_Source\PSoC5/cyfitter_cfg.c **** 	CY_SET_XTND_REG8((void CYFAR *)(CYREG_CLKDIST_DCFG0_CFG0 + 0x2u), 0x1Fu);
 391              		.loc 1 230 0
 392 0002 0122     		movs	r2, #1
 393 0004 3C4B     		ldr	r3, .L23
 394 0006 1A80     		strh	r2, [r3]	@ movhi
 231:Generated_Source\PSoC5/cyfitter_cfg.c **** 	CY_SET_XTND_REG16((void CYFAR *)(CYREG_CLKDIST_DCFG1_CFG0), 0x0024u);
 395              		.loc 1 231 0
 396 0008 1F22     		movs	r2, #31
 397 000a 0233     		adds	r3, r3, #2
 398 000c 1A70     		strb	r2, [r3]
 232:Generated_Source\PSoC5/cyfitter_cfg.c **** 	CY_SET_XTND_REG8((void CYFAR *)(CYREG_CLKDIST_DCFG1_CFG0 + 0x2u), 0x18u);
 399              		.loc 1 232 0
 400 000e 2422     		movs	r2, #36
 401 0010 0233     		adds	r3, r3, #2
 402 0012 1A80     		strh	r2, [r3]	@ movhi
 233:Generated_Source\PSoC5/cyfitter_cfg.c **** 	CY_SET_XTND_REG16((void CYFAR *)(CYREG_CLKDIST_DCFG2_CFG0), 0x0024u);
 403              		.loc 1 233 0
 404 0014 1823     		movs	r3, #24
 405 0016 3949     		ldr	r1, .L23+4
 406 0018 0B70     		strb	r3, [r1]
 234:Generated_Source\PSoC5/cyfitter_cfg.c **** 	CY_SET_XTND_REG8((void CYFAR *)(CYREG_CLKDIST_DCFG2_CFG0 + 0x2u), 0x18u);
 407              		.loc 1 234 0
 408 001a 0231     		adds	r1, r1, #2
 409 001c 0A80     		strh	r2, [r1]	@ movhi
 235:Generated_Source\PSoC5/cyfitter_cfg.c **** 	CY_SET_XTND_REG16((void CYFAR *)(CYREG_CLKDIST_DCFG3_CFG0), 0x0107u);
 410              		.loc 1 235 0
 411 001e 384A     		ldr	r2, .L23+8
 412 0020 1370     		strb	r3, [r2]
 236:Generated_Source\PSoC5/cyfitter_cfg.c **** 	CY_SET_XTND_REG8((void CYFAR *)(CYREG_CLKDIST_DCFG3_CFG0 + 0x2u), 0x18u);
 413              		.loc 1 236 0
 414 0022 40F20712 		movw	r2, #263
 415 0026 0431     		adds	r1, r1, #4
 416 0028 0A80     		strh	r2, [r1]	@ movhi
 237:Generated_Source\PSoC5/cyfitter_cfg.c **** 	CY_SET_XTND_REG16((void CYFAR *)(CYREG_CLKDIST_DCFG4_CFG0), 0x0107u);
 417              		.loc 1 237 0
 418 002a 0231     		adds	r1, r1, #2
 419 002c 0B70     		strb	r3, [r1]
 238:Generated_Source\PSoC5/cyfitter_cfg.c **** 	CY_SET_XTND_REG8((void CYFAR *)(CYREG_CLKDIST_DCFG4_CFG0 + 0x2u), 0x18u);
 420              		.loc 1 238 0
 421 002e 0231     		adds	r1, r1, #2
 422 0030 0A80     		strh	r2, [r1]	@ movhi
 239:Generated_Source\PSoC5/cyfitter_cfg.c **** 	CY_SET_XTND_REG16((void CYFAR *)(CYREG_CLKDIST_DCFG5_CFG0), 0x0293u);
ARM GAS  C:\Users\koseki\AppData\Local\Temp\ccdCQdSc.s 			page 15


 423              		.loc 1 239 0
 424 0032 344A     		ldr	r2, .L23+12
 425 0034 1370     		strb	r3, [r2]
 240:Generated_Source\PSoC5/cyfitter_cfg.c **** 	CY_SET_XTND_REG8((void CYFAR *)(CYREG_CLKDIST_DCFG5_CFG0 + 0x2u), 0x18u);
 426              		.loc 1 240 0
 427 0036 40F29321 		movw	r1, #659
 428 003a 0232     		adds	r2, r2, #2
 429 003c 1180     		strh	r1, [r2]	@ movhi
 241:Generated_Source\PSoC5/cyfitter_cfg.c **** 	CY_SET_XTND_REG16((void CYFAR *)(CYREG_CLKDIST_DCFG6_CFG0), 0x101Cu);
 430              		.loc 1 241 0
 431 003e 0232     		adds	r2, r2, #2
 432 0040 1370     		strb	r3, [r2]
 242:Generated_Source\PSoC5/cyfitter_cfg.c **** 	CY_SET_XTND_REG8((void CYFAR *)(CYREG_CLKDIST_DCFG6_CFG0 + 0x2u), 0x18u);
 433              		.loc 1 242 0
 434 0042 41F21C01 		movw	r1, #4124
 435 0046 0232     		adds	r2, r2, #2
 436 0048 1180     		strh	r1, [r2]	@ movhi
 243:Generated_Source\PSoC5/cyfitter_cfg.c **** 
 437              		.loc 1 243 0
 438 004a 0232     		adds	r2, r2, #2
 439 004c 1370     		strb	r3, [r2]
 246:Generated_Source\PSoC5/cyfitter_cfg.c **** 
 440              		.loc 1 246 0
 441 004e 2E48     		ldr	r0, .L23+16
 442 0050 2E49     		ldr	r1, .L23+20
 443 0052 0422     		movs	r2, #4
 444 0054 FFF7FEFF 		bl	CYCONFIGCPY
 445              	.LVL23:
 249:Generated_Source\PSoC5/cyfitter_cfg.c **** 
 446              		.loc 1 249 0
 447 0058 0622     		movs	r2, #6
 448 005a 2D4B     		ldr	r3, .L23+24
 449 005c 1A70     		strb	r2, [r3]
 252:Generated_Source\PSoC5/cyfitter_cfg.c **** 	CY_SET_XTND_REG8((void CYFAR *)(CYREG_IMO_TR1), (CY_GET_XTND_REG8((void CYFAR *)CYREG_FLSHID_CUST_
 450              		.loc 1 252 0
 451 005e 5222     		movs	r2, #82
 452 0060 A3F58073 		sub	r3, r3, #256
 453 0064 1A70     		strb	r2, [r3]
 253:Generated_Source\PSoC5/cyfitter_cfg.c **** 
 454              		.loc 1 253 0
 455 0066 2B4B     		ldr	r3, .L23+28
 456 0068 1B78     		ldrb	r3, [r3]	@ zero_extendqisi2
 457 006a DBB2     		uxtb	r3, r3
 458 006c 2A4A     		ldr	r2, .L23+32
 459 006e 1370     		strb	r3, [r2]
 256:Generated_Source\PSoC5/cyfitter_cfg.c **** 	CY_SET_XTND_REG16((void CYFAR *)(CYREG_FASTCLK_PLL_CFG0), 0x1251u);
 460              		.loc 1 256 0
 461 0070 40F62132 		movw	r2, #2849
 462 0074 294B     		ldr	r3, .L23+36
 463 0076 1A80     		strh	r2, [r3]	@ movhi
 257:Generated_Source\PSoC5/cyfitter_cfg.c **** 	/* Wait up to 250us for the PLL to lock */
 464              		.loc 1 257 0
 465 0078 41F25122 		movw	r2, #4689
 466 007c 023B     		subs	r3, r3, #2
 467 007e 1A80     		strh	r2, [r3]	@ movhi
 468              	.LVL24:
 259:Generated_Source\PSoC5/cyfitter_cfg.c **** 	for (timeout = 250u / 10u; (timeout > 0u) && (pllLock != 0x03u); timeout--)
ARM GAS  C:\Users\koseki\AppData\Local\Temp\ccdCQdSc.s 			page 16


 469              		.loc 1 259 0
 470 0080 0024     		movs	r4, #0
 260:Generated_Source\PSoC5/cyfitter_cfg.c **** 	{ 
 471              		.loc 1 260 0
 472 0082 1925     		movs	r5, #25
 473 0084 0CE0     		b	.L18
 474              	.LVL25:
 475              	.L20:
 262:Generated_Source\PSoC5/cyfitter_cfg.c **** 		CyDelayCycles(10u * 48u); /* Delay 10us based on 48MHz clock */
 476              		.loc 1 262 0 discriminator 4
 477 0086 264B     		ldr	r3, .L23+40
 478 0088 1B78     		ldrb	r3, [r3]	@ zero_extendqisi2
 479 008a 03F00103 		and	r3, r3, #1
 480 008e 43EA4404 		orr	r4, r3, r4, lsl #1
 481              	.LVL26:
 482 0092 04F00304 		and	r4, r4, #3
 483              	.LVL27:
 263:Generated_Source\PSoC5/cyfitter_cfg.c **** 	}
 484              		.loc 1 263 0 discriminator 4
 485 0096 4FF4F070 		mov	r0, #480
 486 009a FFF7FEFF 		bl	CyDelayCycles
 487              	.LVL28:
 260:Generated_Source\PSoC5/cyfitter_cfg.c **** 	{ 
 488              		.loc 1 260 0 discriminator 4
 489 009e 013D     		subs	r5, r5, #1
 490              	.LVL29:
 491              	.L18:
 260:Generated_Source\PSoC5/cyfitter_cfg.c **** 	{ 
 492              		.loc 1 260 0 is_stmt 0 discriminator 1
 493 00a0 0DB1     		cbz	r5, .L19
 260:Generated_Source\PSoC5/cyfitter_cfg.c **** 	{ 
 494              		.loc 1 260 0 discriminator 3
 495 00a2 032C     		cmp	r4, #3
 496 00a4 EFD1     		bne	.L20
 497              	.L19:
 266:Generated_Source\PSoC5/cyfitter_cfg.c **** 	{
 498              		.loc 1 266 0 is_stmt 1
 499 00a6 15B9     		cbnz	r5, .L21
 268:Generated_Source\PSoC5/cyfitter_cfg.c **** 	}
 500              		.loc 1 268 0
 501 00a8 0320     		movs	r0, #3
 502 00aa FFF7FEFF 		bl	CyClockStartupError
 503              	.LVL30:
 504              	.L21:
 272:Generated_Source\PSoC5/cyfitter_cfg.c **** 	CY_SET_XTND_REG8((void CYFAR *)(CYREG_CLKDIST_MSTR0), 0x07u);
 505              		.loc 1 272 0
 506 00ae 1D4A     		ldr	r2, .L23+44
 507 00b0 4FF48073 		mov	r3, #256
 508 00b4 1380     		strh	r3, [r2]	@ movhi
 273:Generated_Source\PSoC5/cyfitter_cfg.c **** 	CY_SET_XTND_REG8((void CYFAR *)(CYREG_CLKDIST_BCFG0), 0x00u);
 509              		.loc 1 273 0
 510 00b6 0723     		movs	r3, #7
 511 00b8 1370     		strb	r3, [r2]
 274:Generated_Source\PSoC5/cyfitter_cfg.c **** 	CY_SET_XTND_REG8((void CYFAR *)(CYREG_CLKDIST_BCFG2), 0x48u);
 512              		.loc 1 274 0
 513 00ba 0023     		movs	r3, #0
 514 00bc 1A49     		ldr	r1, .L23+48
ARM GAS  C:\Users\koseki\AppData\Local\Temp\ccdCQdSc.s 			page 17


 515 00be 0B70     		strb	r3, [r1]
 275:Generated_Source\PSoC5/cyfitter_cfg.c **** 	CY_SET_XTND_REG8((void CYFAR *)(CYREG_CLKDIST_MSTR0), 0x00u);
 516              		.loc 1 275 0
 517 00c0 4820     		movs	r0, #72
 518 00c2 0231     		adds	r1, r1, #2
 519 00c4 0870     		strb	r0, [r1]
 276:Generated_Source\PSoC5/cyfitter_cfg.c **** 
 520              		.loc 1 276 0
 521 00c6 1370     		strb	r3, [r2]
 279:Generated_Source\PSoC5/cyfitter_cfg.c **** 	CY_SET_XTND_REG8((void CYFAR *)(CYREG_CLKDIST_LD), 0x02u);
 522              		.loc 1 279 0
 523 00c8 0532     		adds	r2, r2, #5
 524 00ca 1370     		strb	r3, [r2]
 280:Generated_Source\PSoC5/cyfitter_cfg.c **** 	CY_SET_XTND_REG8((void CYFAR *)(CYREG_CLKDIST_DLY1), 0x04u);
 525              		.loc 1 280 0
 526 00cc 0222     		movs	r2, #2
 527 00ce 174B     		ldr	r3, .L23+52
 528 00d0 1A70     		strb	r2, [r3]
 281:Generated_Source\PSoC5/cyfitter_cfg.c **** 
 529              		.loc 1 281 0
 530 00d2 0422     		movs	r2, #4
 531 00d4 0A33     		adds	r3, r3, #10
 532 00d6 1A70     		strb	r2, [r3]
 283:Generated_Source\PSoC5/cyfitter_cfg.c **** 	CY_SET_XTND_REG8((void CYFAR *)(CYREG_PM_ACT_CFG1), ((CY_GET_XTND_REG8((void CYFAR *)CYREG_PM_ACT_
 533              		.loc 1 283 0
 534 00d8 154A     		ldr	r2, .L23+56
 535 00da 1378     		ldrb	r3, [r2]	@ zero_extendqisi2
 536 00dc 43F07F03 		orr	r3, r3, #127
 537 00e0 1370     		strb	r3, [r2]
 284:Generated_Source\PSoC5/cyfitter_cfg.c **** 	CY_SET_XTND_REG8((void CYFAR *)(CYREG_PM_ACT_CFG0), ((CY_GET_XTND_REG8((void CYFAR *)CYREG_PM_ACT_
 538              		.loc 1 284 0
 539 00e2 013A     		subs	r2, r2, #1
 540 00e4 1378     		ldrb	r3, [r2]	@ zero_extendqisi2
 541 00e6 43F00103 		orr	r3, r3, #1
 542 00ea 1370     		strb	r3, [r2]
 285:Generated_Source\PSoC5/cyfitter_cfg.c **** }
 543              		.loc 1 285 0
 544 00ec 013A     		subs	r2, r2, #1
 545 00ee 1378     		ldrb	r3, [r2]	@ zero_extendqisi2
 546 00f0 43F08003 		orr	r3, r3, #128
 547 00f4 1370     		strb	r3, [r2]
 548 00f6 38BD     		pop	{r3, r4, r5, pc}
 549              	.LVL31:
 550              	.L24:
 551              		.align	2
 552              	.L23:
 553 00f8 80400040 		.word	1073758336
 554 00fc 86400040 		.word	1073758342
 555 0100 8A400040 		.word	1073758346
 556 0104 92400040 		.word	1073758354
 557 0108 00410040 		.word	1073758464
 558 010c 94040048 		.word	1207960724
 559 0110 00430040 		.word	1073758976
 560 0114 0F010049 		.word	1224737039
 561 0118 A1460040 		.word	1073759905
 562 011c 22420040 		.word	1073758754
 563 0120 25420040 		.word	1073758757
ARM GAS  C:\Users\koseki\AppData\Local\Temp\ccdCQdSc.s 			page 18


 564 0124 04400040 		.word	1073758212
 565 0128 06400040 		.word	1073758214
 566 012c 01400040 		.word	1073758209
 567 0130 A2430040 		.word	1073759138
 568              		.cfi_endproc
 569              	.LFE5:
 570              		.size	ClockSetup, .-ClockSetup
 571              		.section	.text.SetAnalogRoutingPumps,"ax",%progbits
 572              		.align	2
 573              		.global	SetAnalogRoutingPumps
 574              		.thumb
 575              		.thumb_func
 576              		.type	SetAnalogRoutingPumps, %function
 577              	SetAnalogRoutingPumps:
 578              	.LFB7:
 359:Generated_Source\PSoC5/cyfitter_cfg.c **** }
 360:Generated_Source\PSoC5/cyfitter_cfg.c **** 
 361:Generated_Source\PSoC5/cyfitter_cfg.c **** 
 362:Generated_Source\PSoC5/cyfitter_cfg.c **** /*******************************************************************************
 363:Generated_Source\PSoC5/cyfitter_cfg.c **** * Function Name: SetAnalogRoutingPumps
 364:Generated_Source\PSoC5/cyfitter_cfg.c **** ********************************************************************************
 365:Generated_Source\PSoC5/cyfitter_cfg.c **** *
 366:Generated_Source\PSoC5/cyfitter_cfg.c **** * Summary:
 367:Generated_Source\PSoC5/cyfitter_cfg.c **** * Enables or disables the analog pumps feeding analog routing switches.
 368:Generated_Source\PSoC5/cyfitter_cfg.c **** * Intended to be called at startup, based on the Vdda system configuration;
 369:Generated_Source\PSoC5/cyfitter_cfg.c **** * may be called during operation when the user informs us that the Vdda voltage
 370:Generated_Source\PSoC5/cyfitter_cfg.c **** * crossed the pump threshold.
 371:Generated_Source\PSoC5/cyfitter_cfg.c **** *
 372:Generated_Source\PSoC5/cyfitter_cfg.c **** * Parameters:
 373:Generated_Source\PSoC5/cyfitter_cfg.c **** *  enabled - 1 to enable the pumps, 0 to disable the pumps
 374:Generated_Source\PSoC5/cyfitter_cfg.c **** *
 375:Generated_Source\PSoC5/cyfitter_cfg.c **** * Return:
 376:Generated_Source\PSoC5/cyfitter_cfg.c **** *  void
 377:Generated_Source\PSoC5/cyfitter_cfg.c **** *
 378:Generated_Source\PSoC5/cyfitter_cfg.c **** *******************************************************************************/
 379:Generated_Source\PSoC5/cyfitter_cfg.c **** void SetAnalogRoutingPumps(uint8 enabled)
 380:Generated_Source\PSoC5/cyfitter_cfg.c **** {
 579              		.loc 1 380 0
 580              		.cfi_startproc
 581              		@ args = 0, pretend = 0, frame = 0
 582              		@ frame_needed = 0, uses_anonymous_args = 0
 583              		@ link register save eliminated.
 584              	.LVL32:
 381:Generated_Source\PSoC5/cyfitter_cfg.c **** 	uint8 regValue = CY_GET_XTND_REG8((void CYFAR *)CYREG_PUMP_CR0);
 585              		.loc 1 381 0
 586 0000 054B     		ldr	r3, .L28
 587 0002 1B78     		ldrb	r3, [r3]	@ zero_extendqisi2
 588 0004 DBB2     		uxtb	r3, r3
 589              	.LVL33:
 382:Generated_Source\PSoC5/cyfitter_cfg.c **** 	if (enabled != 0u)
 590              		.loc 1 382 0
 591 0006 10B1     		cbz	r0, .L26
 383:Generated_Source\PSoC5/cyfitter_cfg.c **** 	{
 384:Generated_Source\PSoC5/cyfitter_cfg.c **** 		regValue |= 0x22u;
 592              		.loc 1 384 0
 593 0008 43F02203 		orr	r3, r3, #34
 594              	.LVL34:
ARM GAS  C:\Users\koseki\AppData\Local\Temp\ccdCQdSc.s 			page 19


 595 000c 01E0     		b	.L27
 596              	.L26:
 385:Generated_Source\PSoC5/cyfitter_cfg.c **** 	}
 386:Generated_Source\PSoC5/cyfitter_cfg.c **** 	else
 387:Generated_Source\PSoC5/cyfitter_cfg.c **** 	{
 388:Generated_Source\PSoC5/cyfitter_cfg.c **** 		regValue &= (uint8)~0x22u;
 597              		.loc 1 388 0
 598 000e 03F0DD03 		and	r3, r3, #221
 599              	.LVL35:
 600              	.L27:
 389:Generated_Source\PSoC5/cyfitter_cfg.c **** 	}
 390:Generated_Source\PSoC5/cyfitter_cfg.c **** 	CY_SET_XTND_REG8((void CYFAR *)CYREG_PUMP_CR0, regValue);
 601              		.loc 1 390 0
 602 0012 014A     		ldr	r2, .L28
 603 0014 1370     		strb	r3, [r2]
 604 0016 7047     		bx	lr
 605              	.L29:
 606              		.align	2
 607              	.L28:
 608 0018 76580040 		.word	1073764470
 609              		.cfi_endproc
 610              	.LFE7:
 611              		.size	SetAnalogRoutingPumps, .-SetAnalogRoutingPumps
 612              		.section	.text.cyfitter_cfg,"ax",%progbits
 613              		.align	2
 614              		.global	cyfitter_cfg
 615              		.thumb
 616              		.thumb_func
 617              		.type	cyfitter_cfg, %function
 618              	cyfitter_cfg:
 619              	.LFB8:
 391:Generated_Source\PSoC5/cyfitter_cfg.c **** }
 392:Generated_Source\PSoC5/cyfitter_cfg.c **** 
 393:Generated_Source\PSoC5/cyfitter_cfg.c **** #define CY_AMUX_UNUSED CYREG_BOOST_SR
 394:Generated_Source\PSoC5/cyfitter_cfg.c **** 
 395:Generated_Source\PSoC5/cyfitter_cfg.c **** 
 396:Generated_Source\PSoC5/cyfitter_cfg.c **** /*******************************************************************************
 397:Generated_Source\PSoC5/cyfitter_cfg.c **** * Function Name: cyfitter_cfg
 398:Generated_Source\PSoC5/cyfitter_cfg.c **** ********************************************************************************
 399:Generated_Source\PSoC5/cyfitter_cfg.c **** * Summary:
 400:Generated_Source\PSoC5/cyfitter_cfg.c **** *  This function is called by the start-up code for the selected device. It
 401:Generated_Source\PSoC5/cyfitter_cfg.c **** *  performs all of the necessary device configuration based on the design
 402:Generated_Source\PSoC5/cyfitter_cfg.c **** *  settings.  This includes settings from the Design Wide Resources (DWR) such
 403:Generated_Source\PSoC5/cyfitter_cfg.c **** *  as Clocks and Pins as well as any component configuration that is necessary.
 404:Generated_Source\PSoC5/cyfitter_cfg.c **** *
 405:Generated_Source\PSoC5/cyfitter_cfg.c **** * Parameters:  
 406:Generated_Source\PSoC5/cyfitter_cfg.c **** *   void
 407:Generated_Source\PSoC5/cyfitter_cfg.c **** *
 408:Generated_Source\PSoC5/cyfitter_cfg.c **** * Return:
 409:Generated_Source\PSoC5/cyfitter_cfg.c **** *   void
 410:Generated_Source\PSoC5/cyfitter_cfg.c **** *
 411:Generated_Source\PSoC5/cyfitter_cfg.c **** *******************************************************************************/
 412:Generated_Source\PSoC5/cyfitter_cfg.c **** 
 413:Generated_Source\PSoC5/cyfitter_cfg.c **** void cyfitter_cfg(void)
 414:Generated_Source\PSoC5/cyfitter_cfg.c **** {
 620              		.loc 1 414 0
 621              		.cfi_startproc
ARM GAS  C:\Users\koseki\AppData\Local\Temp\ccdCQdSc.s 			page 20


 622              		@ args = 0, pretend = 0, frame = 0
 623              		@ frame_needed = 0, uses_anonymous_args = 0
 624 0000 10B5     		push	{r4, lr}
 625              		.cfi_def_cfa_offset 8
 626              		.cfi_offset 4, -8
 627              		.cfi_offset 14, -4
 415:Generated_Source\PSoC5/cyfitter_cfg.c **** #ifdef CYGlobalIntDisable
 416:Generated_Source\PSoC5/cyfitter_cfg.c **** 	/* Disable interrupts by default. Let user enable if/when they want. */
 417:Generated_Source\PSoC5/cyfitter_cfg.c **** 	CYGlobalIntDisable
 628              		.loc 1 417 0
 629              	@ 417 "Generated_Source\PSoC5\cyfitter_cfg.c" 1
 630 0002 72B6     		CPSID   i
 631              	@ 0 "" 2
 418:Generated_Source\PSoC5/cyfitter_cfg.c **** #endif
 419:Generated_Source\PSoC5/cyfitter_cfg.c **** 
 420:Generated_Source\PSoC5/cyfitter_cfg.c **** 
 421:Generated_Source\PSoC5/cyfitter_cfg.c **** 	/* Set Flash Cycles based on max possible frequency in case a glitch occurs during ClockSetup(). *
 422:Generated_Source\PSoC5/cyfitter_cfg.c **** 	CY_SET_XTND_REG8((void CYFAR *)(CYREG_CACHE_CC_CTL), (((CYDEV_INSTRUCT_CACHE_ENABLED) != 0) ? 0x61
 632              		.loc 1 422 0
 633              		.thumb
 634 0004 434C     		ldr	r4, .L36
 635 0006 6123     		movs	r3, #97
 636 0008 2370     		strb	r3, [r4]
 423:Generated_Source\PSoC5/cyfitter_cfg.c **** 	/* Setup clocks based on selections from Clock DWR */
 424:Generated_Source\PSoC5/cyfitter_cfg.c **** 	ClockSetup();
 637              		.loc 1 424 0
 638 000a FFF7FEFF 		bl	ClockSetup
 639              	.LVL36:
 425:Generated_Source\PSoC5/cyfitter_cfg.c **** 	/* Set Flash Cycles based on newly configured 66.00MHz Bus Clock. */
 426:Generated_Source\PSoC5/cyfitter_cfg.c **** 	CY_SET_XTND_REG8((void CYFAR *)(CYREG_CACHE_CC_CTL), (((CYDEV_INSTRUCT_CACHE_ENABLED) != 0) ? 0x01
 640              		.loc 1 426 0
 641 000e 0123     		movs	r3, #1
 642 0010 2370     		strb	r3, [r4]
 427:Generated_Source\PSoC5/cyfitter_cfg.c **** 	/* Enable/Disable Debug functionality based on settings from System DWR */
 428:Generated_Source\PSoC5/cyfitter_cfg.c **** 	CY_SET_XTND_REG8((void CYFAR *)CYREG_MLOGIC_DEBUG, (CY_GET_XTND_REG8((void CYFAR *)CYREG_MLOGIC_DE
 643              		.loc 1 428 0
 644 0012 414A     		ldr	r2, .L36+4
 645 0014 1378     		ldrb	r3, [r2]	@ zero_extendqisi2
 646 0016 43F00403 		orr	r3, r3, #4
 647 001a 1370     		strb	r3, [r2]
 648              	.LVL37:
 649              	.LBB3:
 429:Generated_Source\PSoC5/cyfitter_cfg.c **** 
 430:Generated_Source\PSoC5/cyfitter_cfg.c **** 	{
 431:Generated_Source\PSoC5/cyfitter_cfg.c **** 
 432:Generated_Source\PSoC5/cyfitter_cfg.c **** 		CYPACKED typedef struct {
 433:Generated_Source\PSoC5/cyfitter_cfg.c **** 			void CYFAR *address;
 434:Generated_Source\PSoC5/cyfitter_cfg.c **** 			uint16 size;
 435:Generated_Source\PSoC5/cyfitter_cfg.c **** 		} CYPACKED_ATTR cfg_memset_t;
 436:Generated_Source\PSoC5/cyfitter_cfg.c **** 
 437:Generated_Source\PSoC5/cyfitter_cfg.c **** 
 438:Generated_Source\PSoC5/cyfitter_cfg.c **** 		CYPACKED typedef struct {
 439:Generated_Source\PSoC5/cyfitter_cfg.c **** 			void CYFAR *dest;
 440:Generated_Source\PSoC5/cyfitter_cfg.c **** 			const void CYFAR *src;
 441:Generated_Source\PSoC5/cyfitter_cfg.c **** 			uint16 size;
 442:Generated_Source\PSoC5/cyfitter_cfg.c **** 		} CYPACKED_ATTR cfg_memcpy_t;
 443:Generated_Source\PSoC5/cyfitter_cfg.c **** 
ARM GAS  C:\Users\koseki\AppData\Local\Temp\ccdCQdSc.s 			page 21


 444:Generated_Source\PSoC5/cyfitter_cfg.c **** 		static const cfg_memset_t CYCODE cfg_memset_list [] = {
 445:Generated_Source\PSoC5/cyfitter_cfg.c **** 			/* address, size */
 446:Generated_Source\PSoC5/cyfitter_cfg.c **** 			{(void CYFAR *)(CYREG_I2C_XCFG), 25u},
 447:Generated_Source\PSoC5/cyfitter_cfg.c **** 			{(void CYFAR *)(CYREG_TMR0_CFG0), 12u},
 448:Generated_Source\PSoC5/cyfitter_cfg.c **** 			{(void CYFAR *)(CYREG_PRT4_DR), 48u},
 449:Generated_Source\PSoC5/cyfitter_cfg.c **** 			{(void CYFAR *)(CYDEV_UCFG_B0_P0_U0_BASE), 2688u},
 450:Generated_Source\PSoC5/cyfitter_cfg.c **** 			{(void CYFAR *)(CYDEV_UCFG_B0_P5_ROUTE_BASE), 1280u},
 451:Generated_Source\PSoC5/cyfitter_cfg.c **** 			{(void CYFAR *)(CYDEV_UCFG_B1_P2_U0_BASE), 2048u},
 452:Generated_Source\PSoC5/cyfitter_cfg.c **** 			{(void CYFAR *)(CYDEV_UCFG_DSI0_BASE), 2560u},
 453:Generated_Source\PSoC5/cyfitter_cfg.c **** 			{(void CYFAR *)(CYDEV_UCFG_DSI12_BASE), 512u},
 454:Generated_Source\PSoC5/cyfitter_cfg.c **** 			{(void CYFAR *)(CYREG_BCTL0_MDCLK_EN), 32u},
 455:Generated_Source\PSoC5/cyfitter_cfg.c **** 		};
 456:Generated_Source\PSoC5/cyfitter_cfg.c **** 
 457:Generated_Source\PSoC5/cyfitter_cfg.c **** 		static const cfg_memcpy_t CYCODE cfg_memcpy_list [] = {
 458:Generated_Source\PSoC5/cyfitter_cfg.c **** 			/* dest, src, size */
 459:Generated_Source\PSoC5/cyfitter_cfg.c **** 			{(void CYFAR *)(CYDEV_UCFG_B0_P5_U1_BASE), BS_UDB_0_3_1_CONFIG_VAL, 128u},
 460:Generated_Source\PSoC5/cyfitter_cfg.c **** 		};
 461:Generated_Source\PSoC5/cyfitter_cfg.c **** 
 462:Generated_Source\PSoC5/cyfitter_cfg.c **** 		uint8 CYDATA i;
 463:Generated_Source\PSoC5/cyfitter_cfg.c **** 
 464:Generated_Source\PSoC5/cyfitter_cfg.c **** 		/* Zero out critical memory blocks before beginning configuration */
 465:Generated_Source\PSoC5/cyfitter_cfg.c **** 		for (i = 0u; i < (sizeof(cfg_memset_list)/sizeof(cfg_memset_list[0])); i++)
 650              		.loc 1 465 0
 651 001c 0024     		movs	r4, #0
 652 001e 0CE0     		b	.L31
 653              	.LVL38:
 654              	.L32:
 655              	.LBB4:
 466:Generated_Source\PSoC5/cyfitter_cfg.c **** 		{
 467:Generated_Source\PSoC5/cyfitter_cfg.c **** 			const cfg_memset_t CYCODE * CYDATA ms = &cfg_memset_list[i];
 468:Generated_Source\PSoC5/cyfitter_cfg.c **** 			CYMEMZERO(ms->address, (size_t)(uint32)(ms->size));
 656              		.loc 1 468 0 discriminator 3
 657 0020 3E49     		ldr	r1, .L36+8
 658 0022 6300     		lsls	r3, r4, #1
 659 0024 1A19     		adds	r2, r3, r4
 660 0026 5200     		lsls	r2, r2, #1
 661 0028 0A44     		add	r2, r2, r1
 662 002a 2344     		add	r3, r3, r4
 663 002c 5B00     		lsls	r3, r3, #1
 664 002e C858     		ldr	r0, [r1, r3]	@ unaligned
 665 0030 9188     		ldrh	r1, [r2, #4]
 666 0032 FFF7FEFF 		bl	CYMEMZERO
 667              	.LVL39:
 668              	.LBE4:
 465:Generated_Source\PSoC5/cyfitter_cfg.c **** 		{
 669              		.loc 1 465 0 discriminator 3
 670 0036 0134     		adds	r4, r4, #1
 671              	.LVL40:
 672 0038 E4B2     		uxtb	r4, r4
 673              	.LVL41:
 674              	.L31:
 465:Generated_Source\PSoC5/cyfitter_cfg.c **** 		{
 675              		.loc 1 465 0 is_stmt 0 discriminator 1
 676 003a 082C     		cmp	r4, #8
 677 003c F0D9     		bls	.L32
 678 003e 0024     		movs	r4, #0
 679              	.LVL42:
ARM GAS  C:\Users\koseki\AppData\Local\Temp\ccdCQdSc.s 			page 22


 680 0040 0BE0     		b	.L33
 681              	.LVL43:
 682              	.L34:
 683              	.LBB5:
 469:Generated_Source\PSoC5/cyfitter_cfg.c **** 		}
 470:Generated_Source\PSoC5/cyfitter_cfg.c **** 
 471:Generated_Source\PSoC5/cyfitter_cfg.c **** 		/* Copy device configuration data into registers */
 472:Generated_Source\PSoC5/cyfitter_cfg.c **** 		for (i = 0u; i < (sizeof(cfg_memcpy_list)/sizeof(cfg_memcpy_list[0])); i++)
 473:Generated_Source\PSoC5/cyfitter_cfg.c **** 		{
 474:Generated_Source\PSoC5/cyfitter_cfg.c **** 			const cfg_memcpy_t CYCODE * CYDATA mc = &cfg_memcpy_list[i];
 475:Generated_Source\PSoC5/cyfitter_cfg.c **** 			void * CYDATA destPtr = mc->dest;
 684              		.loc 1 475 0 is_stmt 1 discriminator 3
 685 0042 3649     		ldr	r1, .L36+8
 686 0044 A300     		lsls	r3, r4, #2
 687 0046 1A19     		adds	r2, r3, r4
 688 0048 5200     		lsls	r2, r2, #1
 689 004a 0A44     		add	r2, r2, r1
 690              	.LVL44:
 476:Generated_Source\PSoC5/cyfitter_cfg.c **** 			const void * CYDATA srcPtr = mc->src;
 477:Generated_Source\PSoC5/cyfitter_cfg.c **** 			uint16 CYDATA numBytes = mc->size;
 478:Generated_Source\PSoC5/cyfitter_cfg.c **** 			CYCONFIGCPY(destPtr, srcPtr, numBytes);
 691              		.loc 1 478 0 discriminator 3
 692 004c 906B     		ldr	r0, [r2, #56]	@ unaligned
 693              	.LVL45:
 694 004e D16B     		ldr	r1, [r2, #60]	@ unaligned
 695              	.LVL46:
 696 0050 8022     		movs	r2, #128
 697 0052 FFF7FEFF 		bl	CYCONFIGCPY
 698              	.LVL47:
 699              	.LBE5:
 472:Generated_Source\PSoC5/cyfitter_cfg.c **** 		{
 700              		.loc 1 472 0 discriminator 3
 701 0056 0134     		adds	r4, r4, #1
 702              	.LVL48:
 703 0058 E4B2     		uxtb	r4, r4
 704              	.LVL49:
 705              	.L33:
 472:Generated_Source\PSoC5/cyfitter_cfg.c **** 		{
 706              		.loc 1 472 0 is_stmt 0 discriminator 1
 707 005a 002C     		cmp	r4, #0
 708 005c F1D0     		beq	.L34
 479:Generated_Source\PSoC5/cyfitter_cfg.c **** 		}
 480:Generated_Source\PSoC5/cyfitter_cfg.c **** 
 481:Generated_Source\PSoC5/cyfitter_cfg.c **** 		cfg_write_bytes32(cy_cfg_addr_table, cy_cfg_data_table);
 709              		.loc 1 481 0 is_stmt 1
 710 005e 4FF09040 		mov	r0, #1207959552
 711 0062 2F49     		ldr	r1, .L36+12
 712 0064 FFF7FEFF 		bl	cfg_write_bytes32
 713              	.LVL50:
 482:Generated_Source\PSoC5/cyfitter_cfg.c **** 
 483:Generated_Source\PSoC5/cyfitter_cfg.c **** 		/* Perform normal device configuration. Order is not critical for these items. */
 484:Generated_Source\PSoC5/cyfitter_cfg.c **** 		CY_SET_XTND_REG16((void CYFAR *)(CYREG_LUT2_CR), 0x0203u);
 714              		.loc 1 484 0
 715 0068 40F20322 		movw	r2, #515
 716 006c 2D4B     		ldr	r3, .L36+16
 717 006e 1A80     		strh	r2, [r3]	@ movhi
 485:Generated_Source\PSoC5/cyfitter_cfg.c **** 		CYMEMZERO((void CYFAR *)(CYREG_PHUB_CFGMEM0_CFG0), 4u);
ARM GAS  C:\Users\koseki\AppData\Local\Temp\ccdCQdSc.s 			page 23


 718              		.loc 1 485 0
 719 0070 2D48     		ldr	r0, .L36+20
 720 0072 0421     		movs	r1, #4
 721 0074 FFF7FEFF 		bl	CYMEMZERO
 722              	.LVL51:
 486:Generated_Source\PSoC5/cyfitter_cfg.c **** 		CYMEMZERO((void CYFAR *)(CYREG_PHUB_CFGMEM1_CFG0), 4u);
 723              		.loc 1 486 0
 724 0078 2C48     		ldr	r0, .L36+24
 725 007a 0421     		movs	r1, #4
 726 007c FFF7FEFF 		bl	CYMEMZERO
 727              	.LVL52:
 487:Generated_Source\PSoC5/cyfitter_cfg.c **** 		CYMEMZERO((void CYFAR *)(CYREG_PHUB_CFGMEM2_CFG0), 4u);
 728              		.loc 1 487 0
 729 0080 2B48     		ldr	r0, .L36+28
 730 0082 0421     		movs	r1, #4
 731 0084 FFF7FEFF 		bl	CYMEMZERO
 732              	.LVL53:
 488:Generated_Source\PSoC5/cyfitter_cfg.c **** 		CYMEMZERO((void CYFAR *)(CYREG_PHUB_CFGMEM3_CFG0), 4u);
 733              		.loc 1 488 0
 734 0088 2A48     		ldr	r0, .L36+32
 735 008a 0421     		movs	r1, #4
 736 008c FFF7FEFF 		bl	CYMEMZERO
 737              	.LVL54:
 489:Generated_Source\PSoC5/cyfitter_cfg.c **** 
 490:Generated_Source\PSoC5/cyfitter_cfg.c **** 		/* Enable digital routing */
 491:Generated_Source\PSoC5/cyfitter_cfg.c **** 		CY_SET_XTND_REG8((void CYFAR *)CYREG_BCTL0_BANK_CTL, CY_GET_XTND_REG8((void CYFAR *)CYREG_BCTL0_B
 738              		.loc 1 491 0
 739 0090 294A     		ldr	r2, .L36+36
 740 0092 1378     		ldrb	r3, [r2]	@ zero_extendqisi2
 741 0094 43F00203 		orr	r3, r3, #2
 742 0098 1370     		strb	r3, [r2]
 492:Generated_Source\PSoC5/cyfitter_cfg.c **** 		CY_SET_XTND_REG8((void CYFAR *)CYREG_BCTL1_BANK_CTL, CY_GET_XTND_REG8((void CYFAR *)CYREG_BCTL1_B
 743              		.loc 1 492 0
 744 009a 1032     		adds	r2, r2, #16
 745 009c 1378     		ldrb	r3, [r2]	@ zero_extendqisi2
 746 009e 43F00203 		orr	r3, r3, #2
 747 00a2 1370     		strb	r3, [r2]
 493:Generated_Source\PSoC5/cyfitter_cfg.c **** 
 494:Generated_Source\PSoC5/cyfitter_cfg.c **** 		/* Enable UDB array */
 495:Generated_Source\PSoC5/cyfitter_cfg.c **** 		CY_SET_XTND_REG8((void CYFAR *)CYREG_PM_ACT_CFG0, CY_GET_XTND_REG8((void CYFAR *)CYREG_PM_ACT_CFG
 748              		.loc 1 495 0
 749 00a4 254C     		ldr	r4, .L36+40
 750              	.LVL55:
 751 00a6 2378     		ldrb	r3, [r4]	@ zero_extendqisi2
 752 00a8 43F04003 		orr	r3, r3, #64
 753 00ac 2370     		strb	r3, [r4]
 496:Generated_Source\PSoC5/cyfitter_cfg.c **** 		CY_SET_XTND_REG8((void CYFAR *)CYREG_PM_AVAIL_CR2, CY_GET_XTND_REG8((void CYFAR *)CYREG_PM_AVAIL_
 754              		.loc 1 496 0
 755 00ae A2F58632 		sub	r2, r2, #68608
 756 00b2 513A     		subs	r2, r2, #81
 757 00b4 1378     		ldrb	r3, [r2]	@ zero_extendqisi2
 758 00b6 43F01003 		orr	r3, r3, #16
 759 00ba 1370     		strb	r3, [r2]
 760              	.LBE3:
 497:Generated_Source\PSoC5/cyfitter_cfg.c **** 	}
 498:Generated_Source\PSoC5/cyfitter_cfg.c **** 
 499:Generated_Source\PSoC5/cyfitter_cfg.c **** 
ARM GAS  C:\Users\koseki\AppData\Local\Temp\ccdCQdSc.s 			page 24


 500:Generated_Source\PSoC5/cyfitter_cfg.c **** 	/* Perform second pass device configuration. These items must be configured in specific order afte
 501:Generated_Source\PSoC5/cyfitter_cfg.c **** 	CYCONFIGCPY((void CYFAR *)(CYREG_PRT0_DM0), (const void CYFAR *)(BS_IOPINS0_0_VAL), 8u);
 761              		.loc 1 501 0
 762 00bc 2048     		ldr	r0, .L36+44
 763 00be 2149     		ldr	r1, .L36+48
 764 00c0 0822     		movs	r2, #8
 765 00c2 FFF7FEFF 		bl	CYCONFIGCPY
 766              	.LVL56:
 502:Generated_Source\PSoC5/cyfitter_cfg.c **** 	CYCONFIGCPY((void CYFAR *)(CYREG_PRT12_DM0), (const void CYFAR *)(BS_IOPINS0_7_VAL), 8u);
 767              		.loc 1 502 0
 768 00c6 2048     		ldr	r0, .L36+52
 769 00c8 2049     		ldr	r1, .L36+56
 770 00ca 0822     		movs	r2, #8
 771 00cc FFF7FEFF 		bl	CYCONFIGCPY
 772              	.LVL57:
 503:Generated_Source\PSoC5/cyfitter_cfg.c **** 	CYCONFIGCPY((void CYFAR *)(CYREG_PRT15_DM0), (const void CYFAR *)(BS_IOPINS0_8_VAL), 8u);
 773              		.loc 1 503 0
 774 00d0 1F48     		ldr	r0, .L36+60
 775 00d2 2049     		ldr	r1, .L36+64
 776 00d4 0822     		movs	r2, #8
 777 00d6 FFF7FEFF 		bl	CYCONFIGCPY
 778              	.LVL58:
 504:Generated_Source\PSoC5/cyfitter_cfg.c **** 	CYCONFIGCPY((void CYFAR *)(CYREG_PRT1_DM0), (const void CYFAR *)(BS_IOPINS0_1_VAL), 8u);
 779              		.loc 1 504 0
 780 00da 1F48     		ldr	r0, .L36+68
 781 00dc 1F49     		ldr	r1, .L36+72
 782 00de 0822     		movs	r2, #8
 783 00e0 FFF7FEFF 		bl	CYCONFIGCPY
 784              	.LVL59:
 505:Generated_Source\PSoC5/cyfitter_cfg.c **** 	CYCONFIGCPY((void CYFAR *)(CYREG_PRT2_DR), (const void CYFAR *)(BS_IOPINS0_2_VAL), 10u);
 785              		.loc 1 505 0
 786 00e4 1E48     		ldr	r0, .L36+76
 787 00e6 1F49     		ldr	r1, .L36+80
 788 00e8 0A22     		movs	r2, #10
 789 00ea FFF7FEFF 		bl	CYCONFIGCPY
 790              	.LVL60:
 506:Generated_Source\PSoC5/cyfitter_cfg.c **** 	CYCONFIGCPY((void CYFAR *)(CYREG_PRT3_DM0), (const void CYFAR *)(BS_IOPINS0_3_VAL), 8u);
 791              		.loc 1 506 0
 792 00ee 1E48     		ldr	r0, .L36+84
 793 00f0 1E49     		ldr	r1, .L36+88
 794 00f2 0822     		movs	r2, #8
 795 00f4 FFF7FEFF 		bl	CYCONFIGCPY
 796              	.LVL61:
 507:Generated_Source\PSoC5/cyfitter_cfg.c **** 	/* Switch Boost to the precision bandgap reference from its internal reference */
 508:Generated_Source\PSoC5/cyfitter_cfg.c **** 	CY_SET_REG8((void CYXDATA *)CYREG_BOOST_CR2, (CY_GET_REG8((void CYXDATA *)CYREG_BOOST_CR2) | 0x08u
 797              		.loc 1 508 0
 798 00f8 1D4A     		ldr	r2, .L36+92
 799 00fa 1378     		ldrb	r3, [r2]	@ zero_extendqisi2
 800 00fc 43F00803 		orr	r3, r3, #8
 801 0100 1370     		strb	r3, [r2]
 509:Generated_Source\PSoC5/cyfitter_cfg.c **** 
 510:Generated_Source\PSoC5/cyfitter_cfg.c **** 	/* Perform basic analog initialization to defaults */
 511:Generated_Source\PSoC5/cyfitter_cfg.c **** 	AnalogSetDefault();
 802              		.loc 1 511 0
 803 0102 FFF7FEFF 		bl	AnalogSetDefault
 804              	.LVL62:
 512:Generated_Source\PSoC5/cyfitter_cfg.c **** 
ARM GAS  C:\Users\koseki\AppData\Local\Temp\ccdCQdSc.s 			page 25


 513:Generated_Source\PSoC5/cyfitter_cfg.c **** 	/* Configure alternate active mode */
 514:Generated_Source\PSoC5/cyfitter_cfg.c **** 	CYCONFIGCPY((void CYFAR *)CYDEV_PM_STBY_BASE, (const void CYFAR *)CYDEV_PM_ACT_BASE, 14u);
 805              		.loc 1 514 0
 806 0106 1B48     		ldr	r0, .L36+96
 807 0108 2146     		mov	r1, r4
 808 010a 0E22     		movs	r2, #14
 809 010c FFF7FEFF 		bl	CYCONFIGCPY
 810              	.LVL63:
 811 0110 10BD     		pop	{r4, pc}
 812              	.L37:
 813 0112 00BF     		.align	2
 814              	.L36:
 815 0114 00480040 		.word	1073760256
 816 0118 E8460040 		.word	1073759976
 817 011c 00000000 		.word	.LANCHOR0
 818 0120 84000048 		.word	1207959684
 819 0124 4C580040 		.word	1073764428
 820 0128 00760040 		.word	1073772032
 821 012c 08760040 		.word	1073772040
 822 0130 10760040 		.word	1073772048
 823 0134 18760040 		.word	1073772056
 824 0138 03500140 		.word	1073827843
 825 013c A0430040 		.word	1073759136
 826 0140 02510040 		.word	1073762562
 827 0144 60040048 		.word	1207960672
 828 0148 C2510040 		.word	1073762754
 829 014c 68040048 		.word	1207960680
 830 0150 F2510040 		.word	1073762802
 831 0154 70040048 		.word	1207960688
 832 0158 12510040 		.word	1073762578
 833 015c 78040048 		.word	1207960696
 834 0160 20510040 		.word	1073762592
 835 0164 80040048 		.word	1207960704
 836 0168 32510040 		.word	1073762610
 837 016c 8C040048 		.word	1207960716
 838 0170 22430040 		.word	1073759010
 839 0174 B0430040 		.word	1073759152
 840              		.cfi_endproc
 841              	.LFE8:
 842              		.size	cyfitter_cfg, .-cyfitter_cfg
 843              		.section	.rodata
 844              		.align	2
 845              		.set	.LANCHOR0,. + 0
 846              		.type	cfg_memset_list.4887, %object
 847              		.size	cfg_memset_list.4887, 54
 848              	cfg_memset_list.4887:
 849 0000 C8490040 		.word	1073760712
 850 0004 1900     		.short	25
 851 0006 004F0040 		.4byte	1073762048
 852 000a 0C00     		.short	12
 853 000c 40510040 		.word	1073762624
 854 0010 3000     		.short	48
 855 0012 00000140 		.4byte	1073807360
 856 0016 800A     		.short	2688
 857 0018 000B0140 		.word	1073810176
 858 001c 0005     		.short	1280
 859 001e 00140140 		.4byte	1073812480
ARM GAS  C:\Users\koseki\AppData\Local\Temp\ccdCQdSc.s 			page 26


 860 0022 0008     		.short	2048
 861 0024 00400140 		.word	1073823744
 862 0028 000A     		.short	2560
 863 002a 004C0140 		.4byte	1073826816
 864 002e 0002     		.short	512
 865 0030 00500140 		.word	1073827840
 866 0034 2000     		.short	32
 867 0036 0000     		.space	2
 868              		.type	cfg_memcpy_list.4888, %object
 869              		.size	cfg_memcpy_list.4888, 10
 870              	cfg_memcpy_list.4888:
 871 0038 800A0140 		.word	1073810048
 872 003c E0030048 		.word	1207960544
 873 0040 8000     		.short	128
 874 0042 0000     		.text
 875              	.Letext0:
 876              		.file 2 "c:\\program files (x86)\\cypress\\psoc creator\\4.0\\psoc creator\\import\\gnu\\arm\\4.9.
 877              		.file 3 "Generated_Source\\PSoC5\\cytypes.h"
 878              		.file 4 "Generated_Source\\PSoC5\\CyLib.h"