ARM GAS  C:\Users\koseki\AppData\Local\Temp\ccYXCf6g.s 			page 1


   1              		.syntax unified
   2              		.cpu cortex-m3
   3              		.fpu softvfp
   4              		.eabi_attribute 20, 1
   5              		.eabi_attribute 21, 1
   6              		.eabi_attribute 23, 3
   7              		.eabi_attribute 24, 1
   8              		.eabi_attribute 25, 1
   9              		.eabi_attribute 26, 1
  10              		.eabi_attribute 30, 1
  11              		.eabi_attribute 34, 1
  12              		.eabi_attribute 18, 4
  13              		.thumb
  14              		.file	"PrISM_1_PM.c"
  15              		.text
  16              	.Ltext0:
  17              		.cfi_sections	.debug_frame
  18              		.section	.text.PrISM_1_SaveConfig,"ax",%progbits
  19              		.align	2
  20              		.global	PrISM_1_SaveConfig
  21              		.thumb
  22              		.thumb_func
  23              		.type	PrISM_1_SaveConfig, %function
  24              	PrISM_1_SaveConfig:
  25              	.LFB0:
  26              		.file 1 ".\\Generated_Source\\PSoC5\\PrISM_1_PM.c"
   1:.\Generated_Source\PSoC5/PrISM_1_PM.c **** /*******************************************************************************
   2:.\Generated_Source\PSoC5/PrISM_1_PM.c **** * File Name: PrISM_1_PM.c
   3:.\Generated_Source\PSoC5/PrISM_1_PM.c **** * Version 2.20
   4:.\Generated_Source\PSoC5/PrISM_1_PM.c **** *
   5:.\Generated_Source\PSoC5/PrISM_1_PM.c **** * Description:
   6:.\Generated_Source\PSoC5/PrISM_1_PM.c **** *  This file provides Sleep/WakeUp APIs functionality of the PrISM component
   7:.\Generated_Source\PSoC5/PrISM_1_PM.c **** *
   8:.\Generated_Source\PSoC5/PrISM_1_PM.c **** * Note:
   9:.\Generated_Source\PSoC5/PrISM_1_PM.c **** *
  10:.\Generated_Source\PSoC5/PrISM_1_PM.c **** ********************************************************************************
  11:.\Generated_Source\PSoC5/PrISM_1_PM.c **** * Copyright 2008-2012, Cypress Semiconductor Corporation.  All rights reserved.
  12:.\Generated_Source\PSoC5/PrISM_1_PM.c **** * You may use this file only in accordance with the license, terms, conditions, 
  13:.\Generated_Source\PSoC5/PrISM_1_PM.c **** * disclaimers, and limitations in the end user license agreement accompanying 
  14:.\Generated_Source\PSoC5/PrISM_1_PM.c **** * the software package with which this file was provided.
  15:.\Generated_Source\PSoC5/PrISM_1_PM.c **** *******************************************************************************/
  16:.\Generated_Source\PSoC5/PrISM_1_PM.c **** 
  17:.\Generated_Source\PSoC5/PrISM_1_PM.c **** #include "PrISM_1.h"
  18:.\Generated_Source\PSoC5/PrISM_1_PM.c **** 
  19:.\Generated_Source\PSoC5/PrISM_1_PM.c **** 
  20:.\Generated_Source\PSoC5/PrISM_1_PM.c **** /***************************************
  21:.\Generated_Source\PSoC5/PrISM_1_PM.c **** * Local data allocation
  22:.\Generated_Source\PSoC5/PrISM_1_PM.c **** ***************************************/
  23:.\Generated_Source\PSoC5/PrISM_1_PM.c **** static PrISM_1_BACKUP_STRUCT  PrISM_1_backup = 
  24:.\Generated_Source\PSoC5/PrISM_1_PM.c **** {
  25:.\Generated_Source\PSoC5/PrISM_1_PM.c ****     /* enableState */
  26:.\Generated_Source\PSoC5/PrISM_1_PM.c ****     0u,
  27:.\Generated_Source\PSoC5/PrISM_1_PM.c ****     /* cr */
  28:.\Generated_Source\PSoC5/PrISM_1_PM.c ****     #if(!PrISM_1_PULSE_TYPE_HARDCODED)
  29:.\Generated_Source\PSoC5/PrISM_1_PM.c ****        (((PrISM_1_GREATERTHAN_OR_EQUAL == PrISM_1_COMPARE0) ? \
  30:.\Generated_Source\PSoC5/PrISM_1_PM.c ****                                                 PrISM_1_CTRL_COMPARE_TYPE0_GREATER_THAN_OR_EQUAL : 
  31:.\Generated_Source\PSoC5/PrISM_1_PM.c ****         ((PrISM_1_GREATERTHAN_OR_EQUAL == PrISM_1_COMPARE1) ? \
ARM GAS  C:\Users\koseki\AppData\Local\Temp\ccYXCf6g.s 			page 2


  32:.\Generated_Source\PSoC5/PrISM_1_PM.c ****                                                 PrISM_1_CTRL_COMPARE_TYPE1_GREATER_THAN_OR_EQUAL : 
  33:.\Generated_Source\PSoC5/PrISM_1_PM.c ****     #endif /* End PrISM_1_PULSE_TYPE_HARDCODED */
  34:.\Generated_Source\PSoC5/PrISM_1_PM.c ****     /* seed */    
  35:.\Generated_Source\PSoC5/PrISM_1_PM.c ****     PrISM_1_SEED,
  36:.\Generated_Source\PSoC5/PrISM_1_PM.c ****     /* seed_copy */    
  37:.\Generated_Source\PSoC5/PrISM_1_PM.c ****     PrISM_1_SEED,
  38:.\Generated_Source\PSoC5/PrISM_1_PM.c ****     /* polynom */
  39:.\Generated_Source\PSoC5/PrISM_1_PM.c ****     PrISM_1_POLYNOM,
  40:.\Generated_Source\PSoC5/PrISM_1_PM.c ****     #if(CY_UDB_V0)
  41:.\Generated_Source\PSoC5/PrISM_1_PM.c ****         /* density0 */
  42:.\Generated_Source\PSoC5/PrISM_1_PM.c ****         PrISM_1_DENSITY0,
  43:.\Generated_Source\PSoC5/PrISM_1_PM.c ****         /* density1 */
  44:.\Generated_Source\PSoC5/PrISM_1_PM.c ****         PrISM_1_DENSITY1,
  45:.\Generated_Source\PSoC5/PrISM_1_PM.c ****     #endif /*End CY_UDB_V0*/
  46:.\Generated_Source\PSoC5/PrISM_1_PM.c **** };
  47:.\Generated_Source\PSoC5/PrISM_1_PM.c **** 
  48:.\Generated_Source\PSoC5/PrISM_1_PM.c **** 
  49:.\Generated_Source\PSoC5/PrISM_1_PM.c **** /*******************************************************************************
  50:.\Generated_Source\PSoC5/PrISM_1_PM.c **** * Function Name: PrISM_1_SaveConfig
  51:.\Generated_Source\PSoC5/PrISM_1_PM.c **** ********************************************************************************
  52:.\Generated_Source\PSoC5/PrISM_1_PM.c **** *
  53:.\Generated_Source\PSoC5/PrISM_1_PM.c **** * Summary:
  54:.\Generated_Source\PSoC5/PrISM_1_PM.c **** *  Saves the current user configuration.
  55:.\Generated_Source\PSoC5/PrISM_1_PM.c **** *  
  56:.\Generated_Source\PSoC5/PrISM_1_PM.c **** * Parameters:  
  57:.\Generated_Source\PSoC5/PrISM_1_PM.c **** *  None.
  58:.\Generated_Source\PSoC5/PrISM_1_PM.c **** *
  59:.\Generated_Source\PSoC5/PrISM_1_PM.c **** * Return: 
  60:.\Generated_Source\PSoC5/PrISM_1_PM.c **** *  None.
  61:.\Generated_Source\PSoC5/PrISM_1_PM.c **** *
  62:.\Generated_Source\PSoC5/PrISM_1_PM.c **** * Global Variables:
  63:.\Generated_Source\PSoC5/PrISM_1_PM.c **** *  PrISM_1_backup - modified when non-retention registers are saved.
  64:.\Generated_Source\PSoC5/PrISM_1_PM.c **** *
  65:.\Generated_Source\PSoC5/PrISM_1_PM.c **** * Reentrant:
  66:.\Generated_Source\PSoC5/PrISM_1_PM.c **** *  No.
  67:.\Generated_Source\PSoC5/PrISM_1_PM.c **** *
  68:.\Generated_Source\PSoC5/PrISM_1_PM.c **** *******************************************************************************/
  69:.\Generated_Source\PSoC5/PrISM_1_PM.c **** void PrISM_1_SaveConfig(void) 
  70:.\Generated_Source\PSoC5/PrISM_1_PM.c **** {
  27              		.loc 1 70 0
  28              		.cfi_startproc
  29              		@ args = 0, pretend = 0, frame = 0
  30              		@ frame_needed = 0, uses_anonymous_args = 0
  31 0000 10B5     		push	{r4, lr}
  32              		.cfi_def_cfa_offset 8
  33              		.cfi_offset 4, -8
  34              		.cfi_offset 14, -4
  71:.\Generated_Source\PSoC5/PrISM_1_PM.c ****     #if (CY_UDB_V0)
  72:.\Generated_Source\PSoC5/PrISM_1_PM.c ****         #if(!PrISM_1_PULSE_TYPE_HARDCODED)
  73:.\Generated_Source\PSoC5/PrISM_1_PM.c ****             PrISM_1_backup.cr = PrISM_1_CONTROL_REG;
  74:.\Generated_Source\PSoC5/PrISM_1_PM.c ****         #endif /* End PrISM_1_PULSE_TYPE_HARDCODED */
  75:.\Generated_Source\PSoC5/PrISM_1_PM.c ****         PrISM_1_backup.seed = PrISM_1_ReadSeed();
  76:.\Generated_Source\PSoC5/PrISM_1_PM.c ****         PrISM_1_backup.seed_copy = CY_GET_REG8(PrISM_1_SEED_COPY_PTR);
  77:.\Generated_Source\PSoC5/PrISM_1_PM.c ****         PrISM_1_backup.polynom = PrISM_1_ReadPolynomial();
  78:.\Generated_Source\PSoC5/PrISM_1_PM.c ****         PrISM_1_backup.density0 = PrISM_1_ReadPulse0();
  79:.\Generated_Source\PSoC5/PrISM_1_PM.c ****         PrISM_1_backup.density1 = PrISM_1_ReadPulse1();
  80:.\Generated_Source\PSoC5/PrISM_1_PM.c ****     #else /* CY_UDB_V1 */
ARM GAS  C:\Users\koseki\AppData\Local\Temp\ccYXCf6g.s 			page 3


  81:.\Generated_Source\PSoC5/PrISM_1_PM.c ****         #if(!PrISM_1_PULSE_TYPE_HARDCODED)
  82:.\Generated_Source\PSoC5/PrISM_1_PM.c ****             PrISM_1_backup.cr = PrISM_1_CONTROL_REG;
  35              		.loc 1 82 0
  36 0002 074B     		ldr	r3, .L3
  37 0004 1B78     		ldrb	r3, [r3]	@ zero_extendqisi2
  38 0006 074C     		ldr	r4, .L3+4
  39 0008 6370     		strb	r3, [r4, #1]
  83:.\Generated_Source\PSoC5/PrISM_1_PM.c ****         #endif /* End PrISM_1_PULSE_TYPE_HARDCODED */
  84:.\Generated_Source\PSoC5/PrISM_1_PM.c ****         PrISM_1_backup.seed = PrISM_1_ReadSeed();
  40              		.loc 1 84 0
  41 000a FFF7FEFF 		bl	PrISM_1_ReadSeed
  42              	.LVL0:
  43 000e A070     		strb	r0, [r4, #2]
  85:.\Generated_Source\PSoC5/PrISM_1_PM.c ****         PrISM_1_backup.seed_copy = CY_GET_REG8(PrISM_1_SEED_COPY_PTR);
  44              		.loc 1 85 0
  45 0010 054B     		ldr	r3, .L3+8
  46 0012 1B78     		ldrb	r3, [r3]	@ zero_extendqisi2
  47 0014 E370     		strb	r3, [r4, #3]
  86:.\Generated_Source\PSoC5/PrISM_1_PM.c ****         PrISM_1_backup.polynom = PrISM_1_ReadPolynomial();
  48              		.loc 1 86 0
  49 0016 FFF7FEFF 		bl	PrISM_1_ReadPolynomial
  50              	.LVL1:
  51 001a 2071     		strb	r0, [r4, #4]
  52 001c 10BD     		pop	{r4, pc}
  53              	.L4:
  54 001e 00BF     		.align	2
  55              	.L3:
  56 0020 79650040 		.word	1073767801
  57 0024 00000000 		.word	.LANCHOR0
  58 0028 49650040 		.word	1073767753
  59              		.cfi_endproc
  60              	.LFE0:
  61              		.size	PrISM_1_SaveConfig, .-PrISM_1_SaveConfig
  62              		.section	.text.PrISM_1_RestoreConfig,"ax",%progbits
  63              		.align	2
  64              		.global	PrISM_1_RestoreConfig
  65              		.thumb
  66              		.thumb_func
  67              		.type	PrISM_1_RestoreConfig, %function
  68              	PrISM_1_RestoreConfig:
  69              	.LFB1:
  87:.\Generated_Source\PSoC5/PrISM_1_PM.c ****     #endif  /* CY_UDB_V0 */
  88:.\Generated_Source\PSoC5/PrISM_1_PM.c **** }
  89:.\Generated_Source\PSoC5/PrISM_1_PM.c **** 
  90:.\Generated_Source\PSoC5/PrISM_1_PM.c **** 
  91:.\Generated_Source\PSoC5/PrISM_1_PM.c **** /*******************************************************************************
  92:.\Generated_Source\PSoC5/PrISM_1_PM.c **** * Function Name: PrISM_1_RestoreConfig
  93:.\Generated_Source\PSoC5/PrISM_1_PM.c **** ********************************************************************************
  94:.\Generated_Source\PSoC5/PrISM_1_PM.c **** *
  95:.\Generated_Source\PSoC5/PrISM_1_PM.c **** * Summary:
  96:.\Generated_Source\PSoC5/PrISM_1_PM.c **** *  Restores the current user configuration.
  97:.\Generated_Source\PSoC5/PrISM_1_PM.c **** *
  98:.\Generated_Source\PSoC5/PrISM_1_PM.c **** * Parameters:  
  99:.\Generated_Source\PSoC5/PrISM_1_PM.c **** *  None.
 100:.\Generated_Source\PSoC5/PrISM_1_PM.c **** *
 101:.\Generated_Source\PSoC5/PrISM_1_PM.c **** * Return: 
 102:.\Generated_Source\PSoC5/PrISM_1_PM.c **** *  None.
ARM GAS  C:\Users\koseki\AppData\Local\Temp\ccYXCf6g.s 			page 4


 103:.\Generated_Source\PSoC5/PrISM_1_PM.c **** *
 104:.\Generated_Source\PSoC5/PrISM_1_PM.c **** * Global Variables:
 105:.\Generated_Source\PSoC5/PrISM_1_PM.c **** *  PrISM_1_backup - used when non-retention registers are restored.
 106:.\Generated_Source\PSoC5/PrISM_1_PM.c **** *
 107:.\Generated_Source\PSoC5/PrISM_1_PM.c **** *******************************************************************************/
 108:.\Generated_Source\PSoC5/PrISM_1_PM.c **** void PrISM_1_RestoreConfig(void) 
 109:.\Generated_Source\PSoC5/PrISM_1_PM.c **** {
  70              		.loc 1 109 0
  71              		.cfi_startproc
  72              		@ args = 0, pretend = 0, frame = 0
  73              		@ frame_needed = 0, uses_anonymous_args = 0
  74 0000 08B5     		push	{r3, lr}
  75              		.cfi_def_cfa_offset 8
  76              		.cfi_offset 3, -8
  77              		.cfi_offset 14, -4
 110:.\Generated_Source\PSoC5/PrISM_1_PM.c ****     #if (CY_UDB_V0)
 111:.\Generated_Source\PSoC5/PrISM_1_PM.c ****     
 112:.\Generated_Source\PSoC5/PrISM_1_PM.c ****         uint8 enableInterrupts;
 113:.\Generated_Source\PSoC5/PrISM_1_PM.c ****         
 114:.\Generated_Source\PSoC5/PrISM_1_PM.c ****         #if(!PrISM_1_PULSE_TYPE_HARDCODED)
 115:.\Generated_Source\PSoC5/PrISM_1_PM.c ****             PrISM_1_CONTROL_REG = PrISM_1_backup.cr;
 116:.\Generated_Source\PSoC5/PrISM_1_PM.c ****         #endif /* End PrISM_1_PULSE_TYPE_HARDCODED */
 117:.\Generated_Source\PSoC5/PrISM_1_PM.c **** 
 118:.\Generated_Source\PSoC5/PrISM_1_PM.c ****         CY_SET_REG8(PrISM_1_SEED_COPY_PTR, PrISM_1_backup.seed_copy);
 119:.\Generated_Source\PSoC5/PrISM_1_PM.c ****         CY_SET_REG8(PrISM_1_SEED_PTR, PrISM_1_backup.seed);
 120:.\Generated_Source\PSoC5/PrISM_1_PM.c ****         PrISM_1_WritePolynomial(PrISM_1_backup.polynom);
 121:.\Generated_Source\PSoC5/PrISM_1_PM.c ****         PrISM_1_WritePulse0(PrISM_1_backup.density0);
 122:.\Generated_Source\PSoC5/PrISM_1_PM.c ****         PrISM_1_WritePulse1(PrISM_1_backup.density1);
 123:.\Generated_Source\PSoC5/PrISM_1_PM.c ****         
 124:.\Generated_Source\PSoC5/PrISM_1_PM.c ****         enableInterrupts = CyEnterCriticalSection();
 125:.\Generated_Source\PSoC5/PrISM_1_PM.c ****         /* Set FIFO0_CLR bit to use FIFO0 as a simple one-byte buffer*/
 126:.\Generated_Source\PSoC5/PrISM_1_PM.c ****         CY_SET_REG8(PrISM_1_AUX_CONTROL_PTR, 
 127:.\Generated_Source\PSoC5/PrISM_1_PM.c ****                         CY_GET_REG8(PrISM_1_AUX_CONTROL_PTR) | PrISM_1_FIFO0_CLR);
 128:.\Generated_Source\PSoC5/PrISM_1_PM.c ****         CyExitCriticalSection(enableInterrupts);
 129:.\Generated_Source\PSoC5/PrISM_1_PM.c **** 
 130:.\Generated_Source\PSoC5/PrISM_1_PM.c ****     #else   /* CY_UDB_V1 */
 131:.\Generated_Source\PSoC5/PrISM_1_PM.c **** 
 132:.\Generated_Source\PSoC5/PrISM_1_PM.c ****         #if(!PrISM_1_PULSE_TYPE_HARDCODED)
 133:.\Generated_Source\PSoC5/PrISM_1_PM.c ****             PrISM_1_CONTROL_REG = PrISM_1_backup.cr;
  78              		.loc 1 133 0
  79 0002 074B     		ldr	r3, .L7
  80 0004 5978     		ldrb	r1, [r3, #1]	@ zero_extendqisi2
  81 0006 074A     		ldr	r2, .L7+4
  82 0008 1170     		strb	r1, [r2]
 134:.\Generated_Source\PSoC5/PrISM_1_PM.c ****         #endif /* End PrISM_1_PULSE_TYPE_HARDCODED */
 135:.\Generated_Source\PSoC5/PrISM_1_PM.c **** 
 136:.\Generated_Source\PSoC5/PrISM_1_PM.c ****         CY_SET_REG8(PrISM_1_SEED_COPY_PTR, PrISM_1_backup.seed_copy);
  83              		.loc 1 136 0
  84 000a D978     		ldrb	r1, [r3, #3]	@ zero_extendqisi2
  85 000c 303A     		subs	r2, r2, #48
  86 000e 1170     		strb	r1, [r2]
 137:.\Generated_Source\PSoC5/PrISM_1_PM.c ****         CY_SET_REG8(PrISM_1_SEED_PTR, PrISM_1_backup.seed);
  87              		.loc 1 137 0
  88 0010 9978     		ldrb	r1, [r3, #2]	@ zero_extendqisi2
  89 0012 403A     		subs	r2, r2, #64
  90 0014 1170     		strb	r1, [r2]
 138:.\Generated_Source\PSoC5/PrISM_1_PM.c ****         PrISM_1_WritePolynomial(PrISM_1_backup.polynom);
ARM GAS  C:\Users\koseki\AppData\Local\Temp\ccYXCf6g.s 			page 5


  91              		.loc 1 138 0
  92 0016 1879     		ldrb	r0, [r3, #4]	@ zero_extendqisi2
  93 0018 FFF7FEFF 		bl	PrISM_1_WritePolynomial
  94              	.LVL2:
  95 001c 08BD     		pop	{r3, pc}
  96              	.L8:
  97 001e 00BF     		.align	2
  98              	.L7:
  99 0020 00000000 		.word	.LANCHOR0
 100 0024 79650040 		.word	1073767801
 101              		.cfi_endproc
 102              	.LFE1:
 103              		.size	PrISM_1_RestoreConfig, .-PrISM_1_RestoreConfig
 104              		.section	.text.PrISM_1_Sleep,"ax",%progbits
 105              		.align	2
 106              		.global	PrISM_1_Sleep
 107              		.thumb
 108              		.thumb_func
 109              		.type	PrISM_1_Sleep, %function
 110              	PrISM_1_Sleep:
 111              	.LFB2:
 139:.\Generated_Source\PSoC5/PrISM_1_PM.c ****     
 140:.\Generated_Source\PSoC5/PrISM_1_PM.c ****     #endif  /* End CY_UDB_V0 */
 141:.\Generated_Source\PSoC5/PrISM_1_PM.c **** }
 142:.\Generated_Source\PSoC5/PrISM_1_PM.c **** 
 143:.\Generated_Source\PSoC5/PrISM_1_PM.c **** 
 144:.\Generated_Source\PSoC5/PrISM_1_PM.c **** /*******************************************************************************
 145:.\Generated_Source\PSoC5/PrISM_1_PM.c **** * Function Name: PrISM_1_Sleep
 146:.\Generated_Source\PSoC5/PrISM_1_PM.c **** ********************************************************************************
 147:.\Generated_Source\PSoC5/PrISM_1_PM.c **** *
 148:.\Generated_Source\PSoC5/PrISM_1_PM.c **** * Summary:
 149:.\Generated_Source\PSoC5/PrISM_1_PM.c **** *  Stops and saves the user configuration
 150:.\Generated_Source\PSoC5/PrISM_1_PM.c **** *  
 151:.\Generated_Source\PSoC5/PrISM_1_PM.c **** * Parameters:  
 152:.\Generated_Source\PSoC5/PrISM_1_PM.c **** *  None.
 153:.\Generated_Source\PSoC5/PrISM_1_PM.c **** *
 154:.\Generated_Source\PSoC5/PrISM_1_PM.c **** * Return: 
 155:.\Generated_Source\PSoC5/PrISM_1_PM.c **** *  None.
 156:.\Generated_Source\PSoC5/PrISM_1_PM.c **** *
 157:.\Generated_Source\PSoC5/PrISM_1_PM.c **** * Global Variables:
 158:.\Generated_Source\PSoC5/PrISM_1_PM.c **** *  PrISM_1_backup - modified when non-retention registers are saved.
 159:.\Generated_Source\PSoC5/PrISM_1_PM.c **** *
 160:.\Generated_Source\PSoC5/PrISM_1_PM.c **** * Reentrant:
 161:.\Generated_Source\PSoC5/PrISM_1_PM.c **** *  No.
 162:.\Generated_Source\PSoC5/PrISM_1_PM.c **** *
 163:.\Generated_Source\PSoC5/PrISM_1_PM.c **** *******************************************************************************/
 164:.\Generated_Source\PSoC5/PrISM_1_PM.c **** void PrISM_1_Sleep(void) 
 165:.\Generated_Source\PSoC5/PrISM_1_PM.c **** {
 112              		.loc 1 165 0
 113              		.cfi_startproc
 114              		@ args = 0, pretend = 0, frame = 0
 115              		@ frame_needed = 0, uses_anonymous_args = 0
 116 0000 08B5     		push	{r3, lr}
 117              		.cfi_def_cfa_offset 8
 118              		.cfi_offset 3, -8
 119              		.cfi_offset 14, -4
 166:.\Generated_Source\PSoC5/PrISM_1_PM.c ****     #if(!PrISM_1_PULSE_TYPE_HARDCODED)
ARM GAS  C:\Users\koseki\AppData\Local\Temp\ccYXCf6g.s 			page 6


 167:.\Generated_Source\PSoC5/PrISM_1_PM.c ****         if((PrISM_1_CONTROL_REG & PrISM_1_CTRL_ENABLE) != 0u) 
 120              		.loc 1 167 0
 121 0002 084B     		ldr	r3, .L13
 122 0004 1B78     		ldrb	r3, [r3]	@ zero_extendqisi2
 123 0006 13F0010F 		tst	r3, #1
 124 000a 03D0     		beq	.L10
 168:.\Generated_Source\PSoC5/PrISM_1_PM.c ****         {
 169:.\Generated_Source\PSoC5/PrISM_1_PM.c ****             PrISM_1_backup.enableState = 1u;
 125              		.loc 1 169 0
 126 000c 0122     		movs	r2, #1
 127 000e 064B     		ldr	r3, .L13+4
 128 0010 1A70     		strb	r2, [r3]
 129 0012 02E0     		b	.L11
 130              	.L10:
 170:.\Generated_Source\PSoC5/PrISM_1_PM.c ****         }
 171:.\Generated_Source\PSoC5/PrISM_1_PM.c ****         else
 172:.\Generated_Source\PSoC5/PrISM_1_PM.c ****         {
 173:.\Generated_Source\PSoC5/PrISM_1_PM.c ****             PrISM_1_backup.enableState = 0u;
 131              		.loc 1 173 0
 132 0014 0022     		movs	r2, #0
 133 0016 044B     		ldr	r3, .L13+4
 134 0018 1A70     		strb	r2, [r3]
 135              	.L11:
 174:.\Generated_Source\PSoC5/PrISM_1_PM.c ****         }
 175:.\Generated_Source\PSoC5/PrISM_1_PM.c ****     #endif /* End PrISM_1_PULSE_TYPE_HARDCODED */
 176:.\Generated_Source\PSoC5/PrISM_1_PM.c ****     PrISM_1_Stop();
 136              		.loc 1 176 0
 137 001a FFF7FEFF 		bl	PrISM_1_Stop
 138              	.LVL3:
 177:.\Generated_Source\PSoC5/PrISM_1_PM.c ****     PrISM_1_SaveConfig();
 139              		.loc 1 177 0
 140 001e FFF7FEFF 		bl	PrISM_1_SaveConfig
 141              	.LVL4:
 142 0022 08BD     		pop	{r3, pc}
 143              	.L14:
 144              		.align	2
 145              	.L13:
 146 0024 79650040 		.word	1073767801
 147 0028 00000000 		.word	.LANCHOR0
 148              		.cfi_endproc
 149              	.LFE2:
 150              		.size	PrISM_1_Sleep, .-PrISM_1_Sleep
 151              		.section	.text.PrISM_1_Wakeup,"ax",%progbits
 152              		.align	2
 153              		.global	PrISM_1_Wakeup
 154              		.thumb
 155              		.thumb_func
 156              		.type	PrISM_1_Wakeup, %function
 157              	PrISM_1_Wakeup:
 158              	.LFB3:
 178:.\Generated_Source\PSoC5/PrISM_1_PM.c **** }
 179:.\Generated_Source\PSoC5/PrISM_1_PM.c **** 
 180:.\Generated_Source\PSoC5/PrISM_1_PM.c **** 
 181:.\Generated_Source\PSoC5/PrISM_1_PM.c **** /*******************************************************************************
 182:.\Generated_Source\PSoC5/PrISM_1_PM.c **** * Function Name: PrISM_1_Wakeup
 183:.\Generated_Source\PSoC5/PrISM_1_PM.c **** ********************************************************************************
 184:.\Generated_Source\PSoC5/PrISM_1_PM.c **** *
ARM GAS  C:\Users\koseki\AppData\Local\Temp\ccYXCf6g.s 			page 7


 185:.\Generated_Source\PSoC5/PrISM_1_PM.c **** * Summary:
 186:.\Generated_Source\PSoC5/PrISM_1_PM.c **** *  Restores and enables the user configuration
 187:.\Generated_Source\PSoC5/PrISM_1_PM.c **** *  
 188:.\Generated_Source\PSoC5/PrISM_1_PM.c **** * Parameters:  
 189:.\Generated_Source\PSoC5/PrISM_1_PM.c **** *  None.
 190:.\Generated_Source\PSoC5/PrISM_1_PM.c **** *
 191:.\Generated_Source\PSoC5/PrISM_1_PM.c **** * Return: 
 192:.\Generated_Source\PSoC5/PrISM_1_PM.c **** *  None.
 193:.\Generated_Source\PSoC5/PrISM_1_PM.c **** *
 194:.\Generated_Source\PSoC5/PrISM_1_PM.c **** * Global Variables:
 195:.\Generated_Source\PSoC5/PrISM_1_PM.c **** *  PrISM_1_backup - used when non-retention registers are restored.
 196:.\Generated_Source\PSoC5/PrISM_1_PM.c **** *
 197:.\Generated_Source\PSoC5/PrISM_1_PM.c **** *******************************************************************************/
 198:.\Generated_Source\PSoC5/PrISM_1_PM.c **** void PrISM_1_Wakeup(void) 
 199:.\Generated_Source\PSoC5/PrISM_1_PM.c **** {
 159              		.loc 1 199 0
 160              		.cfi_startproc
 161              		@ args = 0, pretend = 0, frame = 0
 162              		@ frame_needed = 0, uses_anonymous_args = 0
 163 0000 08B5     		push	{r3, lr}
 164              		.cfi_def_cfa_offset 8
 165              		.cfi_offset 3, -8
 166              		.cfi_offset 14, -4
 200:.\Generated_Source\PSoC5/PrISM_1_PM.c ****     PrISM_1_RestoreConfig();
 167              		.loc 1 200 0
 168 0002 FFF7FEFF 		bl	PrISM_1_RestoreConfig
 169              	.LVL5:
 201:.\Generated_Source\PSoC5/PrISM_1_PM.c ****     if(PrISM_1_backup.enableState != 0u)
 170              		.loc 1 201 0
 171 0006 034B     		ldr	r3, .L18
 172 0008 1B78     		ldrb	r3, [r3]	@ zero_extendqisi2
 173 000a 0BB1     		cbz	r3, .L15
 202:.\Generated_Source\PSoC5/PrISM_1_PM.c ****     {
 203:.\Generated_Source\PSoC5/PrISM_1_PM.c ****         PrISM_1_Enable();
 174              		.loc 1 203 0
 175 000c FFF7FEFF 		bl	PrISM_1_Enable
 176              	.LVL6:
 177              	.L15:
 178 0010 08BD     		pop	{r3, pc}
 179              	.L19:
 180 0012 00BF     		.align	2
 181              	.L18:
 182 0014 00000000 		.word	.LANCHOR0
 183              		.cfi_endproc
 184              	.LFE3:
 185              		.size	PrISM_1_Wakeup, .-PrISM_1_Wakeup
 186              		.data
 187              		.align	2
 188              		.set	.LANCHOR0,. + 0
 189              		.type	PrISM_1_backup, %object
 190              		.size	PrISM_1_backup, 5
 191              	PrISM_1_backup:
 192 0000 00       		.byte	0
 193 0001 00       		.byte	0
 194 0002 FF       		.byte	-1
 195 0003 FF       		.byte	-1
 196 0004 B8       		.byte	-72
ARM GAS  C:\Users\koseki\AppData\Local\Temp\ccYXCf6g.s 			page 8


 197 0005 000000   		.text
 198              	.Letext0:
 199              		.file 2 ".\\Generated_Source\\PSoC5\\cytypes.h"
 200              		.file 3 ".\\Generated_Source\\PSoC5\\PrISM_1.h"