ARM GAS  C:\Users\koseki\AppData\Local\Temp\ccZ4Ff8h.s 			page 1


   1              		.syntax unified
   2              		.cpu cortex-m3
   3              		.fpu softvfp
   4              		.eabi_attribute 20, 1
   5              		.eabi_attribute 21, 1
   6              		.eabi_attribute 23, 3
   7              		.eabi_attribute 24, 1
   8              		.eabi_attribute 25, 1
   9              		.eabi_attribute 26, 1
  10              		.eabi_attribute 30, 1
  11              		.eabi_attribute 34, 1
  12              		.eabi_attribute 18, 4
  13              		.thumb
  14              		.file	"PrISM_1.c"
  15              		.text
  16              	.Ltext0:
  17              		.cfi_sections	.debug_frame
  18              		.section	.text.PrISM_1_Enable,"ax",%progbits
  19              		.align	2
  20              		.global	PrISM_1_Enable
  21              		.thumb
  22              		.thumb_func
  23              		.type	PrISM_1_Enable, %function
  24              	PrISM_1_Enable:
  25              	.LFB2:
  26              		.file 1 ".\\Generated_Source\\PSoC5\\PrISM_1.c"
   1:.\Generated_Source\PSoC5/PrISM_1.c **** /*******************************************************************************
   2:.\Generated_Source\PSoC5/PrISM_1.c **** * File Name: PrISM_1.c
   3:.\Generated_Source\PSoC5/PrISM_1.c **** * Version 2.20
   4:.\Generated_Source\PSoC5/PrISM_1.c **** *
   5:.\Generated_Source\PSoC5/PrISM_1.c **** * Description:
   6:.\Generated_Source\PSoC5/PrISM_1.c **** *  This file provides the source code of the API for the PrISM Component.
   7:.\Generated_Source\PSoC5/PrISM_1.c **** *
   8:.\Generated_Source\PSoC5/PrISM_1.c **** * Note:
   9:.\Generated_Source\PSoC5/PrISM_1.c **** *  The PRiSM Component consists of a 8, 16, 24, 32 - bit PrISM, it
  10:.\Generated_Source\PSoC5/PrISM_1.c **** *  depends on length Polynomial value and user selected Seed Value. 
  11:.\Generated_Source\PSoC5/PrISM_1.c **** *
  12:.\Generated_Source\PSoC5/PrISM_1.c **** ********************************************************************************
  13:.\Generated_Source\PSoC5/PrISM_1.c **** * Copyright 2008-2012, Cypress Semiconductor Corporation.  All rights reserved.
  14:.\Generated_Source\PSoC5/PrISM_1.c **** * You may use this file only in accordance with the license, terms, conditions, 
  15:.\Generated_Source\PSoC5/PrISM_1.c **** * disclaimers, and limitations in the end user license agreement accompanying 
  16:.\Generated_Source\PSoC5/PrISM_1.c **** * the software package with which this file was provided.
  17:.\Generated_Source\PSoC5/PrISM_1.c **** *******************************************************************************/
  18:.\Generated_Source\PSoC5/PrISM_1.c **** 
  19:.\Generated_Source\PSoC5/PrISM_1.c **** #include "PrISM_1.h"
  20:.\Generated_Source\PSoC5/PrISM_1.c **** 
  21:.\Generated_Source\PSoC5/PrISM_1.c **** 
  22:.\Generated_Source\PSoC5/PrISM_1.c **** /***************************************
  23:.\Generated_Source\PSoC5/PrISM_1.c **** * Local data allocation
  24:.\Generated_Source\PSoC5/PrISM_1.c **** ***************************************/
  25:.\Generated_Source\PSoC5/PrISM_1.c **** 
  26:.\Generated_Source\PSoC5/PrISM_1.c **** uint8 PrISM_1_initVar = 0u;
  27:.\Generated_Source\PSoC5/PrISM_1.c **** 
  28:.\Generated_Source\PSoC5/PrISM_1.c **** 
  29:.\Generated_Source\PSoC5/PrISM_1.c **** /*******************************************************************************
  30:.\Generated_Source\PSoC5/PrISM_1.c **** * FUNCTION NAME:   PrISM_1_Start
  31:.\Generated_Source\PSoC5/PrISM_1.c **** ********************************************************************************
ARM GAS  C:\Users\koseki\AppData\Local\Temp\ccZ4Ff8h.s 			page 2


  32:.\Generated_Source\PSoC5/PrISM_1.c **** *
  33:.\Generated_Source\PSoC5/PrISM_1.c **** * Summary:
  34:.\Generated_Source\PSoC5/PrISM_1.c **** *  The start function sets Polynomial, Seed and Pulse Density registers provided
  35:.\Generated_Source\PSoC5/PrISM_1.c **** *  by customizer. PrISM computation starts on rising edge of input clock.
  36:.\Generated_Source\PSoC5/PrISM_1.c **** *
  37:.\Generated_Source\PSoC5/PrISM_1.c **** * Parameters:  
  38:.\Generated_Source\PSoC5/PrISM_1.c **** *  None.
  39:.\Generated_Source\PSoC5/PrISM_1.c **** *
  40:.\Generated_Source\PSoC5/PrISM_1.c **** * Return:  
  41:.\Generated_Source\PSoC5/PrISM_1.c **** *  None.
  42:.\Generated_Source\PSoC5/PrISM_1.c **** *
  43:.\Generated_Source\PSoC5/PrISM_1.c **** * Global variables:
  44:.\Generated_Source\PSoC5/PrISM_1.c **** *  The PrISM_1_initVar variable is used to indicate initial
  45:.\Generated_Source\PSoC5/PrISM_1.c **** *  configuration of this component.  The variable is initialized to zero and
  46:.\Generated_Source\PSoC5/PrISM_1.c **** *  set to 1 the first time PrISM_1_Start() is called. This allows for
  47:.\Generated_Source\PSoC5/PrISM_1.c **** *  component initialization without re-initialization in all subsequent calls
  48:.\Generated_Source\PSoC5/PrISM_1.c **** *  to the PrISM_1_Start() routine. 
  49:.\Generated_Source\PSoC5/PrISM_1.c **** 
  50:.\Generated_Source\PSoC5/PrISM_1.c **** * Reentrant:
  51:.\Generated_Source\PSoC5/PrISM_1.c **** *  No.
  52:.\Generated_Source\PSoC5/PrISM_1.c **** *
  53:.\Generated_Source\PSoC5/PrISM_1.c **** *******************************************************************************/
  54:.\Generated_Source\PSoC5/PrISM_1.c **** void PrISM_1_Start(void) 
  55:.\Generated_Source\PSoC5/PrISM_1.c **** {
  56:.\Generated_Source\PSoC5/PrISM_1.c ****     /* If not Initialized then initialize all required hardware and software */
  57:.\Generated_Source\PSoC5/PrISM_1.c ****     if(PrISM_1_initVar == 0u)
  58:.\Generated_Source\PSoC5/PrISM_1.c ****     {
  59:.\Generated_Source\PSoC5/PrISM_1.c ****         PrISM_1_Init();
  60:.\Generated_Source\PSoC5/PrISM_1.c ****         PrISM_1_initVar = 1u;
  61:.\Generated_Source\PSoC5/PrISM_1.c ****     }
  62:.\Generated_Source\PSoC5/PrISM_1.c ****     PrISM_1_Enable();
  63:.\Generated_Source\PSoC5/PrISM_1.c **** }
  64:.\Generated_Source\PSoC5/PrISM_1.c **** 
  65:.\Generated_Source\PSoC5/PrISM_1.c **** 
  66:.\Generated_Source\PSoC5/PrISM_1.c **** /*******************************************************************************
  67:.\Generated_Source\PSoC5/PrISM_1.c **** * Function Name: PrISM_1_Init
  68:.\Generated_Source\PSoC5/PrISM_1.c **** ********************************************************************************
  69:.\Generated_Source\PSoC5/PrISM_1.c **** *
  70:.\Generated_Source\PSoC5/PrISM_1.c **** * Summary:
  71:.\Generated_Source\PSoC5/PrISM_1.c **** *  Initialize component's parameters to the parameters set by user in the 
  72:.\Generated_Source\PSoC5/PrISM_1.c **** *  customizer of the component placed onto schematic. Usually called in 
  73:.\Generated_Source\PSoC5/PrISM_1.c **** *  PrISM_1_Start().
  74:.\Generated_Source\PSoC5/PrISM_1.c **** *
  75:.\Generated_Source\PSoC5/PrISM_1.c **** * Parameters:  
  76:.\Generated_Source\PSoC5/PrISM_1.c **** *  None.
  77:.\Generated_Source\PSoC5/PrISM_1.c **** *
  78:.\Generated_Source\PSoC5/PrISM_1.c **** * Return: 
  79:.\Generated_Source\PSoC5/PrISM_1.c **** *  None.
  80:.\Generated_Source\PSoC5/PrISM_1.c **** *
  81:.\Generated_Source\PSoC5/PrISM_1.c **** *******************************************************************************/
  82:.\Generated_Source\PSoC5/PrISM_1.c **** void PrISM_1_Init(void) 
  83:.\Generated_Source\PSoC5/PrISM_1.c **** {
  84:.\Generated_Source\PSoC5/PrISM_1.c ****     uint8 enableInterrupts;
  85:.\Generated_Source\PSoC5/PrISM_1.c ****     
  86:.\Generated_Source\PSoC5/PrISM_1.c ****     /* Writes Seed value, polynom value and density provided by customizer */
  87:.\Generated_Source\PSoC5/PrISM_1.c ****     PrISM_1_WriteSeed(PrISM_1_SEED);
  88:.\Generated_Source\PSoC5/PrISM_1.c ****     PrISM_1_WritePolynomial(PrISM_1_POLYNOM);
ARM GAS  C:\Users\koseki\AppData\Local\Temp\ccZ4Ff8h.s 			page 3


  89:.\Generated_Source\PSoC5/PrISM_1.c ****     PrISM_1_WritePulse0(PrISM_1_DENSITY0);
  90:.\Generated_Source\PSoC5/PrISM_1.c ****     PrISM_1_WritePulse1(PrISM_1_DENSITY1);
  91:.\Generated_Source\PSoC5/PrISM_1.c ****     
  92:.\Generated_Source\PSoC5/PrISM_1.c ****     enableInterrupts = CyEnterCriticalSection();
  93:.\Generated_Source\PSoC5/PrISM_1.c ****     /* Set FIFO0_CLR bit to use FIFO0 as a simple one-byte buffer*/
  94:.\Generated_Source\PSoC5/PrISM_1.c ****     CY_SET_REG8(PrISM_1_AUX_CONTROL_PTR, 
  95:.\Generated_Source\PSoC5/PrISM_1.c ****                         CY_GET_REG8(PrISM_1_AUX_CONTROL_PTR) | PrISM_1_FIFO0_CLR);
  96:.\Generated_Source\PSoC5/PrISM_1.c ****     CyExitCriticalSection(enableInterrupts);
  97:.\Generated_Source\PSoC5/PrISM_1.c ****     
  98:.\Generated_Source\PSoC5/PrISM_1.c ****     #if(!PrISM_1_PULSE_TYPE_HARDCODED)
  99:.\Generated_Source\PSoC5/PrISM_1.c ****         /* Writes density type provided by customizer */
 100:.\Generated_Source\PSoC5/PrISM_1.c ****         #if(PrISM_1_GREATERTHAN_OR_EQUAL == PrISM_1_COMPARE0)
 101:.\Generated_Source\PSoC5/PrISM_1.c ****             PrISM_1_CONTROL_REG |= PrISM_1_CTRL_COMPARE_TYPE0_GREATER_THAN_OR_EQUAL;
 102:.\Generated_Source\PSoC5/PrISM_1.c ****         #else
 103:.\Generated_Source\PSoC5/PrISM_1.c ****             PrISM_1_CONTROL_REG &= (uint8)~PrISM_1_CTRL_COMPARE_TYPE0_GREATER_THAN_OR_EQUAL;
 104:.\Generated_Source\PSoC5/PrISM_1.c ****         #endif /* End PrISM_1_COMPARE0 */    
 105:.\Generated_Source\PSoC5/PrISM_1.c ****     
 106:.\Generated_Source\PSoC5/PrISM_1.c ****         #if(PrISM_1_GREATERTHAN_OR_EQUAL == PrISM_1_COMPARE1)
 107:.\Generated_Source\PSoC5/PrISM_1.c ****             PrISM_1_CONTROL_REG |= PrISM_1_CTRL_COMPARE_TYPE1_GREATER_THAN_OR_EQUAL;
 108:.\Generated_Source\PSoC5/PrISM_1.c ****         #else
 109:.\Generated_Source\PSoC5/PrISM_1.c ****             PrISM_1_CONTROL_REG &= (uint8)~PrISM_1_CTRL_COMPARE_TYPE1_GREATER_THAN_OR_EQUAL;
 110:.\Generated_Source\PSoC5/PrISM_1.c ****         #endif /* End PrISM_1_COMPARE1 */    
 111:.\Generated_Source\PSoC5/PrISM_1.c ****     #endif /* End PrISM_1_PULSE_TYPE_HARDCODED */
 112:.\Generated_Source\PSoC5/PrISM_1.c **** }
 113:.\Generated_Source\PSoC5/PrISM_1.c **** 
 114:.\Generated_Source\PSoC5/PrISM_1.c **** 
 115:.\Generated_Source\PSoC5/PrISM_1.c **** /*******************************************************************************
 116:.\Generated_Source\PSoC5/PrISM_1.c **** * Function Name: PrISM_1_Enable
 117:.\Generated_Source\PSoC5/PrISM_1.c **** ********************************************************************************
 118:.\Generated_Source\PSoC5/PrISM_1.c **** *  
 119:.\Generated_Source\PSoC5/PrISM_1.c **** * Summary: 
 120:.\Generated_Source\PSoC5/PrISM_1.c **** *  Enables the PrISM block operation
 121:.\Generated_Source\PSoC5/PrISM_1.c **** *
 122:.\Generated_Source\PSoC5/PrISM_1.c **** * Parameters:  
 123:.\Generated_Source\PSoC5/PrISM_1.c **** *  None.
 124:.\Generated_Source\PSoC5/PrISM_1.c **** *
 125:.\Generated_Source\PSoC5/PrISM_1.c **** * Return: 
 126:.\Generated_Source\PSoC5/PrISM_1.c **** *  None.
 127:.\Generated_Source\PSoC5/PrISM_1.c **** *
 128:.\Generated_Source\PSoC5/PrISM_1.c **** *******************************************************************************/
 129:.\Generated_Source\PSoC5/PrISM_1.c **** void PrISM_1_Enable(void) 
 130:.\Generated_Source\PSoC5/PrISM_1.c **** {
  27              		.loc 1 130 0
  28              		.cfi_startproc
  29              		@ args = 0, pretend = 0, frame = 0
  30              		@ frame_needed = 0, uses_anonymous_args = 0
  31              		@ link register save eliminated.
 131:.\Generated_Source\PSoC5/PrISM_1.c ****     #if(!PrISM_1_PULSE_TYPE_HARDCODED)
 132:.\Generated_Source\PSoC5/PrISM_1.c ****         /* Enable the PrISM computation */
 133:.\Generated_Source\PSoC5/PrISM_1.c ****         PrISM_1_CONTROL_REG |= PrISM_1_CTRL_ENABLE;
  32              		.loc 1 133 0
  33 0000 024A     		ldr	r2, .L2
  34 0002 1378     		ldrb	r3, [r2]	@ zero_extendqisi2
  35 0004 43F00103 		orr	r3, r3, #1
  36 0008 1370     		strb	r3, [r2]
  37 000a 7047     		bx	lr
  38              	.L3:
ARM GAS  C:\Users\koseki\AppData\Local\Temp\ccZ4Ff8h.s 			page 4


  39              		.align	2
  40              	.L2:
  41 000c 79650040 		.word	1073767801
  42              		.cfi_endproc
  43              	.LFE2:
  44              		.size	PrISM_1_Enable, .-PrISM_1_Enable
  45              		.section	.text.PrISM_1_Stop,"ax",%progbits
  46              		.align	2
  47              		.global	PrISM_1_Stop
  48              		.thumb
  49              		.thumb_func
  50              		.type	PrISM_1_Stop, %function
  51              	PrISM_1_Stop:
  52              	.LFB3:
 134:.\Generated_Source\PSoC5/PrISM_1.c ****     #endif /* End PrISM_1_PULSE_TYPE_HARDCODED */
 135:.\Generated_Source\PSoC5/PrISM_1.c **** }
 136:.\Generated_Source\PSoC5/PrISM_1.c **** 
 137:.\Generated_Source\PSoC5/PrISM_1.c **** 
 138:.\Generated_Source\PSoC5/PrISM_1.c **** /*******************************************************************************
 139:.\Generated_Source\PSoC5/PrISM_1.c **** * FUNCTION NAME:   PrISM_1_Stop
 140:.\Generated_Source\PSoC5/PrISM_1.c **** ********************************************************************************
 141:.\Generated_Source\PSoC5/PrISM_1.c **** *
 142:.\Generated_Source\PSoC5/PrISM_1.c **** * Summary:
 143:.\Generated_Source\PSoC5/PrISM_1.c **** *  Stops PrISM computation. Outputs remain constant.
 144:.\Generated_Source\PSoC5/PrISM_1.c **** *
 145:.\Generated_Source\PSoC5/PrISM_1.c **** * Parameters:  
 146:.\Generated_Source\PSoC5/PrISM_1.c **** *  None.
 147:.\Generated_Source\PSoC5/PrISM_1.c **** *
 148:.\Generated_Source\PSoC5/PrISM_1.c **** * Return: 
 149:.\Generated_Source\PSoC5/PrISM_1.c **** *  None.
 150:.\Generated_Source\PSoC5/PrISM_1.c **** *
 151:.\Generated_Source\PSoC5/PrISM_1.c **** *******************************************************************************/
 152:.\Generated_Source\PSoC5/PrISM_1.c **** void PrISM_1_Stop(void) 
 153:.\Generated_Source\PSoC5/PrISM_1.c **** {
  53              		.loc 1 153 0
  54              		.cfi_startproc
  55              		@ args = 0, pretend = 0, frame = 0
  56              		@ frame_needed = 0, uses_anonymous_args = 0
  57              		@ link register save eliminated.
 154:.\Generated_Source\PSoC5/PrISM_1.c ****     #if(!PrISM_1_PULSE_TYPE_HARDCODED)
 155:.\Generated_Source\PSoC5/PrISM_1.c ****         PrISM_1_CONTROL_REG &= (uint8)~PrISM_1_CTRL_ENABLE;
  58              		.loc 1 155 0
  59 0000 024A     		ldr	r2, .L5
  60 0002 1378     		ldrb	r3, [r2]	@ zero_extendqisi2
  61 0004 03F0FE03 		and	r3, r3, #254
  62 0008 1370     		strb	r3, [r2]
  63 000a 7047     		bx	lr
  64              	.L6:
  65              		.align	2
  66              	.L5:
  67 000c 79650040 		.word	1073767801
  68              		.cfi_endproc
  69              	.LFE3:
  70              		.size	PrISM_1_Stop, .-PrISM_1_Stop
  71              		.section	.text.PrISM_1_SetPulse0Mode,"ax",%progbits
  72              		.align	2
  73              		.global	PrISM_1_SetPulse0Mode
ARM GAS  C:\Users\koseki\AppData\Local\Temp\ccZ4Ff8h.s 			page 5


  74              		.thumb
  75              		.thumb_func
  76              		.type	PrISM_1_SetPulse0Mode, %function
  77              	PrISM_1_SetPulse0Mode:
  78              	.LFB4:
 156:.\Generated_Source\PSoC5/PrISM_1.c ****     #else
 157:.\Generated_Source\PSoC5/PrISM_1.c ****         /* PulseTypeHardoded option enabled - to stop PrISM use enable input */
 158:.\Generated_Source\PSoC5/PrISM_1.c ****     #endif /* End $INSTANCE_NAME`_PULSE_TYPE_HARDCODED */
 159:.\Generated_Source\PSoC5/PrISM_1.c **** }
 160:.\Generated_Source\PSoC5/PrISM_1.c **** 
 161:.\Generated_Source\PSoC5/PrISM_1.c **** #if(!PrISM_1_PULSE_TYPE_HARDCODED)
 162:.\Generated_Source\PSoC5/PrISM_1.c **** 
 163:.\Generated_Source\PSoC5/PrISM_1.c **** 
 164:.\Generated_Source\PSoC5/PrISM_1.c ****     /***************************************************************************
 165:.\Generated_Source\PSoC5/PrISM_1.c ****     * FUNCTION NAME:     PrISM_1_SetPulse0Mode
 166:.\Generated_Source\PSoC5/PrISM_1.c ****     ****************************************************************************
 167:.\Generated_Source\PSoC5/PrISM_1.c ****     *
 168:.\Generated_Source\PSoC5/PrISM_1.c ****     * Summary:
 169:.\Generated_Source\PSoC5/PrISM_1.c ****     *  Sets the pulse density type for Density0. Less than or Equal(<=) or 
 170:.\Generated_Source\PSoC5/PrISM_1.c ****     *  Greater than or Equal(>=).
 171:.\Generated_Source\PSoC5/PrISM_1.c ****     *
 172:.\Generated_Source\PSoC5/PrISM_1.c ****     * Parameters:
 173:.\Generated_Source\PSoC5/PrISM_1.c ****     *  pulse0Type: Selected pulse density type.
 174:.\Generated_Source\PSoC5/PrISM_1.c ****     *
 175:.\Generated_Source\PSoC5/PrISM_1.c ****     * Return:
 176:.\Generated_Source\PSoC5/PrISM_1.c ****     *  None.
 177:.\Generated_Source\PSoC5/PrISM_1.c ****     *
 178:.\Generated_Source\PSoC5/PrISM_1.c ****     ***************************************************************************/
 179:.\Generated_Source\PSoC5/PrISM_1.c ****     void PrISM_1_SetPulse0Mode(uint8 pulse0Type) 
 180:.\Generated_Source\PSoC5/PrISM_1.c ****     {
  79              		.loc 1 180 0
  80              		.cfi_startproc
  81              		@ args = 0, pretend = 0, frame = 0
  82              		@ frame_needed = 0, uses_anonymous_args = 0
  83              		@ link register save eliminated.
  84              	.LVL0:
 181:.\Generated_Source\PSoC5/PrISM_1.c ****         if(pulse0Type == PrISM_1_GREATERTHAN_OR_EQUAL)
  85              		.loc 1 181 0
  86 0000 0128     		cmp	r0, #1
  87 0002 05D1     		bne	.L8
 182:.\Generated_Source\PSoC5/PrISM_1.c ****         {
 183:.\Generated_Source\PSoC5/PrISM_1.c ****             PrISM_1_CONTROL_REG |= PrISM_1_CTRL_COMPARE_TYPE0_GREATER_THAN_OR_EQUAL;
  88              		.loc 1 183 0
  89 0004 054A     		ldr	r2, .L10
  90 0006 1378     		ldrb	r3, [r2]	@ zero_extendqisi2
  91 0008 43F00203 		orr	r3, r3, #2
  92 000c 1370     		strb	r3, [r2]
  93 000e 7047     		bx	lr
  94              	.L8:
 184:.\Generated_Source\PSoC5/PrISM_1.c ****         }
 185:.\Generated_Source\PSoC5/PrISM_1.c ****         else
 186:.\Generated_Source\PSoC5/PrISM_1.c ****         {
 187:.\Generated_Source\PSoC5/PrISM_1.c ****             PrISM_1_CONTROL_REG &= (uint8)~PrISM_1_CTRL_COMPARE_TYPE0_GREATER_THAN_OR_EQUAL;
  95              		.loc 1 187 0
  96 0010 024A     		ldr	r2, .L10
  97 0012 1378     		ldrb	r3, [r2]	@ zero_extendqisi2
  98 0014 03F0FD03 		and	r3, r3, #253
ARM GAS  C:\Users\koseki\AppData\Local\Temp\ccZ4Ff8h.s 			page 6


  99 0018 1370     		strb	r3, [r2]
 100 001a 7047     		bx	lr
 101              	.L11:
 102              		.align	2
 103              	.L10:
 104 001c 79650040 		.word	1073767801
 105              		.cfi_endproc
 106              	.LFE4:
 107              		.size	PrISM_1_SetPulse0Mode, .-PrISM_1_SetPulse0Mode
 108              		.section	.text.PrISM_1_SetPulse1Mode,"ax",%progbits
 109              		.align	2
 110              		.global	PrISM_1_SetPulse1Mode
 111              		.thumb
 112              		.thumb_func
 113              		.type	PrISM_1_SetPulse1Mode, %function
 114              	PrISM_1_SetPulse1Mode:
 115              	.LFB5:
 188:.\Generated_Source\PSoC5/PrISM_1.c ****         }
 189:.\Generated_Source\PSoC5/PrISM_1.c ****     }
 190:.\Generated_Source\PSoC5/PrISM_1.c ****     
 191:.\Generated_Source\PSoC5/PrISM_1.c ****     
 192:.\Generated_Source\PSoC5/PrISM_1.c ****     /***************************************************************************
 193:.\Generated_Source\PSoC5/PrISM_1.c ****     * FUNCTION NAME:   PrISM_1_SetPulse1Mode
 194:.\Generated_Source\PSoC5/PrISM_1.c ****     ****************************************************************************
 195:.\Generated_Source\PSoC5/PrISM_1.c ****     *
 196:.\Generated_Source\PSoC5/PrISM_1.c ****     * Summary:
 197:.\Generated_Source\PSoC5/PrISM_1.c ****     *  Sets the pulse density type for Density1. Less than or Equal(<=) or 
 198:.\Generated_Source\PSoC5/PrISM_1.c ****     *  Greater than or Equal(>=).
 199:.\Generated_Source\PSoC5/PrISM_1.c ****     *
 200:.\Generated_Source\PSoC5/PrISM_1.c ****     * Parameters:  
 201:.\Generated_Source\PSoC5/PrISM_1.c ****     *  pulse1Type: Selected pulse density type.
 202:.\Generated_Source\PSoC5/PrISM_1.c ****     *
 203:.\Generated_Source\PSoC5/PrISM_1.c ****     * Return:
 204:.\Generated_Source\PSoC5/PrISM_1.c ****     *  None.
 205:.\Generated_Source\PSoC5/PrISM_1.c ****     *
 206:.\Generated_Source\PSoC5/PrISM_1.c ****     ***************************************************************************/
 207:.\Generated_Source\PSoC5/PrISM_1.c ****     void PrISM_1_SetPulse1Mode(uint8 pulse1Type) 
 208:.\Generated_Source\PSoC5/PrISM_1.c ****     {
 116              		.loc 1 208 0
 117              		.cfi_startproc
 118              		@ args = 0, pretend = 0, frame = 0
 119              		@ frame_needed = 0, uses_anonymous_args = 0
 120              		@ link register save eliminated.
 121              	.LVL1:
 209:.\Generated_Source\PSoC5/PrISM_1.c ****         if(pulse1Type == PrISM_1_GREATERTHAN_OR_EQUAL)
 122              		.loc 1 209 0
 123 0000 0128     		cmp	r0, #1
 124 0002 05D1     		bne	.L13
 210:.\Generated_Source\PSoC5/PrISM_1.c ****         {
 211:.\Generated_Source\PSoC5/PrISM_1.c ****             PrISM_1_CONTROL_REG |= PrISM_1_CTRL_COMPARE_TYPE1_GREATER_THAN_OR_EQUAL;
 125              		.loc 1 211 0
 126 0004 054A     		ldr	r2, .L15
 127 0006 1378     		ldrb	r3, [r2]	@ zero_extendqisi2
 128 0008 43F00403 		orr	r3, r3, #4
 129 000c 1370     		strb	r3, [r2]
 130 000e 7047     		bx	lr
 131              	.L13:
ARM GAS  C:\Users\koseki\AppData\Local\Temp\ccZ4Ff8h.s 			page 7


 212:.\Generated_Source\PSoC5/PrISM_1.c ****         }
 213:.\Generated_Source\PSoC5/PrISM_1.c ****         else
 214:.\Generated_Source\PSoC5/PrISM_1.c ****         {
 215:.\Generated_Source\PSoC5/PrISM_1.c ****             PrISM_1_CONTROL_REG &= (uint8)~PrISM_1_CTRL_COMPARE_TYPE1_GREATER_THAN_OR_EQUAL;
 132              		.loc 1 215 0
 133 0010 024A     		ldr	r2, .L15
 134 0012 1378     		ldrb	r3, [r2]	@ zero_extendqisi2
 135 0014 03F0FB03 		and	r3, r3, #251
 136 0018 1370     		strb	r3, [r2]
 137 001a 7047     		bx	lr
 138              	.L16:
 139              		.align	2
 140              	.L15:
 141 001c 79650040 		.word	1073767801
 142              		.cfi_endproc
 143              	.LFE5:
 144              		.size	PrISM_1_SetPulse1Mode, .-PrISM_1_SetPulse1Mode
 145              		.section	.text.PrISM_1_ReadSeed,"ax",%progbits
 146              		.align	2
 147              		.global	PrISM_1_ReadSeed
 148              		.thumb
 149              		.thumb_func
 150              		.type	PrISM_1_ReadSeed, %function
 151              	PrISM_1_ReadSeed:
 152              	.LFB6:
 216:.\Generated_Source\PSoC5/PrISM_1.c ****         }
 217:.\Generated_Source\PSoC5/PrISM_1.c ****     }
 218:.\Generated_Source\PSoC5/PrISM_1.c **** 
 219:.\Generated_Source\PSoC5/PrISM_1.c **** #endif /* End PrISM_1_PULSE_TYPE_HARDCODED == 0 */
 220:.\Generated_Source\PSoC5/PrISM_1.c **** 
 221:.\Generated_Source\PSoC5/PrISM_1.c **** 
 222:.\Generated_Source\PSoC5/PrISM_1.c **** /*******************************************************************************
 223:.\Generated_Source\PSoC5/PrISM_1.c **** * FUNCTION NAME:   PrISM_1_ReadSeed
 224:.\Generated_Source\PSoC5/PrISM_1.c **** ********************************************************************************
 225:.\Generated_Source\PSoC5/PrISM_1.c **** *
 226:.\Generated_Source\PSoC5/PrISM_1.c **** * Summary:
 227:.\Generated_Source\PSoC5/PrISM_1.c **** *  Reads the PrISM Seed register.
 228:.\Generated_Source\PSoC5/PrISM_1.c **** *
 229:.\Generated_Source\PSoC5/PrISM_1.c **** * Parameters:
 230:.\Generated_Source\PSoC5/PrISM_1.c **** *  None.
 231:.\Generated_Source\PSoC5/PrISM_1.c **** *
 232:.\Generated_Source\PSoC5/PrISM_1.c **** * Return:
 233:.\Generated_Source\PSoC5/PrISM_1.c **** *  Current Period register value.
 234:.\Generated_Source\PSoC5/PrISM_1.c **** *
 235:.\Generated_Source\PSoC5/PrISM_1.c **** *******************************************************************************/
 236:.\Generated_Source\PSoC5/PrISM_1.c **** uint8 PrISM_1_ReadSeed(void) 
 237:.\Generated_Source\PSoC5/PrISM_1.c **** {
 153              		.loc 1 237 0
 154              		.cfi_startproc
 155              		@ args = 0, pretend = 0, frame = 0
 156              		@ frame_needed = 0, uses_anonymous_args = 0
 157              		@ link register save eliminated.
 238:.\Generated_Source\PSoC5/PrISM_1.c ****     return( CY_GET_REG8(PrISM_1_SEED_PTR) );
 158              		.loc 1 238 0
 159 0000 014B     		ldr	r3, .L18
 160 0002 1878     		ldrb	r0, [r3]	@ zero_extendqisi2
 239:.\Generated_Source\PSoC5/PrISM_1.c **** }
ARM GAS  C:\Users\koseki\AppData\Local\Temp\ccZ4Ff8h.s 			page 8


 161              		.loc 1 239 0
 162 0004 7047     		bx	lr
 163              	.L19:
 164 0006 00BF     		.align	2
 165              	.L18:
 166 0008 09650040 		.word	1073767689
 167              		.cfi_endproc
 168              	.LFE6:
 169              		.size	PrISM_1_ReadSeed, .-PrISM_1_ReadSeed
 170              		.section	.text.PrISM_1_WriteSeed,"ax",%progbits
 171              		.align	2
 172              		.global	PrISM_1_WriteSeed
 173              		.thumb
 174              		.thumb_func
 175              		.type	PrISM_1_WriteSeed, %function
 176              	PrISM_1_WriteSeed:
 177              	.LFB7:
 240:.\Generated_Source\PSoC5/PrISM_1.c **** 
 241:.\Generated_Source\PSoC5/PrISM_1.c **** 
 242:.\Generated_Source\PSoC5/PrISM_1.c **** /*******************************************************************************
 243:.\Generated_Source\PSoC5/PrISM_1.c **** * FUNCTION NAME:   PrISM_1_WriteSeed
 244:.\Generated_Source\PSoC5/PrISM_1.c **** ********************************************************************************
 245:.\Generated_Source\PSoC5/PrISM_1.c **** *
 246:.\Generated_Source\PSoC5/PrISM_1.c **** * Summary:
 247:.\Generated_Source\PSoC5/PrISM_1.c **** *  Writes the PrISM Seed register with the start value.
 248:.\Generated_Source\PSoC5/PrISM_1.c **** *
 249:.\Generated_Source\PSoC5/PrISM_1.c **** * Parameters:
 250:.\Generated_Source\PSoC5/PrISM_1.c **** *  seed: Seed register value.
 251:.\Generated_Source\PSoC5/PrISM_1.c **** *
 252:.\Generated_Source\PSoC5/PrISM_1.c **** * Return:
 253:.\Generated_Source\PSoC5/PrISM_1.c **** *  None.
 254:.\Generated_Source\PSoC5/PrISM_1.c **** *
 255:.\Generated_Source\PSoC5/PrISM_1.c **** *******************************************************************************/
 256:.\Generated_Source\PSoC5/PrISM_1.c **** void PrISM_1_WriteSeed(uint8 seed) 
 257:.\Generated_Source\PSoC5/PrISM_1.c **** {
 178              		.loc 1 257 0
 179              		.cfi_startproc
 180              		@ args = 0, pretend = 0, frame = 0
 181              		@ frame_needed = 0, uses_anonymous_args = 0
 182              		@ link register save eliminated.
 183              	.LVL2:
 258:.\Generated_Source\PSoC5/PrISM_1.c ****     if(seed != 0u)
 184              		.loc 1 258 0
 185 0000 18B1     		cbz	r0, .L20
 259:.\Generated_Source\PSoC5/PrISM_1.c ****     {
 260:.\Generated_Source\PSoC5/PrISM_1.c ****         CY_SET_REG8(PrISM_1_SEED_COPY_PTR, seed);
 186              		.loc 1 260 0
 187 0002 024A     		ldr	r2, .L22
 188 0004 1070     		strb	r0, [r2]
 261:.\Generated_Source\PSoC5/PrISM_1.c ****         CY_SET_REG8(PrISM_1_SEED_PTR, seed);
 189              		.loc 1 261 0
 190 0006 403A     		subs	r2, r2, #64
 191 0008 1070     		strb	r0, [r2]
 192              	.L20:
 193 000a 7047     		bx	lr
 194              	.L23:
 195              		.align	2
ARM GAS  C:\Users\koseki\AppData\Local\Temp\ccZ4Ff8h.s 			page 9


 196              	.L22:
 197 000c 49650040 		.word	1073767753
 198              		.cfi_endproc
 199              	.LFE7:
 200              		.size	PrISM_1_WriteSeed, .-PrISM_1_WriteSeed
 201              		.section	.text.PrISM_1_ReadPolynomial,"ax",%progbits
 202              		.align	2
 203              		.global	PrISM_1_ReadPolynomial
 204              		.thumb
 205              		.thumb_func
 206              		.type	PrISM_1_ReadPolynomial, %function
 207              	PrISM_1_ReadPolynomial:
 208              	.LFB8:
 262:.\Generated_Source\PSoC5/PrISM_1.c ****     }
 263:.\Generated_Source\PSoC5/PrISM_1.c **** }
 264:.\Generated_Source\PSoC5/PrISM_1.c **** 
 265:.\Generated_Source\PSoC5/PrISM_1.c **** 
 266:.\Generated_Source\PSoC5/PrISM_1.c **** /*******************************************************************************
 267:.\Generated_Source\PSoC5/PrISM_1.c **** * FUNCTION NAME:   PrISM_1_ReadPolynomial
 268:.\Generated_Source\PSoC5/PrISM_1.c **** ********************************************************************************
 269:.\Generated_Source\PSoC5/PrISM_1.c **** *
 270:.\Generated_Source\PSoC5/PrISM_1.c **** * Summary:
 271:.\Generated_Source\PSoC5/PrISM_1.c **** *  Reads the PrISM polynomial.
 272:.\Generated_Source\PSoC5/PrISM_1.c **** *
 273:.\Generated_Source\PSoC5/PrISM_1.c **** * Parameters:
 274:.\Generated_Source\PSoC5/PrISM_1.c **** *  None.
 275:.\Generated_Source\PSoC5/PrISM_1.c **** *
 276:.\Generated_Source\PSoC5/PrISM_1.c **** * Return:
 277:.\Generated_Source\PSoC5/PrISM_1.c **** *  PrISM polynomial.
 278:.\Generated_Source\PSoC5/PrISM_1.c **** *
 279:.\Generated_Source\PSoC5/PrISM_1.c **** *******************************************************************************/
 280:.\Generated_Source\PSoC5/PrISM_1.c **** uint8 PrISM_1_ReadPolynomial(void) 
 281:.\Generated_Source\PSoC5/PrISM_1.c **** {
 209              		.loc 1 281 0
 210              		.cfi_startproc
 211              		@ args = 0, pretend = 0, frame = 0
 212              		@ frame_needed = 0, uses_anonymous_args = 0
 213              		@ link register save eliminated.
 282:.\Generated_Source\PSoC5/PrISM_1.c ****     return( CY_GET_REG8(PrISM_1_POLYNOM_PTR) );
 214              		.loc 1 282 0
 215 0000 014B     		ldr	r3, .L25
 216 0002 1878     		ldrb	r0, [r3]	@ zero_extendqisi2
 283:.\Generated_Source\PSoC5/PrISM_1.c **** }
 217              		.loc 1 283 0
 218 0004 7047     		bx	lr
 219              	.L26:
 220 0006 00BF     		.align	2
 221              	.L25:
 222 0008 19650040 		.word	1073767705
 223              		.cfi_endproc
 224              	.LFE8:
 225              		.size	PrISM_1_ReadPolynomial, .-PrISM_1_ReadPolynomial
 226              		.section	.text.PrISM_1_WritePolynomial,"ax",%progbits
 227              		.align	2
 228              		.global	PrISM_1_WritePolynomial
 229              		.thumb
 230              		.thumb_func
ARM GAS  C:\Users\koseki\AppData\Local\Temp\ccZ4Ff8h.s 			page 10


 231              		.type	PrISM_1_WritePolynomial, %function
 232              	PrISM_1_WritePolynomial:
 233              	.LFB9:
 284:.\Generated_Source\PSoC5/PrISM_1.c **** 
 285:.\Generated_Source\PSoC5/PrISM_1.c **** 
 286:.\Generated_Source\PSoC5/PrISM_1.c **** /*******************************************************************************
 287:.\Generated_Source\PSoC5/PrISM_1.c **** * FUNCTION NAME:   PrISM_1_WritePolynomial
 288:.\Generated_Source\PSoC5/PrISM_1.c **** ********************************************************************************
 289:.\Generated_Source\PSoC5/PrISM_1.c **** *
 290:.\Generated_Source\PSoC5/PrISM_1.c **** * Summary:
 291:.\Generated_Source\PSoC5/PrISM_1.c **** *  Writes the PrISM polynomial.
 292:.\Generated_Source\PSoC5/PrISM_1.c **** *
 293:.\Generated_Source\PSoC5/PrISM_1.c **** * Parameters:
 294:.\Generated_Source\PSoC5/PrISM_1.c **** *  polynomial: PrISM polynomial.
 295:.\Generated_Source\PSoC5/PrISM_1.c **** *
 296:.\Generated_Source\PSoC5/PrISM_1.c **** * Return:
 297:.\Generated_Source\PSoC5/PrISM_1.c **** *  None.
 298:.\Generated_Source\PSoC5/PrISM_1.c **** *
 299:.\Generated_Source\PSoC5/PrISM_1.c **** *******************************************************************************/
 300:.\Generated_Source\PSoC5/PrISM_1.c **** void PrISM_1_WritePolynomial(uint8 polynomial) \
 301:.\Generated_Source\PSoC5/PrISM_1.c ****                                                                 
 302:.\Generated_Source\PSoC5/PrISM_1.c **** {
 234              		.loc 1 302 0
 235              		.cfi_startproc
 236              		@ args = 0, pretend = 0, frame = 0
 237              		@ frame_needed = 0, uses_anonymous_args = 0
 238              		@ link register save eliminated.
 239              	.LVL3:
 303:.\Generated_Source\PSoC5/PrISM_1.c ****     CY_SET_REG8(PrISM_1_POLYNOM_PTR, polynomial);
 240              		.loc 1 303 0
 241 0000 014B     		ldr	r3, .L28
 242 0002 1870     		strb	r0, [r3]
 243 0004 7047     		bx	lr
 244              	.L29:
 245 0006 00BF     		.align	2
 246              	.L28:
 247 0008 19650040 		.word	1073767705
 248              		.cfi_endproc
 249              	.LFE9:
 250              		.size	PrISM_1_WritePolynomial, .-PrISM_1_WritePolynomial
 251              		.section	.text.PrISM_1_ReadPulse0,"ax",%progbits
 252              		.align	2
 253              		.global	PrISM_1_ReadPulse0
 254              		.thumb
 255              		.thumb_func
 256              		.type	PrISM_1_ReadPulse0, %function
 257              	PrISM_1_ReadPulse0:
 258              	.LFB10:
 304:.\Generated_Source\PSoC5/PrISM_1.c ****     
 305:.\Generated_Source\PSoC5/PrISM_1.c **** }
 306:.\Generated_Source\PSoC5/PrISM_1.c **** 
 307:.\Generated_Source\PSoC5/PrISM_1.c **** 
 308:.\Generated_Source\PSoC5/PrISM_1.c **** /*******************************************************************************
 309:.\Generated_Source\PSoC5/PrISM_1.c **** * FUNCTION NAME:   PrISM_1_ReadPulse0
 310:.\Generated_Source\PSoC5/PrISM_1.c **** ********************************************************************************
 311:.\Generated_Source\PSoC5/PrISM_1.c **** *
 312:.\Generated_Source\PSoC5/PrISM_1.c **** * Summary:
ARM GAS  C:\Users\koseki\AppData\Local\Temp\ccZ4Ff8h.s 			page 11


 313:.\Generated_Source\PSoC5/PrISM_1.c **** *  Reads the PrISM Pulse Density0 register.
 314:.\Generated_Source\PSoC5/PrISM_1.c **** *
 315:.\Generated_Source\PSoC5/PrISM_1.c **** * Parameters:
 316:.\Generated_Source\PSoC5/PrISM_1.c **** *  None.
 317:.\Generated_Source\PSoC5/PrISM_1.c **** *
 318:.\Generated_Source\PSoC5/PrISM_1.c **** * Return:
 319:.\Generated_Source\PSoC5/PrISM_1.c **** *  Pulse Density0 register value.
 320:.\Generated_Source\PSoC5/PrISM_1.c **** *
 321:.\Generated_Source\PSoC5/PrISM_1.c **** *******************************************************************************/
 322:.\Generated_Source\PSoC5/PrISM_1.c **** uint8 PrISM_1_ReadPulse0(void) 
 323:.\Generated_Source\PSoC5/PrISM_1.c **** {
 259              		.loc 1 323 0
 260              		.cfi_startproc
 261              		@ args = 0, pretend = 0, frame = 0
 262              		@ frame_needed = 0, uses_anonymous_args = 0
 263              		@ link register save eliminated.
 324:.\Generated_Source\PSoC5/PrISM_1.c ****     return( CY_GET_REG8(PrISM_1_DENSITY0_PTR) );
 264              		.loc 1 324 0
 265 0000 014B     		ldr	r3, .L31
 266 0002 1878     		ldrb	r0, [r3]	@ zero_extendqisi2
 325:.\Generated_Source\PSoC5/PrISM_1.c **** }
 267              		.loc 1 325 0
 268 0004 7047     		bx	lr
 269              	.L32:
 270 0006 00BF     		.align	2
 271              	.L31:
 272 0008 29650040 		.word	1073767721
 273              		.cfi_endproc
 274              	.LFE10:
 275              		.size	PrISM_1_ReadPulse0, .-PrISM_1_ReadPulse0
 276              		.section	.text.PrISM_1_WritePulse0,"ax",%progbits
 277              		.align	2
 278              		.global	PrISM_1_WritePulse0
 279              		.thumb
 280              		.thumb_func
 281              		.type	PrISM_1_WritePulse0, %function
 282              	PrISM_1_WritePulse0:
 283              	.LFB11:
 326:.\Generated_Source\PSoC5/PrISM_1.c **** 
 327:.\Generated_Source\PSoC5/PrISM_1.c **** 
 328:.\Generated_Source\PSoC5/PrISM_1.c **** /*******************************************************************************
 329:.\Generated_Source\PSoC5/PrISM_1.c **** * FUNCTION NAME:   PrISM_1_WritePulse0
 330:.\Generated_Source\PSoC5/PrISM_1.c **** ********************************************************************************
 331:.\Generated_Source\PSoC5/PrISM_1.c **** *
 332:.\Generated_Source\PSoC5/PrISM_1.c **** * Summary:
 333:.\Generated_Source\PSoC5/PrISM_1.c **** *  Writes the PrISM Pulse Density0 register with the Pulse Density value.
 334:.\Generated_Source\PSoC5/PrISM_1.c **** *
 335:.\Generated_Source\PSoC5/PrISM_1.c **** * Parameters:
 336:.\Generated_Source\PSoC5/PrISM_1.c **** *  pulseDensity0: Pulse Density value.
 337:.\Generated_Source\PSoC5/PrISM_1.c **** *
 338:.\Generated_Source\PSoC5/PrISM_1.c **** * Return:
 339:.\Generated_Source\PSoC5/PrISM_1.c **** *  None.
 340:.\Generated_Source\PSoC5/PrISM_1.c **** *
 341:.\Generated_Source\PSoC5/PrISM_1.c **** *******************************************************************************/
 342:.\Generated_Source\PSoC5/PrISM_1.c **** void PrISM_1_WritePulse0(uint8 pulseDensity0) \
 343:.\Generated_Source\PSoC5/PrISM_1.c ****                                                                 
 344:.\Generated_Source\PSoC5/PrISM_1.c **** {
ARM GAS  C:\Users\koseki\AppData\Local\Temp\ccZ4Ff8h.s 			page 12


 284              		.loc 1 344 0
 285              		.cfi_startproc
 286              		@ args = 0, pretend = 0, frame = 0
 287              		@ frame_needed = 0, uses_anonymous_args = 0
 288              		@ link register save eliminated.
 289              	.LVL4:
 345:.\Generated_Source\PSoC5/PrISM_1.c ****     CY_SET_REG8(PrISM_1_DENSITY0_PTR, pulseDensity0);
 290              		.loc 1 345 0
 291 0000 014B     		ldr	r3, .L34
 292 0002 1870     		strb	r0, [r3]
 293 0004 7047     		bx	lr
 294              	.L35:
 295 0006 00BF     		.align	2
 296              	.L34:
 297 0008 29650040 		.word	1073767721
 298              		.cfi_endproc
 299              	.LFE11:
 300              		.size	PrISM_1_WritePulse0, .-PrISM_1_WritePulse0
 301              		.section	.text.PrISM_1_ReadPulse1,"ax",%progbits
 302              		.align	2
 303              		.global	PrISM_1_ReadPulse1
 304              		.thumb
 305              		.thumb_func
 306              		.type	PrISM_1_ReadPulse1, %function
 307              	PrISM_1_ReadPulse1:
 308              	.LFB12:
 346:.\Generated_Source\PSoC5/PrISM_1.c **** }
 347:.\Generated_Source\PSoC5/PrISM_1.c **** 
 348:.\Generated_Source\PSoC5/PrISM_1.c **** 
 349:.\Generated_Source\PSoC5/PrISM_1.c **** /*******************************************************************************
 350:.\Generated_Source\PSoC5/PrISM_1.c **** * FUNCTION NAME:   PrISM_1_ReadPulse1
 351:.\Generated_Source\PSoC5/PrISM_1.c **** ********************************************************************************
 352:.\Generated_Source\PSoC5/PrISM_1.c **** *
 353:.\Generated_Source\PSoC5/PrISM_1.c **** * Summary:
 354:.\Generated_Source\PSoC5/PrISM_1.c **** *  Reads the PrISM Pulse Density1 register.
 355:.\Generated_Source\PSoC5/PrISM_1.c **** *
 356:.\Generated_Source\PSoC5/PrISM_1.c **** * Parameters:
 357:.\Generated_Source\PSoC5/PrISM_1.c **** *  None.
 358:.\Generated_Source\PSoC5/PrISM_1.c **** *
 359:.\Generated_Source\PSoC5/PrISM_1.c **** * Return:
 360:.\Generated_Source\PSoC5/PrISM_1.c **** *  Pulse Density1 register value.
 361:.\Generated_Source\PSoC5/PrISM_1.c **** *
 362:.\Generated_Source\PSoC5/PrISM_1.c **** *******************************************************************************/
 363:.\Generated_Source\PSoC5/PrISM_1.c **** uint8 PrISM_1_ReadPulse1(void) 
 364:.\Generated_Source\PSoC5/PrISM_1.c **** {
 309              		.loc 1 364 0
 310              		.cfi_startproc
 311              		@ args = 0, pretend = 0, frame = 0
 312              		@ frame_needed = 0, uses_anonymous_args = 0
 313              		@ link register save eliminated.
 365:.\Generated_Source\PSoC5/PrISM_1.c ****     return( CY_GET_REG8(PrISM_1_DENSITY1_PTR) );
 314              		.loc 1 365 0
 315 0000 014B     		ldr	r3, .L37
 316 0002 1878     		ldrb	r0, [r3]	@ zero_extendqisi2
 366:.\Generated_Source\PSoC5/PrISM_1.c **** }
 317              		.loc 1 366 0
 318 0004 7047     		bx	lr
ARM GAS  C:\Users\koseki\AppData\Local\Temp\ccZ4Ff8h.s 			page 13


 319              	.L38:
 320 0006 00BF     		.align	2
 321              	.L37:
 322 0008 39650040 		.word	1073767737
 323              		.cfi_endproc
 324              	.LFE12:
 325              		.size	PrISM_1_ReadPulse1, .-PrISM_1_ReadPulse1
 326              		.section	.text.PrISM_1_WritePulse1,"ax",%progbits
 327              		.align	2
 328              		.global	PrISM_1_WritePulse1
 329              		.thumb
 330              		.thumb_func
 331              		.type	PrISM_1_WritePulse1, %function
 332              	PrISM_1_WritePulse1:
 333              	.LFB13:
 367:.\Generated_Source\PSoC5/PrISM_1.c **** 
 368:.\Generated_Source\PSoC5/PrISM_1.c **** 
 369:.\Generated_Source\PSoC5/PrISM_1.c **** /*******************************************************************************
 370:.\Generated_Source\PSoC5/PrISM_1.c **** * FUNCTION NAME:   PrISM_1_WritePulse1
 371:.\Generated_Source\PSoC5/PrISM_1.c **** ********************************************************************************
 372:.\Generated_Source\PSoC5/PrISM_1.c **** *
 373:.\Generated_Source\PSoC5/PrISM_1.c **** * Summary:
 374:.\Generated_Source\PSoC5/PrISM_1.c **** *  Writes the PrISM Pulse Density1 register with the Pulse Density value.
 375:.\Generated_Source\PSoC5/PrISM_1.c **** *
 376:.\Generated_Source\PSoC5/PrISM_1.c **** * Parameters:
 377:.\Generated_Source\PSoC5/PrISM_1.c **** *  pulseDensity1: Pulse Density value.
 378:.\Generated_Source\PSoC5/PrISM_1.c **** *
 379:.\Generated_Source\PSoC5/PrISM_1.c **** * Return:
 380:.\Generated_Source\PSoC5/PrISM_1.c **** *  None.
 381:.\Generated_Source\PSoC5/PrISM_1.c **** *
 382:.\Generated_Source\PSoC5/PrISM_1.c **** *******************************************************************************/
 383:.\Generated_Source\PSoC5/PrISM_1.c **** void PrISM_1_WritePulse1(uint8 pulseDensity1) \
 384:.\Generated_Source\PSoC5/PrISM_1.c ****                                                                     
 385:.\Generated_Source\PSoC5/PrISM_1.c **** {
 334              		.loc 1 385 0
 335              		.cfi_startproc
 336              		@ args = 0, pretend = 0, frame = 0
 337              		@ frame_needed = 0, uses_anonymous_args = 0
 338              		@ link register save eliminated.
 339              	.LVL5:
 386:.\Generated_Source\PSoC5/PrISM_1.c ****     CY_SET_REG8(PrISM_1_DENSITY1_PTR, pulseDensity1);
 340              		.loc 1 386 0
 341 0000 014B     		ldr	r3, .L40
 342 0002 1870     		strb	r0, [r3]
 343 0004 7047     		bx	lr
 344              	.L41:
 345 0006 00BF     		.align	2
 346              	.L40:
 347 0008 39650040 		.word	1073767737
 348              		.cfi_endproc
 349              	.LFE13:
 350              		.size	PrISM_1_WritePulse1, .-PrISM_1_WritePulse1
 351              		.section	.text.PrISM_1_Init,"ax",%progbits
 352              		.align	2
 353              		.global	PrISM_1_Init
 354              		.thumb
 355              		.thumb_func
ARM GAS  C:\Users\koseki\AppData\Local\Temp\ccZ4Ff8h.s 			page 14


 356              		.type	PrISM_1_Init, %function
 357              	PrISM_1_Init:
 358              	.LFB1:
  83:.\Generated_Source\PSoC5/PrISM_1.c ****     uint8 enableInterrupts;
 359              		.loc 1 83 0
 360              		.cfi_startproc
 361              		@ args = 0, pretend = 0, frame = 0
 362              		@ frame_needed = 0, uses_anonymous_args = 0
 363 0000 08B5     		push	{r3, lr}
 364              		.cfi_def_cfa_offset 8
 365              		.cfi_offset 3, -8
 366              		.cfi_offset 14, -4
  87:.\Generated_Source\PSoC5/PrISM_1.c ****     PrISM_1_WritePolynomial(PrISM_1_POLYNOM);
 367              		.loc 1 87 0
 368 0002 FF20     		movs	r0, #255
 369 0004 FFF7FEFF 		bl	PrISM_1_WriteSeed
 370              	.LVL6:
  88:.\Generated_Source\PSoC5/PrISM_1.c ****     PrISM_1_WritePulse0(PrISM_1_DENSITY0);
 371              		.loc 1 88 0
 372 0008 B820     		movs	r0, #184
 373 000a FFF7FEFF 		bl	PrISM_1_WritePolynomial
 374              	.LVL7:
  89:.\Generated_Source\PSoC5/PrISM_1.c ****     PrISM_1_WritePulse1(PrISM_1_DENSITY1);
 375              		.loc 1 89 0
 376 000e 0120     		movs	r0, #1
 377 0010 FFF7FEFF 		bl	PrISM_1_WritePulse0
 378              	.LVL8:
  90:.\Generated_Source\PSoC5/PrISM_1.c ****     
 379              		.loc 1 90 0
 380 0014 0120     		movs	r0, #1
 381 0016 FFF7FEFF 		bl	PrISM_1_WritePulse1
 382              	.LVL9:
  92:.\Generated_Source\PSoC5/PrISM_1.c ****     /* Set FIFO0_CLR bit to use FIFO0 as a simple one-byte buffer*/
 383              		.loc 1 92 0
 384 001a FFF7FEFF 		bl	CyEnterCriticalSection
 385              	.LVL10:
  94:.\Generated_Source\PSoC5/PrISM_1.c ****                         CY_GET_REG8(PrISM_1_AUX_CONTROL_PTR) | PrISM_1_FIFO0_CLR);
 386              		.loc 1 94 0
 387 001e 084A     		ldr	r2, .L44
 388 0020 1378     		ldrb	r3, [r2]	@ zero_extendqisi2
 389 0022 43F00103 		orr	r3, r3, #1
 390 0026 1370     		strb	r3, [r2]
  96:.\Generated_Source\PSoC5/PrISM_1.c ****     
 391              		.loc 1 96 0
 392 0028 FFF7FEFF 		bl	CyExitCriticalSection
 393              	.LVL11:
 103:.\Generated_Source\PSoC5/PrISM_1.c ****         #endif /* End PrISM_1_COMPARE0 */    
 394              		.loc 1 103 0
 395 002c 054B     		ldr	r3, .L44+4
 396 002e 1A78     		ldrb	r2, [r3]	@ zero_extendqisi2
 397 0030 02F0FD02 		and	r2, r2, #253
 398 0034 1A70     		strb	r2, [r3]
 109:.\Generated_Source\PSoC5/PrISM_1.c ****         #endif /* End PrISM_1_COMPARE1 */    
 399              		.loc 1 109 0
 400 0036 1A78     		ldrb	r2, [r3]	@ zero_extendqisi2
 401 0038 02F0FB02 		and	r2, r2, #251
 402 003c 1A70     		strb	r2, [r3]
ARM GAS  C:\Users\koseki\AppData\Local\Temp\ccZ4Ff8h.s 			page 15


 403 003e 08BD     		pop	{r3, pc}
 404              	.L45:
 405              		.align	2
 406              	.L44:
 407 0040 99650040 		.word	1073767833
 408 0044 79650040 		.word	1073767801
 409              		.cfi_endproc
 410              	.LFE1:
 411              		.size	PrISM_1_Init, .-PrISM_1_Init
 412              		.section	.text.PrISM_1_Start,"ax",%progbits
 413              		.align	2
 414              		.global	PrISM_1_Start
 415              		.thumb
 416              		.thumb_func
 417              		.type	PrISM_1_Start, %function
 418              	PrISM_1_Start:
 419              	.LFB0:
  55:.\Generated_Source\PSoC5/PrISM_1.c ****     /* If not Initialized then initialize all required hardware and software */
 420              		.loc 1 55 0
 421              		.cfi_startproc
 422              		@ args = 0, pretend = 0, frame = 0
 423              		@ frame_needed = 0, uses_anonymous_args = 0
 424 0000 08B5     		push	{r3, lr}
 425              		.cfi_def_cfa_offset 8
 426              		.cfi_offset 3, -8
 427              		.cfi_offset 14, -4
  57:.\Generated_Source\PSoC5/PrISM_1.c ****     {
 428              		.loc 1 57 0
 429 0002 054B     		ldr	r3, .L49
 430 0004 1B78     		ldrb	r3, [r3]	@ zero_extendqisi2
 431 0006 23B9     		cbnz	r3, .L47
  59:.\Generated_Source\PSoC5/PrISM_1.c ****         PrISM_1_initVar = 1u;
 432              		.loc 1 59 0
 433 0008 FFF7FEFF 		bl	PrISM_1_Init
 434              	.LVL12:
  60:.\Generated_Source\PSoC5/PrISM_1.c ****     }
 435              		.loc 1 60 0
 436 000c 0122     		movs	r2, #1
 437 000e 024B     		ldr	r3, .L49
 438 0010 1A70     		strb	r2, [r3]
 439              	.L47:
  62:.\Generated_Source\PSoC5/PrISM_1.c **** }
 440              		.loc 1 62 0
 441 0012 FFF7FEFF 		bl	PrISM_1_Enable
 442              	.LVL13:
 443 0016 08BD     		pop	{r3, pc}
 444              	.L50:
 445              		.align	2
 446              	.L49:
 447 0018 00000000 		.word	.LANCHOR0
 448              		.cfi_endproc
 449              	.LFE0:
 450              		.size	PrISM_1_Start, .-PrISM_1_Start
 451              		.global	PrISM_1_initVar
 452              		.bss
 453              		.set	.LANCHOR0,. + 0
 454              		.type	PrISM_1_initVar, %object
ARM GAS  C:\Users\koseki\AppData\Local\Temp\ccZ4Ff8h.s 			page 16


 455              		.size	PrISM_1_initVar, 1
 456              	PrISM_1_initVar:
 457 0000 00       		.space	1
 458              		.text
 459              	.Letext0:
 460              		.file 2 ".\\Generated_Source\\PSoC5\\cytypes.h"
 461              		.file 3 ".\\Generated_Source\\PSoC5\\CyLib.h"