ARM GAS  C:\Users\koseki\AppData\Local\Temp\ccTzBEPu.s 			page 1


   1              		.syntax unified
   2              		.cpu cortex-m3
   3              		.fpu softvfp
   4              		.eabi_attribute 20, 1
   5              		.eabi_attribute 21, 1
   6              		.eabi_attribute 23, 3
   7              		.eabi_attribute 24, 1
   8              		.eabi_attribute 25, 1
   9              		.eabi_attribute 26, 1
  10              		.eabi_attribute 30, 1
  11              		.eabi_attribute 34, 1
  12              		.eabi_attribute 18, 4
  13              		.thumb
  14              		.file	"PrISM.c"
  15              		.text
  16              	.Ltext0:
  17              		.cfi_sections	.debug_frame
  18              		.section	.text.PrISM_Enable,"ax",%progbits
  19              		.align	2
  20              		.global	PrISM_Enable
  21              		.thumb
  22              		.thumb_func
  23              		.type	PrISM_Enable, %function
  24              	PrISM_Enable:
  25              	.LFB2:
  26              		.file 1 ".\\Generated_Source\\PSoC5\\PrISM.c"
   1:.\Generated_Source\PSoC5/PrISM.c **** /*******************************************************************************
   2:.\Generated_Source\PSoC5/PrISM.c **** * File Name: PrISM.c
   3:.\Generated_Source\PSoC5/PrISM.c **** * Version 2.20
   4:.\Generated_Source\PSoC5/PrISM.c **** *
   5:.\Generated_Source\PSoC5/PrISM.c **** * Description:
   6:.\Generated_Source\PSoC5/PrISM.c **** *  This file provides the source code of the API for the PrISM Component.
   7:.\Generated_Source\PSoC5/PrISM.c **** *
   8:.\Generated_Source\PSoC5/PrISM.c **** * Note:
   9:.\Generated_Source\PSoC5/PrISM.c **** *  The PRiSM Component consists of a 8, 16, 24, 32 - bit PrISM, it
  10:.\Generated_Source\PSoC5/PrISM.c **** *  depends on length Polynomial value and user selected Seed Value. 
  11:.\Generated_Source\PSoC5/PrISM.c **** *
  12:.\Generated_Source\PSoC5/PrISM.c **** ********************************************************************************
  13:.\Generated_Source\PSoC5/PrISM.c **** * Copyright 2008-2012, Cypress Semiconductor Corporation.  All rights reserved.
  14:.\Generated_Source\PSoC5/PrISM.c **** * You may use this file only in accordance with the license, terms, conditions, 
  15:.\Generated_Source\PSoC5/PrISM.c **** * disclaimers, and limitations in the end user license agreement accompanying 
  16:.\Generated_Source\PSoC5/PrISM.c **** * the software package with which this file was provided.
  17:.\Generated_Source\PSoC5/PrISM.c **** *******************************************************************************/
  18:.\Generated_Source\PSoC5/PrISM.c **** 
  19:.\Generated_Source\PSoC5/PrISM.c **** #include "PrISM.h"
  20:.\Generated_Source\PSoC5/PrISM.c **** 
  21:.\Generated_Source\PSoC5/PrISM.c **** 
  22:.\Generated_Source\PSoC5/PrISM.c **** /***************************************
  23:.\Generated_Source\PSoC5/PrISM.c **** * Local data allocation
  24:.\Generated_Source\PSoC5/PrISM.c **** ***************************************/
  25:.\Generated_Source\PSoC5/PrISM.c **** 
  26:.\Generated_Source\PSoC5/PrISM.c **** uint8 PrISM_initVar = 0u;
  27:.\Generated_Source\PSoC5/PrISM.c **** 
  28:.\Generated_Source\PSoC5/PrISM.c **** 
  29:.\Generated_Source\PSoC5/PrISM.c **** /*******************************************************************************
  30:.\Generated_Source\PSoC5/PrISM.c **** * FUNCTION NAME:   PrISM_Start
  31:.\Generated_Source\PSoC5/PrISM.c **** ********************************************************************************
ARM GAS  C:\Users\koseki\AppData\Local\Temp\ccTzBEPu.s 			page 2


  32:.\Generated_Source\PSoC5/PrISM.c **** *
  33:.\Generated_Source\PSoC5/PrISM.c **** * Summary:
  34:.\Generated_Source\PSoC5/PrISM.c **** *  The start function sets Polynomial, Seed and Pulse Density registers provided
  35:.\Generated_Source\PSoC5/PrISM.c **** *  by customizer. PrISM computation starts on rising edge of input clock.
  36:.\Generated_Source\PSoC5/PrISM.c **** *
  37:.\Generated_Source\PSoC5/PrISM.c **** * Parameters:  
  38:.\Generated_Source\PSoC5/PrISM.c **** *  None.
  39:.\Generated_Source\PSoC5/PrISM.c **** *
  40:.\Generated_Source\PSoC5/PrISM.c **** * Return:  
  41:.\Generated_Source\PSoC5/PrISM.c **** *  None.
  42:.\Generated_Source\PSoC5/PrISM.c **** *
  43:.\Generated_Source\PSoC5/PrISM.c **** * Global variables:
  44:.\Generated_Source\PSoC5/PrISM.c **** *  The PrISM_initVar variable is used to indicate initial
  45:.\Generated_Source\PSoC5/PrISM.c **** *  configuration of this component.  The variable is initialized to zero and
  46:.\Generated_Source\PSoC5/PrISM.c **** *  set to 1 the first time PrISM_Start() is called. This allows for
  47:.\Generated_Source\PSoC5/PrISM.c **** *  component initialization without re-initialization in all subsequent calls
  48:.\Generated_Source\PSoC5/PrISM.c **** *  to the PrISM_Start() routine. 
  49:.\Generated_Source\PSoC5/PrISM.c **** 
  50:.\Generated_Source\PSoC5/PrISM.c **** * Reentrant:
  51:.\Generated_Source\PSoC5/PrISM.c **** *  No.
  52:.\Generated_Source\PSoC5/PrISM.c **** *
  53:.\Generated_Source\PSoC5/PrISM.c **** *******************************************************************************/
  54:.\Generated_Source\PSoC5/PrISM.c **** void PrISM_Start(void) 
  55:.\Generated_Source\PSoC5/PrISM.c **** {
  56:.\Generated_Source\PSoC5/PrISM.c ****     /* If not Initialized then initialize all required hardware and software */
  57:.\Generated_Source\PSoC5/PrISM.c ****     if(PrISM_initVar == 0u)
  58:.\Generated_Source\PSoC5/PrISM.c ****     {
  59:.\Generated_Source\PSoC5/PrISM.c ****         PrISM_Init();
  60:.\Generated_Source\PSoC5/PrISM.c ****         PrISM_initVar = 1u;
  61:.\Generated_Source\PSoC5/PrISM.c ****     }
  62:.\Generated_Source\PSoC5/PrISM.c ****     PrISM_Enable();
  63:.\Generated_Source\PSoC5/PrISM.c **** }
  64:.\Generated_Source\PSoC5/PrISM.c **** 
  65:.\Generated_Source\PSoC5/PrISM.c **** 
  66:.\Generated_Source\PSoC5/PrISM.c **** /*******************************************************************************
  67:.\Generated_Source\PSoC5/PrISM.c **** * Function Name: PrISM_Init
  68:.\Generated_Source\PSoC5/PrISM.c **** ********************************************************************************
  69:.\Generated_Source\PSoC5/PrISM.c **** *
  70:.\Generated_Source\PSoC5/PrISM.c **** * Summary:
  71:.\Generated_Source\PSoC5/PrISM.c **** *  Initialize component's parameters to the parameters set by user in the 
  72:.\Generated_Source\PSoC5/PrISM.c **** *  customizer of the component placed onto schematic. Usually called in 
  73:.\Generated_Source\PSoC5/PrISM.c **** *  PrISM_Start().
  74:.\Generated_Source\PSoC5/PrISM.c **** *
  75:.\Generated_Source\PSoC5/PrISM.c **** * Parameters:  
  76:.\Generated_Source\PSoC5/PrISM.c **** *  None.
  77:.\Generated_Source\PSoC5/PrISM.c **** *
  78:.\Generated_Source\PSoC5/PrISM.c **** * Return: 
  79:.\Generated_Source\PSoC5/PrISM.c **** *  None.
  80:.\Generated_Source\PSoC5/PrISM.c **** *
  81:.\Generated_Source\PSoC5/PrISM.c **** *******************************************************************************/
  82:.\Generated_Source\PSoC5/PrISM.c **** void PrISM_Init(void) 
  83:.\Generated_Source\PSoC5/PrISM.c **** {
  84:.\Generated_Source\PSoC5/PrISM.c ****     uint8 enableInterrupts;
  85:.\Generated_Source\PSoC5/PrISM.c ****     
  86:.\Generated_Source\PSoC5/PrISM.c ****     /* Writes Seed value, polynom value and density provided by customizer */
  87:.\Generated_Source\PSoC5/PrISM.c ****     PrISM_WriteSeed(PrISM_SEED);
  88:.\Generated_Source\PSoC5/PrISM.c ****     PrISM_WritePolynomial(PrISM_POLYNOM);
ARM GAS  C:\Users\koseki\AppData\Local\Temp\ccTzBEPu.s 			page 3


  89:.\Generated_Source\PSoC5/PrISM.c ****     PrISM_WritePulse0(PrISM_DENSITY0);
  90:.\Generated_Source\PSoC5/PrISM.c ****     PrISM_WritePulse1(PrISM_DENSITY1);
  91:.\Generated_Source\PSoC5/PrISM.c ****     
  92:.\Generated_Source\PSoC5/PrISM.c ****     enableInterrupts = CyEnterCriticalSection();
  93:.\Generated_Source\PSoC5/PrISM.c ****     /* Set FIFO0_CLR bit to use FIFO0 as a simple one-byte buffer*/
  94:.\Generated_Source\PSoC5/PrISM.c ****     CY_SET_REG16(PrISM_AUX_CONTROL_PTR, 
  95:.\Generated_Source\PSoC5/PrISM.c ****                         CY_GET_REG16(PrISM_AUX_CONTROL_PTR) | PrISM_FIFO0_CLR);
  96:.\Generated_Source\PSoC5/PrISM.c ****     CyExitCriticalSection(enableInterrupts);
  97:.\Generated_Source\PSoC5/PrISM.c ****     
  98:.\Generated_Source\PSoC5/PrISM.c ****     #if(!PrISM_PULSE_TYPE_HARDCODED)
  99:.\Generated_Source\PSoC5/PrISM.c ****         /* Writes density type provided by customizer */
 100:.\Generated_Source\PSoC5/PrISM.c ****         #if(PrISM_GREATERTHAN_OR_EQUAL == PrISM_COMPARE0)
 101:.\Generated_Source\PSoC5/PrISM.c ****             PrISM_CONTROL_REG |= PrISM_CTRL_COMPARE_TYPE0_GREATER_THAN_OR_EQUAL;
 102:.\Generated_Source\PSoC5/PrISM.c ****         #else
 103:.\Generated_Source\PSoC5/PrISM.c ****             PrISM_CONTROL_REG &= (uint8)~PrISM_CTRL_COMPARE_TYPE0_GREATER_THAN_OR_EQUAL;
 104:.\Generated_Source\PSoC5/PrISM.c ****         #endif /* End PrISM_COMPARE0 */    
 105:.\Generated_Source\PSoC5/PrISM.c ****     
 106:.\Generated_Source\PSoC5/PrISM.c ****         #if(PrISM_GREATERTHAN_OR_EQUAL == PrISM_COMPARE1)
 107:.\Generated_Source\PSoC5/PrISM.c ****             PrISM_CONTROL_REG |= PrISM_CTRL_COMPARE_TYPE1_GREATER_THAN_OR_EQUAL;
 108:.\Generated_Source\PSoC5/PrISM.c ****         #else
 109:.\Generated_Source\PSoC5/PrISM.c ****             PrISM_CONTROL_REG &= (uint8)~PrISM_CTRL_COMPARE_TYPE1_GREATER_THAN_OR_EQUAL;
 110:.\Generated_Source\PSoC5/PrISM.c ****         #endif /* End PrISM_COMPARE1 */    
 111:.\Generated_Source\PSoC5/PrISM.c ****     #endif /* End PrISM_PULSE_TYPE_HARDCODED */
 112:.\Generated_Source\PSoC5/PrISM.c **** }
 113:.\Generated_Source\PSoC5/PrISM.c **** 
 114:.\Generated_Source\PSoC5/PrISM.c **** 
 115:.\Generated_Source\PSoC5/PrISM.c **** /*******************************************************************************
 116:.\Generated_Source\PSoC5/PrISM.c **** * Function Name: PrISM_Enable
 117:.\Generated_Source\PSoC5/PrISM.c **** ********************************************************************************
 118:.\Generated_Source\PSoC5/PrISM.c **** *  
 119:.\Generated_Source\PSoC5/PrISM.c **** * Summary: 
 120:.\Generated_Source\PSoC5/PrISM.c **** *  Enables the PrISM block operation
 121:.\Generated_Source\PSoC5/PrISM.c **** *
 122:.\Generated_Source\PSoC5/PrISM.c **** * Parameters:  
 123:.\Generated_Source\PSoC5/PrISM.c **** *  None.
 124:.\Generated_Source\PSoC5/PrISM.c **** *
 125:.\Generated_Source\PSoC5/PrISM.c **** * Return: 
 126:.\Generated_Source\PSoC5/PrISM.c **** *  None.
 127:.\Generated_Source\PSoC5/PrISM.c **** *
 128:.\Generated_Source\PSoC5/PrISM.c **** *******************************************************************************/
 129:.\Generated_Source\PSoC5/PrISM.c **** void PrISM_Enable(void) 
 130:.\Generated_Source\PSoC5/PrISM.c **** {
  27              		.loc 1 130 0
  28              		.cfi_startproc
  29              		@ args = 0, pretend = 0, frame = 0
  30              		@ frame_needed = 0, uses_anonymous_args = 0
  31              		@ link register save eliminated.
 131:.\Generated_Source\PSoC5/PrISM.c ****     #if(!PrISM_PULSE_TYPE_HARDCODED)
 132:.\Generated_Source\PSoC5/PrISM.c ****         /* Enable the PrISM computation */
 133:.\Generated_Source\PSoC5/PrISM.c ****         PrISM_CONTROL_REG |= PrISM_CTRL_ENABLE;
  32              		.loc 1 133 0
  33 0000 024A     		ldr	r2, .L2
  34 0002 1378     		ldrb	r3, [r2]	@ zero_extendqisi2
  35 0004 43F00103 		orr	r3, r3, #1
  36 0008 1370     		strb	r3, [r2]
  37 000a 7047     		bx	lr
  38              	.L3:
ARM GAS  C:\Users\koseki\AppData\Local\Temp\ccTzBEPu.s 			page 4


  39              		.align	2
  40              	.L2:
  41 000c 79640040 		.word	1073767545
  42              		.cfi_endproc
  43              	.LFE2:
  44              		.size	PrISM_Enable, .-PrISM_Enable
  45              		.section	.text.PrISM_Stop,"ax",%progbits
  46              		.align	2
  47              		.global	PrISM_Stop
  48              		.thumb
  49              		.thumb_func
  50              		.type	PrISM_Stop, %function
  51              	PrISM_Stop:
  52              	.LFB3:
 134:.\Generated_Source\PSoC5/PrISM.c ****     #endif /* End PrISM_PULSE_TYPE_HARDCODED */
 135:.\Generated_Source\PSoC5/PrISM.c **** }
 136:.\Generated_Source\PSoC5/PrISM.c **** 
 137:.\Generated_Source\PSoC5/PrISM.c **** 
 138:.\Generated_Source\PSoC5/PrISM.c **** /*******************************************************************************
 139:.\Generated_Source\PSoC5/PrISM.c **** * FUNCTION NAME:   PrISM_Stop
 140:.\Generated_Source\PSoC5/PrISM.c **** ********************************************************************************
 141:.\Generated_Source\PSoC5/PrISM.c **** *
 142:.\Generated_Source\PSoC5/PrISM.c **** * Summary:
 143:.\Generated_Source\PSoC5/PrISM.c **** *  Stops PrISM computation. Outputs remain constant.
 144:.\Generated_Source\PSoC5/PrISM.c **** *
 145:.\Generated_Source\PSoC5/PrISM.c **** * Parameters:  
 146:.\Generated_Source\PSoC5/PrISM.c **** *  None.
 147:.\Generated_Source\PSoC5/PrISM.c **** *
 148:.\Generated_Source\PSoC5/PrISM.c **** * Return: 
 149:.\Generated_Source\PSoC5/PrISM.c **** *  None.
 150:.\Generated_Source\PSoC5/PrISM.c **** *
 151:.\Generated_Source\PSoC5/PrISM.c **** *******************************************************************************/
 152:.\Generated_Source\PSoC5/PrISM.c **** void PrISM_Stop(void) 
 153:.\Generated_Source\PSoC5/PrISM.c **** {
  53              		.loc 1 153 0
  54              		.cfi_startproc
  55              		@ args = 0, pretend = 0, frame = 0
  56              		@ frame_needed = 0, uses_anonymous_args = 0
  57              		@ link register save eliminated.
 154:.\Generated_Source\PSoC5/PrISM.c ****     #if(!PrISM_PULSE_TYPE_HARDCODED)
 155:.\Generated_Source\PSoC5/PrISM.c ****         PrISM_CONTROL_REG &= (uint8)~PrISM_CTRL_ENABLE;
  58              		.loc 1 155 0
  59 0000 024A     		ldr	r2, .L5
  60 0002 1378     		ldrb	r3, [r2]	@ zero_extendqisi2
  61 0004 03F0FE03 		and	r3, r3, #254
  62 0008 1370     		strb	r3, [r2]
  63 000a 7047     		bx	lr
  64              	.L6:
  65              		.align	2
  66              	.L5:
  67 000c 79640040 		.word	1073767545
  68              		.cfi_endproc
  69              	.LFE3:
  70              		.size	PrISM_Stop, .-PrISM_Stop
  71              		.section	.text.PrISM_SetPulse0Mode,"ax",%progbits
  72              		.align	2
  73              		.global	PrISM_SetPulse0Mode
ARM GAS  C:\Users\koseki\AppData\Local\Temp\ccTzBEPu.s 			page 5


  74              		.thumb
  75              		.thumb_func
  76              		.type	PrISM_SetPulse0Mode, %function
  77              	PrISM_SetPulse0Mode:
  78              	.LFB4:
 156:.\Generated_Source\PSoC5/PrISM.c ****     #else
 157:.\Generated_Source\PSoC5/PrISM.c ****         /* PulseTypeHardoded option enabled - to stop PrISM use enable input */
 158:.\Generated_Source\PSoC5/PrISM.c ****     #endif /* End $INSTANCE_NAME`_PULSE_TYPE_HARDCODED */
 159:.\Generated_Source\PSoC5/PrISM.c **** }
 160:.\Generated_Source\PSoC5/PrISM.c **** 
 161:.\Generated_Source\PSoC5/PrISM.c **** #if(!PrISM_PULSE_TYPE_HARDCODED)
 162:.\Generated_Source\PSoC5/PrISM.c **** 
 163:.\Generated_Source\PSoC5/PrISM.c **** 
 164:.\Generated_Source\PSoC5/PrISM.c ****     /***************************************************************************
 165:.\Generated_Source\PSoC5/PrISM.c ****     * FUNCTION NAME:     PrISM_SetPulse0Mode
 166:.\Generated_Source\PSoC5/PrISM.c ****     ****************************************************************************
 167:.\Generated_Source\PSoC5/PrISM.c ****     *
 168:.\Generated_Source\PSoC5/PrISM.c ****     * Summary:
 169:.\Generated_Source\PSoC5/PrISM.c ****     *  Sets the pulse density type for Density0. Less than or Equal(<=) or 
 170:.\Generated_Source\PSoC5/PrISM.c ****     *  Greater than or Equal(>=).
 171:.\Generated_Source\PSoC5/PrISM.c ****     *
 172:.\Generated_Source\PSoC5/PrISM.c ****     * Parameters:
 173:.\Generated_Source\PSoC5/PrISM.c ****     *  pulse0Type: Selected pulse density type.
 174:.\Generated_Source\PSoC5/PrISM.c ****     *
 175:.\Generated_Source\PSoC5/PrISM.c ****     * Return:
 176:.\Generated_Source\PSoC5/PrISM.c ****     *  None.
 177:.\Generated_Source\PSoC5/PrISM.c ****     *
 178:.\Generated_Source\PSoC5/PrISM.c ****     ***************************************************************************/
 179:.\Generated_Source\PSoC5/PrISM.c ****     void PrISM_SetPulse0Mode(uint8 pulse0Type) 
 180:.\Generated_Source\PSoC5/PrISM.c ****     {
  79              		.loc 1 180 0
  80              		.cfi_startproc
  81              		@ args = 0, pretend = 0, frame = 0
  82              		@ frame_needed = 0, uses_anonymous_args = 0
  83              		@ link register save eliminated.
  84              	.LVL0:
 181:.\Generated_Source\PSoC5/PrISM.c ****         if(pulse0Type == PrISM_GREATERTHAN_OR_EQUAL)
  85              		.loc 1 181 0
  86 0000 0128     		cmp	r0, #1
  87 0002 05D1     		bne	.L8
 182:.\Generated_Source\PSoC5/PrISM.c ****         {
 183:.\Generated_Source\PSoC5/PrISM.c ****             PrISM_CONTROL_REG |= PrISM_CTRL_COMPARE_TYPE0_GREATER_THAN_OR_EQUAL;
  88              		.loc 1 183 0
  89 0004 054A     		ldr	r2, .L10
  90 0006 1378     		ldrb	r3, [r2]	@ zero_extendqisi2
  91 0008 43F00203 		orr	r3, r3, #2
  92 000c 1370     		strb	r3, [r2]
  93 000e 7047     		bx	lr
  94              	.L8:
 184:.\Generated_Source\PSoC5/PrISM.c ****         }
 185:.\Generated_Source\PSoC5/PrISM.c ****         else
 186:.\Generated_Source\PSoC5/PrISM.c ****         {
 187:.\Generated_Source\PSoC5/PrISM.c ****             PrISM_CONTROL_REG &= (uint8)~PrISM_CTRL_COMPARE_TYPE0_GREATER_THAN_OR_EQUAL;
  95              		.loc 1 187 0
  96 0010 024A     		ldr	r2, .L10
  97 0012 1378     		ldrb	r3, [r2]	@ zero_extendqisi2
  98 0014 03F0FD03 		and	r3, r3, #253
ARM GAS  C:\Users\koseki\AppData\Local\Temp\ccTzBEPu.s 			page 6


  99 0018 1370     		strb	r3, [r2]
 100 001a 7047     		bx	lr
 101              	.L11:
 102              		.align	2
 103              	.L10:
 104 001c 79640040 		.word	1073767545
 105              		.cfi_endproc
 106              	.LFE4:
 107              		.size	PrISM_SetPulse0Mode, .-PrISM_SetPulse0Mode
 108              		.section	.text.PrISM_SetPulse1Mode,"ax",%progbits
 109              		.align	2
 110              		.global	PrISM_SetPulse1Mode
 111              		.thumb
 112              		.thumb_func
 113              		.type	PrISM_SetPulse1Mode, %function
 114              	PrISM_SetPulse1Mode:
 115              	.LFB5:
 188:.\Generated_Source\PSoC5/PrISM.c ****         }
 189:.\Generated_Source\PSoC5/PrISM.c ****     }
 190:.\Generated_Source\PSoC5/PrISM.c ****     
 191:.\Generated_Source\PSoC5/PrISM.c ****     
 192:.\Generated_Source\PSoC5/PrISM.c ****     /***************************************************************************
 193:.\Generated_Source\PSoC5/PrISM.c ****     * FUNCTION NAME:   PrISM_SetPulse1Mode
 194:.\Generated_Source\PSoC5/PrISM.c ****     ****************************************************************************
 195:.\Generated_Source\PSoC5/PrISM.c ****     *
 196:.\Generated_Source\PSoC5/PrISM.c ****     * Summary:
 197:.\Generated_Source\PSoC5/PrISM.c ****     *  Sets the pulse density type for Density1. Less than or Equal(<=) or 
 198:.\Generated_Source\PSoC5/PrISM.c ****     *  Greater than or Equal(>=).
 199:.\Generated_Source\PSoC5/PrISM.c ****     *
 200:.\Generated_Source\PSoC5/PrISM.c ****     * Parameters:  
 201:.\Generated_Source\PSoC5/PrISM.c ****     *  pulse1Type: Selected pulse density type.
 202:.\Generated_Source\PSoC5/PrISM.c ****     *
 203:.\Generated_Source\PSoC5/PrISM.c ****     * Return:
 204:.\Generated_Source\PSoC5/PrISM.c ****     *  None.
 205:.\Generated_Source\PSoC5/PrISM.c ****     *
 206:.\Generated_Source\PSoC5/PrISM.c ****     ***************************************************************************/
 207:.\Generated_Source\PSoC5/PrISM.c ****     void PrISM_SetPulse1Mode(uint8 pulse1Type) 
 208:.\Generated_Source\PSoC5/PrISM.c ****     {
 116              		.loc 1 208 0
 117              		.cfi_startproc
 118              		@ args = 0, pretend = 0, frame = 0
 119              		@ frame_needed = 0, uses_anonymous_args = 0
 120              		@ link register save eliminated.
 121              	.LVL1:
 209:.\Generated_Source\PSoC5/PrISM.c ****         if(pulse1Type == PrISM_GREATERTHAN_OR_EQUAL)
 122              		.loc 1 209 0
 123 0000 0128     		cmp	r0, #1
 124 0002 05D1     		bne	.L13
 210:.\Generated_Source\PSoC5/PrISM.c ****         {
 211:.\Generated_Source\PSoC5/PrISM.c ****             PrISM_CONTROL_REG |= PrISM_CTRL_COMPARE_TYPE1_GREATER_THAN_OR_EQUAL;
 125              		.loc 1 211 0
 126 0004 054A     		ldr	r2, .L15
 127 0006 1378     		ldrb	r3, [r2]	@ zero_extendqisi2
 128 0008 43F00403 		orr	r3, r3, #4
 129 000c 1370     		strb	r3, [r2]
 130 000e 7047     		bx	lr
 131              	.L13:
ARM GAS  C:\Users\koseki\AppData\Local\Temp\ccTzBEPu.s 			page 7


 212:.\Generated_Source\PSoC5/PrISM.c ****         }
 213:.\Generated_Source\PSoC5/PrISM.c ****         else
 214:.\Generated_Source\PSoC5/PrISM.c ****         {
 215:.\Generated_Source\PSoC5/PrISM.c ****             PrISM_CONTROL_REG &= (uint8)~PrISM_CTRL_COMPARE_TYPE1_GREATER_THAN_OR_EQUAL;
 132              		.loc 1 215 0
 133 0010 024A     		ldr	r2, .L15
 134 0012 1378     		ldrb	r3, [r2]	@ zero_extendqisi2
 135 0014 03F0FB03 		and	r3, r3, #251
 136 0018 1370     		strb	r3, [r2]
 137 001a 7047     		bx	lr
 138              	.L16:
 139              		.align	2
 140              	.L15:
 141 001c 79640040 		.word	1073767545
 142              		.cfi_endproc
 143              	.LFE5:
 144              		.size	PrISM_SetPulse1Mode, .-PrISM_SetPulse1Mode
 145              		.section	.text.PrISM_ReadSeed,"ax",%progbits
 146              		.align	2
 147              		.global	PrISM_ReadSeed
 148              		.thumb
 149              		.thumb_func
 150              		.type	PrISM_ReadSeed, %function
 151              	PrISM_ReadSeed:
 152              	.LFB6:
 216:.\Generated_Source\PSoC5/PrISM.c ****         }
 217:.\Generated_Source\PSoC5/PrISM.c ****     }
 218:.\Generated_Source\PSoC5/PrISM.c **** 
 219:.\Generated_Source\PSoC5/PrISM.c **** #endif /* End PrISM_PULSE_TYPE_HARDCODED == 0 */
 220:.\Generated_Source\PSoC5/PrISM.c **** 
 221:.\Generated_Source\PSoC5/PrISM.c **** 
 222:.\Generated_Source\PSoC5/PrISM.c **** /*******************************************************************************
 223:.\Generated_Source\PSoC5/PrISM.c **** * FUNCTION NAME:   PrISM_ReadSeed
 224:.\Generated_Source\PSoC5/PrISM.c **** ********************************************************************************
 225:.\Generated_Source\PSoC5/PrISM.c **** *
 226:.\Generated_Source\PSoC5/PrISM.c **** * Summary:
 227:.\Generated_Source\PSoC5/PrISM.c **** *  Reads the PrISM Seed register.
 228:.\Generated_Source\PSoC5/PrISM.c **** *
 229:.\Generated_Source\PSoC5/PrISM.c **** * Parameters:
 230:.\Generated_Source\PSoC5/PrISM.c **** *  None.
 231:.\Generated_Source\PSoC5/PrISM.c **** *
 232:.\Generated_Source\PSoC5/PrISM.c **** * Return:
 233:.\Generated_Source\PSoC5/PrISM.c **** *  Current Period register value.
 234:.\Generated_Source\PSoC5/PrISM.c **** *
 235:.\Generated_Source\PSoC5/PrISM.c **** *******************************************************************************/
 236:.\Generated_Source\PSoC5/PrISM.c **** uint16 PrISM_ReadSeed(void) 
 237:.\Generated_Source\PSoC5/PrISM.c **** {
 153              		.loc 1 237 0
 154              		.cfi_startproc
 155              		@ args = 0, pretend = 0, frame = 0
 156              		@ frame_needed = 0, uses_anonymous_args = 0
 157              		@ link register save eliminated.
 238:.\Generated_Source\PSoC5/PrISM.c ****     return( CY_GET_REG16(PrISM_SEED_PTR) );
 158              		.loc 1 238 0
 159 0000 014B     		ldr	r3, .L18
 160 0002 1888     		ldrh	r0, [r3]
 239:.\Generated_Source\PSoC5/PrISM.c **** }
ARM GAS  C:\Users\koseki\AppData\Local\Temp\ccTzBEPu.s 			page 8


 161              		.loc 1 239 0
 162 0004 80B2     		uxth	r0, r0
 163 0006 7047     		bx	lr
 164              	.L19:
 165              		.align	2
 166              	.L18:
 167 0008 10680040 		.word	1073768464
 168              		.cfi_endproc
 169              	.LFE6:
 170              		.size	PrISM_ReadSeed, .-PrISM_ReadSeed
 171              		.section	.text.PrISM_WriteSeed,"ax",%progbits
 172              		.align	2
 173              		.global	PrISM_WriteSeed
 174              		.thumb
 175              		.thumb_func
 176              		.type	PrISM_WriteSeed, %function
 177              	PrISM_WriteSeed:
 178              	.LFB7:
 240:.\Generated_Source\PSoC5/PrISM.c **** 
 241:.\Generated_Source\PSoC5/PrISM.c **** 
 242:.\Generated_Source\PSoC5/PrISM.c **** /*******************************************************************************
 243:.\Generated_Source\PSoC5/PrISM.c **** * FUNCTION NAME:   PrISM_WriteSeed
 244:.\Generated_Source\PSoC5/PrISM.c **** ********************************************************************************
 245:.\Generated_Source\PSoC5/PrISM.c **** *
 246:.\Generated_Source\PSoC5/PrISM.c **** * Summary:
 247:.\Generated_Source\PSoC5/PrISM.c **** *  Writes the PrISM Seed register with the start value.
 248:.\Generated_Source\PSoC5/PrISM.c **** *
 249:.\Generated_Source\PSoC5/PrISM.c **** * Parameters:
 250:.\Generated_Source\PSoC5/PrISM.c **** *  seed: Seed register value.
 251:.\Generated_Source\PSoC5/PrISM.c **** *
 252:.\Generated_Source\PSoC5/PrISM.c **** * Return:
 253:.\Generated_Source\PSoC5/PrISM.c **** *  None.
 254:.\Generated_Source\PSoC5/PrISM.c **** *
 255:.\Generated_Source\PSoC5/PrISM.c **** *******************************************************************************/
 256:.\Generated_Source\PSoC5/PrISM.c **** void PrISM_WriteSeed(uint16 seed) 
 257:.\Generated_Source\PSoC5/PrISM.c **** {
 179              		.loc 1 257 0
 180              		.cfi_startproc
 181              		@ args = 0, pretend = 0, frame = 0
 182              		@ frame_needed = 0, uses_anonymous_args = 0
 183              		@ link register save eliminated.
 184              	.LVL2:
 258:.\Generated_Source\PSoC5/PrISM.c ****     if(seed != 0u)
 185              		.loc 1 258 0
 186 0000 18B1     		cbz	r0, .L20
 259:.\Generated_Source\PSoC5/PrISM.c ****     {
 260:.\Generated_Source\PSoC5/PrISM.c ****         CY_SET_REG16(PrISM_SEED_COPY_PTR, seed);
 187              		.loc 1 260 0
 188 0002 024A     		ldr	r2, .L22
 189 0004 1080     		strh	r0, [r2]	@ movhi
 261:.\Generated_Source\PSoC5/PrISM.c ****         CY_SET_REG16(PrISM_SEED_PTR, seed);
 190              		.loc 1 261 0
 191 0006 803A     		subs	r2, r2, #128
 192 0008 1080     		strh	r0, [r2]	@ movhi
 193              	.L20:
 194 000a 7047     		bx	lr
 195              	.L23:
ARM GAS  C:\Users\koseki\AppData\Local\Temp\ccTzBEPu.s 			page 9


 196              		.align	2
 197              	.L22:
 198 000c 90680040 		.word	1073768592
 199              		.cfi_endproc
 200              	.LFE7:
 201              		.size	PrISM_WriteSeed, .-PrISM_WriteSeed
 202              		.section	.text.PrISM_ReadPolynomial,"ax",%progbits
 203              		.align	2
 204              		.global	PrISM_ReadPolynomial
 205              		.thumb
 206              		.thumb_func
 207              		.type	PrISM_ReadPolynomial, %function
 208              	PrISM_ReadPolynomial:
 209              	.LFB8:
 262:.\Generated_Source\PSoC5/PrISM.c ****     }
 263:.\Generated_Source\PSoC5/PrISM.c **** }
 264:.\Generated_Source\PSoC5/PrISM.c **** 
 265:.\Generated_Source\PSoC5/PrISM.c **** 
 266:.\Generated_Source\PSoC5/PrISM.c **** /*******************************************************************************
 267:.\Generated_Source\PSoC5/PrISM.c **** * FUNCTION NAME:   PrISM_ReadPolynomial
 268:.\Generated_Source\PSoC5/PrISM.c **** ********************************************************************************
 269:.\Generated_Source\PSoC5/PrISM.c **** *
 270:.\Generated_Source\PSoC5/PrISM.c **** * Summary:
 271:.\Generated_Source\PSoC5/PrISM.c **** *  Reads the PrISM polynomial.
 272:.\Generated_Source\PSoC5/PrISM.c **** *
 273:.\Generated_Source\PSoC5/PrISM.c **** * Parameters:
 274:.\Generated_Source\PSoC5/PrISM.c **** *  None.
 275:.\Generated_Source\PSoC5/PrISM.c **** *
 276:.\Generated_Source\PSoC5/PrISM.c **** * Return:
 277:.\Generated_Source\PSoC5/PrISM.c **** *  PrISM polynomial.
 278:.\Generated_Source\PSoC5/PrISM.c **** *
 279:.\Generated_Source\PSoC5/PrISM.c **** *******************************************************************************/
 280:.\Generated_Source\PSoC5/PrISM.c **** uint16 PrISM_ReadPolynomial(void) 
 281:.\Generated_Source\PSoC5/PrISM.c **** {
 210              		.loc 1 281 0
 211              		.cfi_startproc
 212              		@ args = 0, pretend = 0, frame = 0
 213              		@ frame_needed = 0, uses_anonymous_args = 0
 214              		@ link register save eliminated.
 282:.\Generated_Source\PSoC5/PrISM.c ****     return( CY_GET_REG16(PrISM_POLYNOM_PTR) );
 215              		.loc 1 282 0
 216 0000 014B     		ldr	r3, .L25
 217 0002 1888     		ldrh	r0, [r3]
 283:.\Generated_Source\PSoC5/PrISM.c **** }
 218              		.loc 1 283 0
 219 0004 80B2     		uxth	r0, r0
 220 0006 7047     		bx	lr
 221              	.L26:
 222              		.align	2
 223              	.L25:
 224 0008 30680040 		.word	1073768496
 225              		.cfi_endproc
 226              	.LFE8:
 227              		.size	PrISM_ReadPolynomial, .-PrISM_ReadPolynomial
 228              		.section	.text.PrISM_WritePolynomial,"ax",%progbits
 229              		.align	2
 230              		.global	PrISM_WritePolynomial
ARM GAS  C:\Users\koseki\AppData\Local\Temp\ccTzBEPu.s 			page 10


 231              		.thumb
 232              		.thumb_func
 233              		.type	PrISM_WritePolynomial, %function
 234              	PrISM_WritePolynomial:
 235              	.LFB9:
 284:.\Generated_Source\PSoC5/PrISM.c **** 
 285:.\Generated_Source\PSoC5/PrISM.c **** 
 286:.\Generated_Source\PSoC5/PrISM.c **** /*******************************************************************************
 287:.\Generated_Source\PSoC5/PrISM.c **** * FUNCTION NAME:   PrISM_WritePolynomial
 288:.\Generated_Source\PSoC5/PrISM.c **** ********************************************************************************
 289:.\Generated_Source\PSoC5/PrISM.c **** *
 290:.\Generated_Source\PSoC5/PrISM.c **** * Summary:
 291:.\Generated_Source\PSoC5/PrISM.c **** *  Writes the PrISM polynomial.
 292:.\Generated_Source\PSoC5/PrISM.c **** *
 293:.\Generated_Source\PSoC5/PrISM.c **** * Parameters:
 294:.\Generated_Source\PSoC5/PrISM.c **** *  polynomial: PrISM polynomial.
 295:.\Generated_Source\PSoC5/PrISM.c **** *
 296:.\Generated_Source\PSoC5/PrISM.c **** * Return:
 297:.\Generated_Source\PSoC5/PrISM.c **** *  None.
 298:.\Generated_Source\PSoC5/PrISM.c **** *
 299:.\Generated_Source\PSoC5/PrISM.c **** *******************************************************************************/
 300:.\Generated_Source\PSoC5/PrISM.c **** void PrISM_WritePolynomial(uint16 polynomial) \
 301:.\Generated_Source\PSoC5/PrISM.c ****                                                                 
 302:.\Generated_Source\PSoC5/PrISM.c **** {
 236              		.loc 1 302 0
 237              		.cfi_startproc
 238              		@ args = 0, pretend = 0, frame = 0
 239              		@ frame_needed = 0, uses_anonymous_args = 0
 240              		@ link register save eliminated.
 241              	.LVL3:
 303:.\Generated_Source\PSoC5/PrISM.c ****     CY_SET_REG16(PrISM_POLYNOM_PTR, polynomial);
 242              		.loc 1 303 0
 243 0000 014B     		ldr	r3, .L28
 244 0002 1880     		strh	r0, [r3]	@ movhi
 245 0004 7047     		bx	lr
 246              	.L29:
 247 0006 00BF     		.align	2
 248              	.L28:
 249 0008 30680040 		.word	1073768496
 250              		.cfi_endproc
 251              	.LFE9:
 252              		.size	PrISM_WritePolynomial, .-PrISM_WritePolynomial
 253              		.section	.text.PrISM_ReadPulse0,"ax",%progbits
 254              		.align	2
 255              		.global	PrISM_ReadPulse0
 256              		.thumb
 257              		.thumb_func
 258              		.type	PrISM_ReadPulse0, %function
 259              	PrISM_ReadPulse0:
 260              	.LFB10:
 304:.\Generated_Source\PSoC5/PrISM.c ****     
 305:.\Generated_Source\PSoC5/PrISM.c **** }
 306:.\Generated_Source\PSoC5/PrISM.c **** 
 307:.\Generated_Source\PSoC5/PrISM.c **** 
 308:.\Generated_Source\PSoC5/PrISM.c **** /*******************************************************************************
 309:.\Generated_Source\PSoC5/PrISM.c **** * FUNCTION NAME:   PrISM_ReadPulse0
 310:.\Generated_Source\PSoC5/PrISM.c **** ********************************************************************************
ARM GAS  C:\Users\koseki\AppData\Local\Temp\ccTzBEPu.s 			page 11


 311:.\Generated_Source\PSoC5/PrISM.c **** *
 312:.\Generated_Source\PSoC5/PrISM.c **** * Summary:
 313:.\Generated_Source\PSoC5/PrISM.c **** *  Reads the PrISM Pulse Density0 register.
 314:.\Generated_Source\PSoC5/PrISM.c **** *
 315:.\Generated_Source\PSoC5/PrISM.c **** * Parameters:
 316:.\Generated_Source\PSoC5/PrISM.c **** *  None.
 317:.\Generated_Source\PSoC5/PrISM.c **** *
 318:.\Generated_Source\PSoC5/PrISM.c **** * Return:
 319:.\Generated_Source\PSoC5/PrISM.c **** *  Pulse Density0 register value.
 320:.\Generated_Source\PSoC5/PrISM.c **** *
 321:.\Generated_Source\PSoC5/PrISM.c **** *******************************************************************************/
 322:.\Generated_Source\PSoC5/PrISM.c **** uint16 PrISM_ReadPulse0(void) 
 323:.\Generated_Source\PSoC5/PrISM.c **** {
 261              		.loc 1 323 0
 262              		.cfi_startproc
 263              		@ args = 0, pretend = 0, frame = 0
 264              		@ frame_needed = 0, uses_anonymous_args = 0
 265              		@ link register save eliminated.
 324:.\Generated_Source\PSoC5/PrISM.c ****     return( CY_GET_REG16(PrISM_DENSITY0_PTR) );
 266              		.loc 1 324 0
 267 0000 014B     		ldr	r3, .L31
 268 0002 1888     		ldrh	r0, [r3]
 325:.\Generated_Source\PSoC5/PrISM.c **** }
 269              		.loc 1 325 0
 270 0004 80B2     		uxth	r0, r0
 271 0006 7047     		bx	lr
 272              	.L32:
 273              		.align	2
 274              	.L31:
 275 0008 50680040 		.word	1073768528
 276              		.cfi_endproc
 277              	.LFE10:
 278              		.size	PrISM_ReadPulse0, .-PrISM_ReadPulse0
 279              		.section	.text.PrISM_WritePulse0,"ax",%progbits
 280              		.align	2
 281              		.global	PrISM_WritePulse0
 282              		.thumb
 283              		.thumb_func
 284              		.type	PrISM_WritePulse0, %function
 285              	PrISM_WritePulse0:
 286              	.LFB11:
 326:.\Generated_Source\PSoC5/PrISM.c **** 
 327:.\Generated_Source\PSoC5/PrISM.c **** 
 328:.\Generated_Source\PSoC5/PrISM.c **** /*******************************************************************************
 329:.\Generated_Source\PSoC5/PrISM.c **** * FUNCTION NAME:   PrISM_WritePulse0
 330:.\Generated_Source\PSoC5/PrISM.c **** ********************************************************************************
 331:.\Generated_Source\PSoC5/PrISM.c **** *
 332:.\Generated_Source\PSoC5/PrISM.c **** * Summary:
 333:.\Generated_Source\PSoC5/PrISM.c **** *  Writes the PrISM Pulse Density0 register with the Pulse Density value.
 334:.\Generated_Source\PSoC5/PrISM.c **** *
 335:.\Generated_Source\PSoC5/PrISM.c **** * Parameters:
 336:.\Generated_Source\PSoC5/PrISM.c **** *  pulseDensity0: Pulse Density value.
 337:.\Generated_Source\PSoC5/PrISM.c **** *
 338:.\Generated_Source\PSoC5/PrISM.c **** * Return:
 339:.\Generated_Source\PSoC5/PrISM.c **** *  None.
 340:.\Generated_Source\PSoC5/PrISM.c **** *
 341:.\Generated_Source\PSoC5/PrISM.c **** *******************************************************************************/
ARM GAS  C:\Users\koseki\AppData\Local\Temp\ccTzBEPu.s 			page 12


 342:.\Generated_Source\PSoC5/PrISM.c **** void PrISM_WritePulse0(uint16 pulseDensity0) \
 343:.\Generated_Source\PSoC5/PrISM.c ****                                                                 
 344:.\Generated_Source\PSoC5/PrISM.c **** {
 287              		.loc 1 344 0
 288              		.cfi_startproc
 289              		@ args = 0, pretend = 0, frame = 0
 290              		@ frame_needed = 0, uses_anonymous_args = 0
 291              		@ link register save eliminated.
 292              	.LVL4:
 345:.\Generated_Source\PSoC5/PrISM.c ****     CY_SET_REG16(PrISM_DENSITY0_PTR, pulseDensity0);
 293              		.loc 1 345 0
 294 0000 014B     		ldr	r3, .L34
 295 0002 1880     		strh	r0, [r3]	@ movhi
 296 0004 7047     		bx	lr
 297              	.L35:
 298 0006 00BF     		.align	2
 299              	.L34:
 300 0008 50680040 		.word	1073768528
 301              		.cfi_endproc
 302              	.LFE11:
 303              		.size	PrISM_WritePulse0, .-PrISM_WritePulse0
 304              		.section	.text.PrISM_ReadPulse1,"ax",%progbits
 305              		.align	2
 306              		.global	PrISM_ReadPulse1
 307              		.thumb
 308              		.thumb_func
 309              		.type	PrISM_ReadPulse1, %function
 310              	PrISM_ReadPulse1:
 311              	.LFB12:
 346:.\Generated_Source\PSoC5/PrISM.c **** }
 347:.\Generated_Source\PSoC5/PrISM.c **** 
 348:.\Generated_Source\PSoC5/PrISM.c **** 
 349:.\Generated_Source\PSoC5/PrISM.c **** /*******************************************************************************
 350:.\Generated_Source\PSoC5/PrISM.c **** * FUNCTION NAME:   PrISM_ReadPulse1
 351:.\Generated_Source\PSoC5/PrISM.c **** ********************************************************************************
 352:.\Generated_Source\PSoC5/PrISM.c **** *
 353:.\Generated_Source\PSoC5/PrISM.c **** * Summary:
 354:.\Generated_Source\PSoC5/PrISM.c **** *  Reads the PrISM Pulse Density1 register.
 355:.\Generated_Source\PSoC5/PrISM.c **** *
 356:.\Generated_Source\PSoC5/PrISM.c **** * Parameters:
 357:.\Generated_Source\PSoC5/PrISM.c **** *  None.
 358:.\Generated_Source\PSoC5/PrISM.c **** *
 359:.\Generated_Source\PSoC5/PrISM.c **** * Return:
 360:.\Generated_Source\PSoC5/PrISM.c **** *  Pulse Density1 register value.
 361:.\Generated_Source\PSoC5/PrISM.c **** *
 362:.\Generated_Source\PSoC5/PrISM.c **** *******************************************************************************/
 363:.\Generated_Source\PSoC5/PrISM.c **** uint16 PrISM_ReadPulse1(void) 
 364:.\Generated_Source\PSoC5/PrISM.c **** {
 312              		.loc 1 364 0
 313              		.cfi_startproc
 314              		@ args = 0, pretend = 0, frame = 0
 315              		@ frame_needed = 0, uses_anonymous_args = 0
 316              		@ link register save eliminated.
 365:.\Generated_Source\PSoC5/PrISM.c ****     return( CY_GET_REG16(PrISM_DENSITY1_PTR) );
 317              		.loc 1 365 0
 318 0000 014B     		ldr	r3, .L37
 319 0002 1888     		ldrh	r0, [r3]
ARM GAS  C:\Users\koseki\AppData\Local\Temp\ccTzBEPu.s 			page 13


 366:.\Generated_Source\PSoC5/PrISM.c **** }
 320              		.loc 1 366 0
 321 0004 80B2     		uxth	r0, r0
 322 0006 7047     		bx	lr
 323              	.L38:
 324              		.align	2
 325              	.L37:
 326 0008 70680040 		.word	1073768560
 327              		.cfi_endproc
 328              	.LFE12:
 329              		.size	PrISM_ReadPulse1, .-PrISM_ReadPulse1
 330              		.section	.text.PrISM_WritePulse1,"ax",%progbits
 331              		.align	2
 332              		.global	PrISM_WritePulse1
 333              		.thumb
 334              		.thumb_func
 335              		.type	PrISM_WritePulse1, %function
 336              	PrISM_WritePulse1:
 337              	.LFB13:
 367:.\Generated_Source\PSoC5/PrISM.c **** 
 368:.\Generated_Source\PSoC5/PrISM.c **** 
 369:.\Generated_Source\PSoC5/PrISM.c **** /*******************************************************************************
 370:.\Generated_Source\PSoC5/PrISM.c **** * FUNCTION NAME:   PrISM_WritePulse1
 371:.\Generated_Source\PSoC5/PrISM.c **** ********************************************************************************
 372:.\Generated_Source\PSoC5/PrISM.c **** *
 373:.\Generated_Source\PSoC5/PrISM.c **** * Summary:
 374:.\Generated_Source\PSoC5/PrISM.c **** *  Writes the PrISM Pulse Density1 register with the Pulse Density value.
 375:.\Generated_Source\PSoC5/PrISM.c **** *
 376:.\Generated_Source\PSoC5/PrISM.c **** * Parameters:
 377:.\Generated_Source\PSoC5/PrISM.c **** *  pulseDensity1: Pulse Density value.
 378:.\Generated_Source\PSoC5/PrISM.c **** *
 379:.\Generated_Source\PSoC5/PrISM.c **** * Return:
 380:.\Generated_Source\PSoC5/PrISM.c **** *  None.
 381:.\Generated_Source\PSoC5/PrISM.c **** *
 382:.\Generated_Source\PSoC5/PrISM.c **** *******************************************************************************/
 383:.\Generated_Source\PSoC5/PrISM.c **** void PrISM_WritePulse1(uint16 pulseDensity1) \
 384:.\Generated_Source\PSoC5/PrISM.c ****                                                                     
 385:.\Generated_Source\PSoC5/PrISM.c **** {
 338              		.loc 1 385 0
 339              		.cfi_startproc
 340              		@ args = 0, pretend = 0, frame = 0
 341              		@ frame_needed = 0, uses_anonymous_args = 0
 342              		@ link register save eliminated.
 343              	.LVL5:
 386:.\Generated_Source\PSoC5/PrISM.c ****     CY_SET_REG16(PrISM_DENSITY1_PTR, pulseDensity1);
 344              		.loc 1 386 0
 345 0000 014B     		ldr	r3, .L40
 346 0002 1880     		strh	r0, [r3]	@ movhi
 347 0004 7047     		bx	lr
 348              	.L41:
 349 0006 00BF     		.align	2
 350              	.L40:
 351 0008 70680040 		.word	1073768560
 352              		.cfi_endproc
 353              	.LFE13:
 354              		.size	PrISM_WritePulse1, .-PrISM_WritePulse1
 355              		.section	.text.PrISM_Init,"ax",%progbits
ARM GAS  C:\Users\koseki\AppData\Local\Temp\ccTzBEPu.s 			page 14


 356              		.align	2
 357              		.global	PrISM_Init
 358              		.thumb
 359              		.thumb_func
 360              		.type	PrISM_Init, %function
 361              	PrISM_Init:
 362              	.LFB1:
  83:.\Generated_Source\PSoC5/PrISM.c ****     uint8 enableInterrupts;
 363              		.loc 1 83 0
 364              		.cfi_startproc
 365              		@ args = 0, pretend = 0, frame = 0
 366              		@ frame_needed = 0, uses_anonymous_args = 0
 367 0000 08B5     		push	{r3, lr}
 368              		.cfi_def_cfa_offset 8
 369              		.cfi_offset 3, -8
 370              		.cfi_offset 14, -4
  87:.\Generated_Source\PSoC5/PrISM.c ****     PrISM_WritePolynomial(PrISM_POLYNOM);
 371              		.loc 1 87 0
 372 0002 40F6FF70 		movw	r0, #4095
 373 0006 FFF7FEFF 		bl	PrISM_WriteSeed
 374              	.LVL6:
  88:.\Generated_Source\PSoC5/PrISM.c ****     PrISM_WritePulse0(PrISM_DENSITY0);
 375              		.loc 1 88 0
 376 000a 4FF44A60 		mov	r0, #3232
 377 000e FFF7FEFF 		bl	PrISM_WritePolynomial
 378              	.LVL7:
  89:.\Generated_Source\PSoC5/PrISM.c ****     PrISM_WritePulse1(PrISM_DENSITY1);
 379              		.loc 1 89 0
 380 0012 0120     		movs	r0, #1
 381 0014 FFF7FEFF 		bl	PrISM_WritePulse0
 382              	.LVL8:
  90:.\Generated_Source\PSoC5/PrISM.c ****     
 383              		.loc 1 90 0
 384 0018 0120     		movs	r0, #1
 385 001a FFF7FEFF 		bl	PrISM_WritePulse1
 386              	.LVL9:
  92:.\Generated_Source\PSoC5/PrISM.c ****     /* Set FIFO0_CLR bit to use FIFO0 as a simple one-byte buffer*/
 387              		.loc 1 92 0
 388 001e FFF7FEFF 		bl	CyEnterCriticalSection
 389              	.LVL10:
  94:.\Generated_Source\PSoC5/PrISM.c ****                         CY_GET_REG16(PrISM_AUX_CONTROL_PTR) | PrISM_FIFO0_CLR);
 390              		.loc 1 94 0
 391 0022 0A4A     		ldr	r2, .L44
 392 0024 1388     		ldrh	r3, [r2]
 393 0026 9BB2     		uxth	r3, r3
 394 0028 43F48073 		orr	r3, r3, #256
 395 002c 43F00103 		orr	r3, r3, #1
 396 0030 1380     		strh	r3, [r2]	@ movhi
  96:.\Generated_Source\PSoC5/PrISM.c ****     
 397              		.loc 1 96 0
 398 0032 FFF7FEFF 		bl	CyExitCriticalSection
 399              	.LVL11:
 103:.\Generated_Source\PSoC5/PrISM.c ****         #endif /* End PrISM_COMPARE0 */    
 400              		.loc 1 103 0
 401 0036 064B     		ldr	r3, .L44+4
 402 0038 1A78     		ldrb	r2, [r3]	@ zero_extendqisi2
 403 003a 02F0FD02 		and	r2, r2, #253
ARM GAS  C:\Users\koseki\AppData\Local\Temp\ccTzBEPu.s 			page 15


 404 003e 1A70     		strb	r2, [r3]
 109:.\Generated_Source\PSoC5/PrISM.c ****         #endif /* End PrISM_COMPARE1 */    
 405              		.loc 1 109 0
 406 0040 1A78     		ldrb	r2, [r3]	@ zero_extendqisi2
 407 0042 02F0FB02 		and	r2, r2, #251
 408 0046 1A70     		strb	r2, [r3]
 409 0048 08BD     		pop	{r3, pc}
 410              	.L45:
 411 004a 00BF     		.align	2
 412              	.L44:
 413 004c 30690040 		.word	1073768752
 414 0050 79640040 		.word	1073767545
 415              		.cfi_endproc
 416              	.LFE1:
 417              		.size	PrISM_Init, .-PrISM_Init
 418              		.section	.text.PrISM_Start,"ax",%progbits
 419              		.align	2
 420              		.global	PrISM_Start
 421              		.thumb
 422              		.thumb_func
 423              		.type	PrISM_Start, %function
 424              	PrISM_Start:
 425              	.LFB0:
  55:.\Generated_Source\PSoC5/PrISM.c ****     /* If not Initialized then initialize all required hardware and software */
 426              		.loc 1 55 0
 427              		.cfi_startproc
 428              		@ args = 0, pretend = 0, frame = 0
 429              		@ frame_needed = 0, uses_anonymous_args = 0
 430 0000 08B5     		push	{r3, lr}
 431              		.cfi_def_cfa_offset 8
 432              		.cfi_offset 3, -8
 433              		.cfi_offset 14, -4
  57:.\Generated_Source\PSoC5/PrISM.c ****     {
 434              		.loc 1 57 0
 435 0002 054B     		ldr	r3, .L49
 436 0004 1B78     		ldrb	r3, [r3]	@ zero_extendqisi2
 437 0006 23B9     		cbnz	r3, .L47
  59:.\Generated_Source\PSoC5/PrISM.c ****         PrISM_initVar = 1u;
 438              		.loc 1 59 0
 439 0008 FFF7FEFF 		bl	PrISM_Init
 440              	.LVL12:
  60:.\Generated_Source\PSoC5/PrISM.c ****     }
 441              		.loc 1 60 0
 442 000c 0122     		movs	r2, #1
 443 000e 024B     		ldr	r3, .L49
 444 0010 1A70     		strb	r2, [r3]
 445              	.L47:
  62:.\Generated_Source\PSoC5/PrISM.c **** }
 446              		.loc 1 62 0
 447 0012 FFF7FEFF 		bl	PrISM_Enable
 448              	.LVL13:
 449 0016 08BD     		pop	{r3, pc}
 450              	.L50:
 451              		.align	2
 452              	.L49:
 453 0018 00000000 		.word	.LANCHOR0
 454              		.cfi_endproc
ARM GAS  C:\Users\koseki\AppData\Local\Temp\ccTzBEPu.s 			page 16


 455              	.LFE0:
 456              		.size	PrISM_Start, .-PrISM_Start
 457              		.global	PrISM_initVar
 458              		.bss
 459              		.set	.LANCHOR0,. + 0
 460              		.type	PrISM_initVar, %object
 461              		.size	PrISM_initVar, 1
 462              	PrISM_initVar:
 463 0000 00       		.space	1
 464              		.text
 465              	.Letext0:
 466              		.file 2 ".\\Generated_Source\\PSoC5\\cytypes.h"
 467              		.file 3 ".\\Generated_Source\\PSoC5\\CyLib.h"